 driver_loader

 Timestamp is 69c673c5 (Fri Mar 27 14:10:45 2026)

 Preferred load address is 0000000140000000

 Start         Length     Name                   Class
 0001:00000000 000000d0H .text$di                CODE
 0001:000000d0 000a38d0H .text$mn                CODE
 0001:000a39a0 00000060H .text$mn$00             CODE
 0001:000a3a00 00000f30H .text$mn$21             CODE
 0001:000a4930 00002220H .text$x                 CODE
 0001:000a6b50 000004d4H .text$yd                CODE
 0002:00000000 00000600H .idata$5                DATA
 0002:00000600 00000038H .00cfg                  DATA
 0002:00000638 00000008H .CRT$XCA                DATA
 0002:00000640 00000008H .CRT$XCAA               DATA
 0002:00000648 00000018H .CRT$XCC                DATA
 0002:00000660 00000010H .CRT$XCL                DATA
 0002:00000670 00000038H .CRT$XCU                DATA
 0002:000006a8 00000008H .CRT$XCZ                DATA
 0002:000006b0 00000008H .CRT$XIA                DATA
 0002:000006b8 00000008H .CRT$XIAA               DATA
 0002:000006c0 00000008H .CRT$XIAC               DATA
 0002:000006c8 00000028H .CRT$XIC                DATA
 0002:000006f0 00000008H .CRT$XIZ                DATA
 0002:000006f8 00000008H .CRT$XLA                DATA
 0002:00000700 00000008H .CRT$XLZ                DATA
 0002:00000708 00000008H .CRT$XPA                DATA
 0002:00000710 00000010H .CRT$XPX                DATA
 0002:00000720 00000008H .CRT$XPXA               DATA
 0002:00000728 00000008H .CRT$XPZ                DATA
 0002:00000730 00000008H .CRT$XTA                DATA
 0002:00000738 00000008H .CRT$XTZ                DATA
 0002:00000740 00000000H .gehcont$y              DATA
 0002:00000740 00000000H .gfids$y                DATA
 0002:00000740 00000000H .giats$y                DATA
 0002:00000740 0003d620H .rdata                  DATA
 0002:0003dd60 000001a0H .rdata$00               DATA
 0002:0003df00 00000000H .rdata$CastGuardVftablesA DATA
 0002:0003df00 00000000H .rdata$CastGuardVftablesC DATA
 0002:0003df00 00000028H .rdata$T                DATA
 0002:0003df28 00000c4cH .rdata$r                DATA
 0002:0003eb74 000005d0H .rdata$voltmd           DATA
 0002:0003f144 00000444H .rdata$zzzdbg           DATA
 0002:0003f588 00000008H .rtc$IAA                DATA
 0002:0003f590 00000008H .rtc$IZZ                DATA
 0002:0003f598 00000008H .rtc$TAA                DATA
 0002:0003f5a0 00000010H .rtc$TZZ                DATA
 0002:0003f5b0 00000010H .tls                    DATA
 0002:0003f5c0 0000249cH .tls$                   DATA
 0002:00041a5c 00000004H .tls$ZZZ                DATA
 0002:00041a60 0000c530H .xdata                  DATA
 0002:0004df90 0000047cH .xdata$x                DATA
 0002:0004e40c 00000000H .edata                  DATA
 0002:0004e40c 0000008cH .idata$2                DATA
 0002:0004e498 00000018H .idata$3                DATA
 0002:0004e4b0 00000600H .idata$4                DATA
 0002:0004eab0 00000ddcH .idata$6                DATA
 0003:00000000 00000dd0H .data                   DATA
 0003:00000dd0 00000220H .data$r                 DATA
 0003:00000ff0 000002b0H .data$rs                DATA
 0003:000012a0 00001c24H .bss                    DATA
 0004:00000000 00006bc4H .pdata                  DATA
 0005:00000000 00000100H .fptable                DATA
 0006:00000000 00000100H .rsrc$01                DATA
 0006:00000100 00e925d0H .rsrc$02                DATA

  Address         Publics by Value              Rva+Base               Lib:Object

 0000:00000000       __AbsoluteZero             0000000000000000     <absolute>
 0000:00000000       ___safe_se_handler_count   0000000000000000     <absolute>
 0000:00000000       ___safe_se_handler_table   0000000000000000     <absolute>
 0000:00000000       __arm64x_extra_rfe_table   0000000000000000     <absolute>
 0000:00000000       __arm64x_extra_rfe_table_size 0000000000000000     <absolute>
 0000:00000000       __arm64x_native_entrypoint 0000000000000000     <absolute>
 0000:00000000       __arm64x_redirection_metadata 0000000000000000     <absolute>
 0000:00000000       __arm64x_redirection_metadata_count 0000000000000000     <absolute>
 0000:00000000       __dynamic_value_reloc_table 0000000000000000     <absolute>
 0000:00000000       __enclave_config           0000000000000000     <absolute>
 0000:00000000       __guard_check_icall_a64n_fptr 0000000000000000     <absolute>
 0000:00000000       __guard_eh_cont_count      0000000000000000     <absolute>
 0000:00000000       __guard_eh_cont_table      0000000000000000     <absolute>
 0000:00000000       __guard_fids_count         0000000000000000     <absolute>
 0000:00000000       __guard_fids_table         0000000000000000     <absolute>
 0000:00000000       __guard_iat_count          0000000000000000     <absolute>
 0000:00000000       __guard_iat_table          0000000000000000     <absolute>
 0000:00000000       __guard_longjmp_count      0000000000000000     <absolute>
 0000:00000000       __guard_longjmp_table      0000000000000000     <absolute>
 0000:00000000       __hybrid_auxiliary_delayload_iat 0000000000000000     <absolute>
 0000:00000000       __hybrid_auxiliary_delayload_iat_copy 0000000000000000     <absolute>
 0000:00000000       __hybrid_auxiliary_iat     0000000000000000     <absolute>
 0000:00000000       __hybrid_auxiliary_iat_copy 0000000000000000     <absolute>
 0000:00000000       __hybrid_code_map          0000000000000000     <absolute>
 0000:00000000       __hybrid_code_map_count    0000000000000000     <absolute>
 0000:00000000       __hybrid_image_info_bitfield 0000000000000000     <absolute>
 0000:00000000       __x64_code_ranges_to_entry_points 0000000000000000     <absolute>
 0000:00000000       __x64_code_ranges_to_entry_points_count 0000000000000000     <absolute>
 0000:00000100       __guard_flags              0000000000000100     <absolute>
 0000:00000000       __ImageBase                0000000140000000     <linker-defined>
 0001:000000d0       ??$?0PEA_W$0A@@?$basic_string@_WU?$char_traits@_W@std@@V?$allocator@_W@2@@std@@QEAA@PEA_W0AEBV?$allocator@_W@1@@Z 00000001400010d0 f i main.obj
 0001:000001f0       ??$?H_WU?$char_traits@_W@std@@V?$allocator@_W@1@@std@@YA?AV?$basic_string@_WU?$char_traits@_W@std@@V?$allocator@_W@2@@0@$$QEAV10@QEB_W@Z 00000001400011f0 f i main.obj
 0001:00000270       ??$?RH@?$_Arg_formatter@V?$back_insert_iterator@V?$_Fmt_buffer@_W@std@@@std@@_W@std@@QEAA?AV?$back_insert_iterator@V?$_Fmt_buffer@_W@std@@@1@H@Z 0000000140001270 f i main.obj
 0001:000002c0       ??$?RH@?$_Default_arg_formatter@V?$back_insert_iterator@V?$_Fmt_buffer@_W@std@@@std@@_W@std@@QEHAA?AV?$back_insert_iterator@V?$_Fmt_buffer@_W@std@@@1@H@Z 00000001400012c0 f i main.obj
 0001:000003f0       ??$?RM@_Precision_checker@std@@SA_KM@Z 00000001400013f0 f i main.obj
 0001:00000410       ??$?RM@_Width_checker@std@@SA_KM@Z 0000000140001410 f i main.obj
 0001:00000430       ??$?RN@_Precision_checker@std@@SA_KN@Z 0000000140001430 f i main.obj
 0001:00000450       ??$?RN@_Width_checker@std@@SA_KN@Z 0000000140001450 f i main.obj
 0001:00000470       ??$?RO@_Precision_checker@std@@SA_KO@Z 0000000140001470 f i main.obj
 0001:00000490       ??$?RO@_Width_checker@std@@SA_KO@Z 0000000140001490 f i main.obj
 0001:000004b0       ??$?RPEBX@_Precision_checker@std@@SA_KQEBX@Z 00000001400014b0 f i main.obj
 0001:000004d0       ??$?RPEBX@_Width_checker@std@@SA_KQEBX@Z 00000001400014d0 f i main.obj
 0001:000004f0       ??$?RPEB_W@_Precision_checker@std@@SA_KQEB_W@Z 00000001400014f0 f i main.obj
 0001:00000510       ??$?RPEB_W@_Width_checker@std@@SA_KQEB_W@Z 0000000140001510 f i main.obj
 0001:00000530       ??$?RUmonostate@std@@@_Precision_checker@std@@SA_KUmonostate@1@@Z 0000000140001530 f i main.obj
 0001:00000550       ??$?RUmonostate@std@@@_Width_checker@std@@SA_KUmonostate@1@@Z 0000000140001550 f i main.obj
 0001:00000570       ??$?RV?$basic_string_view@_WU?$char_traits@_W@std@@@std@@@_Precision_checker@std@@SA_KV?$basic_string_view@_WU?$char_traits@_W@std@@@1@@Z 0000000140001570 f i main.obj
 0001:00000590       ??$?RV?$basic_string_view@_WU?$char_traits@_W@std@@@std@@@_Width_checker@std@@SA_KV?$basic_string_view@_WU?$char_traits@_W@std@@@1@@Z 0000000140001590 f i main.obj
 0001:000005b0       ??$?RVhandle@?$basic_format_arg@V?$basic_format_context@V?$back_insert_iterator@V?$_Fmt_buffer@_W@std@@@std@@_W@std@@@std@@@_Precision_checker@std@@SA_KVhandle@?$basic_format_arg@V?$basic_format_context@V?$back_insert_iterator@V?$_Fmt_buffer@_W@std@@@std@@_W@std@@@1@@Z 00000001400015b0 f i main.obj
 0001:000005d0       ??$?RVhandle@?$basic_format_arg@V?$basic_format_context@V?$back_insert_iterator@V?$_Fmt_buffer@_W@std@@@std@@_W@std@@@std@@@_Width_checker@std@@SA_KVhandle@?$basic_format_arg@V?$basic_format_context@V?$back_insert_iterator@V?$_Fmt_buffer@_W@std@@@std@@_W@std@@@1@@Z 00000001400015d0 f i main.obj
 0001:000005f0       ??$?R_N@_Precision_checker@std@@SA_K_N@Z 00000001400015f0 f i main.obj
 0001:00000610       ??$?R_N@_Width_checker@std@@SA_K_N@Z 0000000140001610 f i main.obj
 0001:00000630       ??$?R_W@_Precision_checker@std@@SA_K_W@Z 0000000140001630 f i main.obj
 0001:00000650       ??$?R_W@_Width_checker@std@@SA_K_W@Z 0000000140001650 f i main.obj
 0001:00000670       ??$_Allocate@$0BA@U_Default_allocate_traits@std@@@std@@YAPEAX_K@Z 0000000140001670 f i main.obj
 0001:000006e0       ??$_Construct@$00PEBD@?$basic_string@DU?$char_traits@D@std@@V?$allocator@D@2@@std@@AEAAXQEBD_K@Z 00000001400016e0 f i main.obj
 0001:000007a0       ??$_Construct@$00PEB_W@?$basic_string@_WU?$char_traits@_W@std@@V?$allocator@_W@2@@std@@AEAAXQEB_W_K@Z 00000001400017a0 f i main.obj
 0001:00000890       ??$_Construct_from_iter@PEADPEAD_K@?$basic_string@_WU?$char_traits@_W@std@@V?$allocator@_W@2@@std@@AEAAXPEADQEAD_K@Z 0000000140001890 f i main.obj
 0001:000009a0       ??$_Convert_wide_to_narrow_replace_chars@U?$char_traits@D@std@@V?$allocator@D@2@@filesystem@std@@YA?AV?$basic_string@DU?$char_traits@D@std@@V?$allocator@D@2@@1@W4__std_code_page@@V?$basic_string_view@_WU?$char_traits@_W@std@@@1@AEBV?$allocator@D@1@@Z 00000001400019a0 f i main.obj
 0001:00000a80       ??$_Floating_to_chars@$00N@std@@YA?AUto_chars_result@0@PEADQEADNW4chars_format@0@H@Z 0000000140001a80 f i main.obj
 0001:00000bf0       ??$_Floating_to_chars@$01N@std@@YA?AUto_chars_result@0@PEADQEADNW4chars_format@0@H@Z 0000000140001bf0 f i main.obj
 0001:00000d90       ??$_Floating_to_chars@$0A@N@std@@YA?AUto_chars_result@0@PEADQEADNW4chars_format@0@H@Z 0000000140001d90 f i main.obj
 0001:00000ef0       ??$_Floating_to_chars_fixed_precision@N@std@@YA?AUto_chars_result@0@QEAD0NH@Z 0000000140001ef0 f i main.obj
 0001:00000f50       ??$_Floating_to_chars_general_precision@M@std@@YA?AUto_chars_result@0@PEADQEADMH@Z 0000000140001f50 f i main.obj
 0001:00001240       ??$_Floating_to_chars_general_precision@N@std@@YA?AUto_chars_result@0@PEADQEADNH@Z 0000000140002240 f i main.obj
 0001:00001570       ??$_Floating_to_chars_hex_precision@M@std@@YA?AUto_chars_result@0@PEADQEADMH@Z 0000000140002570 f i main.obj
 0001:000017a0       ??$_Floating_to_chars_hex_precision@N@std@@YA?AUto_chars_result@0@PEADQEADNH@Z 00000001400027a0 f i main.obj
 0001:00001a00       ??$_Floating_to_chars_hex_shortest@M@std@@YA?AUto_chars_result@0@PEADQEADM@Z 0000000140002a00 f i main.obj
 0001:00001ba0       ??$_Floating_to_chars_hex_shortest@N@std@@YA?AUto_chars_result@0@PEADQEADN@Z 0000000140002ba0 f i main.obj
 0001:00001d50       ??$_Floating_to_chars_ryu@M@std@@YA?AUto_chars_result@0@QEAD0MW4chars_format@0@@Z 0000000140002d50 f i main.obj
 0001:00001e60       ??$_Floating_to_chars_scientific_precision@N@std@@YA?AUto_chars_result@0@QEAD0NH@Z 0000000140002e60 f i main.obj
 0001:00001ec0       ??$_Fmt_write@_WV?$back_insert_iterator@V?$_Fmt_buffer@_W@std@@@std@@@std@@YA?AV?$back_insert_iterator@V?$_Fmt_buffer@_W@std@@@0@V10@PEB_WAEBU?$_Basic_format_specs@_W@0@V_Lazy_locale@0@@Z 0000000140002ec0 f i main.obj
 0001:00001f30       ??$_Fmt_write@_WV?$back_insert_iterator@V?$_Fmt_buffer@_W@std@@@std@@@std@@YA?AV?$back_insert_iterator@V?$_Fmt_buffer@_W@std@@@0@V10@V?$basic_string_view@_WU?$char_traits@_W@std@@@0@AEBU?$_Basic_format_specs@_W@0@V_Lazy_locale@0@@Z 0000000140002f30 f i main.obj
 0001:00002140       ??$_Fmt_write@_WV?$back_insert_iterator@V?$_Fmt_buffer@_W@std@@@std@@@std@@YA?AV?$back_insert_iterator@V?$_Fmt_buffer@_W@std@@@0@V10@_NU?$_Basic_format_specs@_W@0@V_Lazy_locale@0@@Z 0000000140003140 f i main.obj
 0001:000023d0       ??$_Fmt_write@_WV?$back_insert_iterator@V?$_Fmt_buffer@_W@std@@@std@@M@std@@YA?AV?$back_insert_iterator@V?$_Fmt_buffer@_W@std@@@0@V10@MAEBU?$_Basic_format_specs@_W@0@V_Lazy_locale@0@@Z 00000001400033d0 f i main.obj
 0001:00002d20       ??$_Fmt_write@_WV?$back_insert_iterator@V?$_Fmt_buffer@_W@std@@@std@@N@std@@YA?AV?$back_insert_iterator@V?$_Fmt_buffer@_W@std@@@0@V10@NAEBU?$_Basic_format_specs@_W@0@V_Lazy_locale@0@@Z 0000000140003d20 f i main.obj
 0001:00003470       ??$_Fmt_write@_WV?$back_insert_iterator@V?$_Fmt_buffer@_W@std@@@std@@O@std@@YA?AV?$back_insert_iterator@V?$_Fmt_buffer@_W@std@@@0@V10@OAEBU?$_Basic_format_specs@_W@0@V_Lazy_locale@0@@Z 0000000140004470 f i main.obj
 0001:00003bc0       ??$_Get_arg@V?$basic_format_context@V?$back_insert_iterator@V?$_Fmt_buffer@_W@std@@@std@@_W@std@@@std@@YA?AV?$basic_format_arg@V?$basic_format_context@V?$back_insert_iterator@V?$_Fmt_buffer@_W@std@@@std@@_W@std@@@0@AEBV?$basic_format_context@V?$back_insert_iterator@V?$_Fmt_buffer@_W@std@@@std@@_W@0@_K@Z 0000000140004bc0 f i main.obj
 0001:00003d50       ??$_Get_dynamic_specs@V_Precision_checker@std@@V?$basic_format_arg@V?$basic_format_context@V?$back_insert_iterator@V?$_Fmt_buffer@_W@std@@@std@@_W@std@@@2@@std@@YAHV?$basic_format_arg@V?$basic_format_context@V?$back_insert_iterator@V?$_Fmt_buffer@_W@std@@@std@@_W@std@@@0@@Z 0000000140004d50 f i main.obj
 0001:00003ed0       ??$_Get_dynamic_specs@V_Width_checker@std@@V?$basic_format_arg@V?$basic_format_context@V?$back_insert_iterator@V?$_Fmt_buffer@_W@std@@@std@@_W@std@@@2@@std@@YAHV?$basic_format_arg@V?$basic_format_context@V?$back_insert_iterator@V?$_Fmt_buffer@_W@std@@@std@@_W@std@@@0@@Z 0000000140004ed0 f i main.obj
 0001:00004050       ??$_Insert_counted_range@PEAE@?$vector@EV?$allocator@E@std@@@std@@AEAAXV?$_Vector_const_iterator@V?$_Vector_val@U?$_Simple_types@E@std@@@std@@@1@PEAE_K@Z 0000000140005050 f i main.obj
 0001:00004230       ??$_Integer_to_chars@E@std@@YA?AUto_chars_result@0@PEADQEADEH@Z 0000000140005230 f i main.obj
 0001:00004450       ??$_Integer_to_chars@G@std@@YA?AUto_chars_result@0@PEADQEADGH@Z 0000000140005450 f i main.obj
 0001:00004670       ??$_Integer_to_chars@H@std@@YA?AUto_chars_result@0@PEADQEADHH@Z 0000000140005670 f i main.obj
 0001:000048a0       ??$_Integer_to_chars@I@std@@YA?AUto_chars_result@0@PEADQEADIH@Z 00000001400058a0 f i main.obj
 0001:00004ab0       ??$_Integer_to_chars@_J@std@@YA?AUto_chars_result@0@PEADQEAD_JH@Z 0000000140005ab0 f i main.obj
 0001:00004d00       ??$_Integer_to_chars@_K@std@@YA?AUto_chars_result@0@PEADQEAD_KH@Z 0000000140005d00 f i main.obj
 0001:00004f20       ??$_Large_integer_to_chars@D@std@@YA?AU?$pair@PEADW4errc@std@@@0@QEAD0IH@Z 0000000140005f20 f i main.obj
 0001:00005100       ??$_Move_unchecked@PEAEPEAE@std@@YAPEAEPEAE00@Z 0000000140006100 f i main.obj
 0001:00005130       ??$_On_type@_W@?$_Specs_checker@V?$_Specs_handler@V?$basic_format_parse_context@_W@std@@V?$basic_format_context@V?$back_insert_iterator@V?$_Fmt_buffer@_W@std@@@std@@_W@2@@std@@@std@@QEAAX_W@Z 0000000140006130 f i main.obj
 0001:000053e0       ??$_Parse_arg_id@_WAEAU?$_Id_adapter@_W@std@@@std@@YAPEB_WPEB_W0AEAU?$_Id_adapter@_W@0@@Z 00000001400063e0 f i main.obj
 0001:000054e0       ??$_Parse_arg_id@_WU?$_Precision_adapter@_WAEAV?$_Specs_checker@V?$_Specs_handler@V?$basic_format_parse_context@_W@std@@V?$basic_format_context@V?$back_insert_iterator@V?$_Fmt_buffer@_W@std@@@std@@_W@2@@std@@@std@@@std@@@std@@YAPEB_WPEB_W0$$QEAU?$_Precision_adapter@_WAEAV?$_Specs_checker@V?$_Specs_handler@V?$basic_format_parse_context@_W@std@@V?$basic_format_context@V?$back_insert_iterator@V?$_Fmt_buffer@_W@std@@@std@@_W@2@@std@@@std@@@0@@Z 00000001400064e0 f i main.obj
 0001:000056a0       ??$_Parse_arg_id@_WU?$_Width_adapter@_WAEAV?$_Specs_checker@V?$_Specs_handler@V?$basic_format_parse_context@_W@std@@V?$basic_format_context@V?$back_insert_iterator@V?$_Fmt_buffer@_W@std@@@std@@_W@2@@std@@@std@@@std@@@std@@YAPEB_WPEB_W0$$QEAU?$_Width_adapter@_WAEAV?$_Specs_checker@V?$_Specs_handler@V?$basic_format_parse_context@_W@std@@V?$basic_format_context@V?$back_insert_iterator@V?$_Fmt_buffer@_W@std@@@std@@_W@2@@std@@@std@@@0@@Z 00000001400066a0 f i main.obj
 0001:00005810       ??$_Parse_format_specs@_WAEAV?$_Specs_checker@V?$_Specs_handler@V?$basic_format_parse_context@_W@std@@V?$basic_format_context@V?$back_insert_iterator@V?$_Fmt_buffer@_W@std@@@std@@_W@2@@std@@@std@@@std@@YAPEB_WPEB_W0AEAV?$_Specs_checker@V?$_Specs_handler@V?$basic_format_parse_context@_W@std@@V?$basic_format_context@V?$back_insert_iterator@V?$_Fmt_buffer@_W@std@@@std@@_W@2@@std@@@0@@Z 0000000140006810 f i main.obj
 0001:00005c50       ??$_Parse_format_string@_WAEAU?$_Format_handler@_W@std@@@std@@YAXV?$basic_string_view@_WU?$char_traits@_W@std@@@0@AEAU?$_Format_handler@_W@0@@Z 0000000140006c50 f i main.obj
 0001:00005de0       ??$_Parse_replacement_field@_WAEAU?$_Format_handler@_W@std@@@std@@YAPEB_WPEB_W0AEAU?$_Format_handler@_W@0@@Z 0000000140006de0 f i main.obj
 0001:00006010       ??$_Reallocate_grow_by@V<lambda_1>@?1??append@?$basic_string@DU?$char_traits@D@std@@V?$allocator@D@2@@std@@QEAAAEAV34@QEBD_K@Z@PEBD_K@?$basic_string@DU?$char_traits@D@std@@V?$allocator@D@2@@std@@AEAAAEAV01@_KV<lambda_1>@?1??append@01@QEAAAEAV01@QEBD0@Z@PEBD_K@Z 0000000140007010 f i main.obj
 0001:00006160       ??$_Reallocate_grow_by@V<lambda_1>@?1??append@?$basic_string@DU?$char_traits@D@std@@V?$allocator@D@2@@std@@QEAAAEAV34@_KD@Z@_KD@?$basic_string@DU?$char_traits@D@std@@V?$allocator@D@2@@std@@AEAAAEAV01@_KV<lambda_1>@?1??append@01@QEAAAEAV01@0D@Z@_KD@Z 0000000140007160 f i main.obj
 0001:000062b0       ??$_Reallocate_grow_by@V<lambda_1>@?1??append@?$basic_string@_WU?$char_traits@_W@std@@V?$allocator@_W@2@@std@@QEAAAEAV34@QEB_W_K@Z@PEB_W_K@?$basic_string@_WU?$char_traits@_W@std@@V?$allocator@_W@2@@std@@AEAAAEAV01@_KV<lambda_1>@?1??append@01@QEAAAEAV01@QEB_W0@Z@PEB_W_K@Z 00000001400072b0 f i main.obj
 0001:00006400       ??$_Reallocate_grow_by@V<lambda_1>@?1??insert@?$basic_string@DU?$char_traits@D@std@@V?$allocator@D@2@@std@@QEAAAEAV34@_KQEBD0@Z@_KPEBD_K@?$basic_string@DU?$char_traits@D@std@@V?$allocator@D@2@@std@@AEAAAEAV01@_KV<lambda_1>@?1??insert@01@QEAAAEAV01@0QEBD0@Z@_KPEBD3@Z 0000000140007400 f i main.obj
 0001:00006580       ??$_Reallocate_grow_by@V<lambda_1>@?1??insert@?$basic_string@_WU?$char_traits@_W@std@@V?$allocator@_W@2@@std@@QEAAAEAV34@_KQEB_W0@Z@_KPEB_W_K@?$basic_string@_WU?$char_traits@_W@std@@V?$allocator@_W@2@@std@@AEAAAEAV01@_KV<lambda_1>@?1??insert@01@QEAAAEAV01@0QEB_W0@Z@_KPEB_W3@Z 0000000140007580 f i main.obj
 0001:00006710       ??$_Store@AEAV?$basic_string@_WU?$char_traits@_W@std@@V?$allocator@_W@2@@std@@@?$_Format_arg_store@V?$basic_format_context@V?$back_insert_iterator@V?$_Fmt_buffer@_W@std@@@std@@_W@std@@PEB_WKV?$basic_string@_WU?$char_traits@_W@std@@V?$allocator@_W@2@@2@PEB_WKV32@V32@@std@@AEAAX_KAEAV?$basic_string@_WU?$char_traits@_W@std@@V?$allocator@_W@2@@1@@Z 0000000140007710 f i main.obj
 0001:00006770       ??$_Store@AEAV?$basic_string@_WU?$char_traits@_W@std@@V?$allocator@_W@2@@std@@@?$_Format_arg_store@V?$basic_format_context@V?$back_insert_iterator@V?$_Fmt_buffer@_W@std@@@std@@_W@std@@V?$basic_string@_WU?$char_traits@_W@std@@V?$allocator@_W@2@@2@KV32@V32@@std@@AEAAX_KAEAV?$basic_string@_WU?$char_traits@_W@std@@V?$allocator@_W@2@@1@@Z 0000000140007770 f i main.obj
 0001:000067d0       ??$_Traits_compare@U?$char_traits@D@std@@@std@@YAHQEBD_K01@Z 00000001400077d0 f i main.obj
 0001:00006830       ??$_Traits_find@U?$char_traits@_W@std@@@std@@YA_KQEB_W_K101@Z 0000000140007830 f i main.obj
 0001:000068a0       ??$_Uninitialized_move@PEAEV?$allocator@E@std@@@std@@YAPEAEQEAE0PEAEAEAV?$allocator@E@0@@Z 00000001400078a0 f i main.obj
 0001:000068d0       ??$_Visit@U?$_Arg_formatter@V?$back_insert_iterator@V?$_Fmt_buffer@_W@std@@@std@@_W@std@@@?$basic_format_arg@V?$basic_format_context@V?$back_insert_iterator@V?$_Fmt_buffer@_W@std@@@std@@_W@std@@@std@@QEAA?A_T$$QEAU?$_Arg_formatter@V?$back_insert_iterator@V?$_Fmt_buffer@_W@std@@@std@@_W@1@@Z 00000001400078d0 f i main.obj
 0001:00006d90       ??$_Visit@U?$_Default_arg_formatter@V?$back_insert_iterator@V?$_Fmt_buffer@_W@std@@@std@@_W@std@@@?$basic_format_arg@V?$basic_format_context@V?$back_insert_iterator@V?$_Fmt_buffer@_W@std@@@std@@_W@std@@@std@@QEAA?A_T$$QEAU?$_Default_arg_formatter@V?$back_insert_iterator@V?$_Fmt_buffer@_W@std@@@std@@_W@1@@Z 0000000140007d90 f i main.obj
 0001:000075c0       ??$_Widen_and_copy@_WV?$back_insert_iterator@V?$_Fmt_buffer@_W@std@@@std@@@std@@YA?AV?$back_insert_iterator@V?$_Fmt_buffer@_W@std@@@0@PEBDQEBDV10@@Z 00000001400085c0 f i main.obj
 0001:00007650       ??$_Write_aligned@V?$back_insert_iterator@V?$_Fmt_buffer@_W@std@@@std@@U?$_Basic_format_specs@_W@2@AEAV<lambda_1>@?1???$_Fmt_write@_WV?$back_insert_iterator@V?$_Fmt_buffer@_W@std@@@std@@@2@YA?AV12@V12@QEBXAEBU32@V_Lazy_locale@2@@Z@@std@@YA?AV?$back_insert_iterator@V?$_Fmt_buffer@_W@std@@@0@V10@HAEBU?$_Basic_format_specs@_W@0@W4_Fmt_align@0@AEAV<lambda_1>@?1???$_Fmt_write@_WV?$back_insert_iterator@V?$_Fmt_buffer@_W@std@@@std@@@0@YA?AV10@0QEBX1V_Lazy_locale@0@@Z@@Z 0000000140008650 f i main.obj
 0001:000077d0       ??$_Write_aligned@V?$back_insert_iterator@V?$_Fmt_buffer@_W@std@@@std@@U?$_Basic_format_specs@_W@2@AEAV<lambda_1>@?1???$_Fmt_write@_WV?$back_insert_iterator@V?$_Fmt_buffer@_W@std@@@std@@M@2@YA?AV12@V12@MAEBU32@V_Lazy_locale@2@@Z@@std@@YA?AV?$back_insert_iterator@V?$_Fmt_buffer@_W@std@@@0@V10@HAEBU?$_Basic_format_specs@_W@0@W4_Fmt_align@0@AEAV<lambda_1>@?1???$_Fmt_write@_WV?$back_insert_iterator@V?$_Fmt_buffer@_W@std@@@std@@M@0@YA?AV10@0M1V_Lazy_locale@0@@Z@@Z 00000001400087d0 f i main.obj
 0001:00007950       ??$_Write_aligned@V?$back_insert_iterator@V?$_Fmt_buffer@_W@std@@@std@@U?$_Basic_format_specs@_W@2@AEAV<lambda_1>@?1???$_Fmt_write@_WV?$back_insert_iterator@V?$_Fmt_buffer@_W@std@@@std@@N@2@YA?AV12@V12@NAEBU32@V_Lazy_locale@2@@Z@@std@@YA?AV?$back_insert_iterator@V?$_Fmt_buffer@_W@std@@@0@V10@HAEBU?$_Basic_format_specs@_W@0@W4_Fmt_align@0@AEAV<lambda_1>@?1???$_Fmt_write@_WV?$back_insert_iterator@V?$_Fmt_buffer@_W@std@@@std@@N@0@YA?AV10@0N1V_Lazy_locale@0@@Z@@Z 0000000140008950 f i main.obj
 0001:00007ad0       ??$_Write_aligned@V?$back_insert_iterator@V?$_Fmt_buffer@_W@std@@@std@@U?$_Basic_format_specs@_W@2@AEAV<lambda_1>@?1???$_Fmt_write@_WV?$back_insert_iterator@V?$_Fmt_buffer@_W@std@@@std@@O@2@YA?AV12@V12@OAEBU32@V_Lazy_locale@2@@Z@@std@@YA?AV?$back_insert_iterator@V?$_Fmt_buffer@_W@std@@@0@V10@HAEBU?$_Basic_format_specs@_W@0@W4_Fmt_align@0@AEAV<lambda_1>@?1???$_Fmt_write@_WV?$back_insert_iterator@V?$_Fmt_buffer@_W@std@@@std@@O@0@YA?AV10@0O1V_Lazy_locale@0@@Z@@Z 0000000140008ad0 f i main.obj
 0001:00007c50       ??$_Write_aligned@V?$back_insert_iterator@V?$_Fmt_buffer@_W@std@@@std@@U?$_Basic_format_specs@_W@2@AEAV<lambda_1>@?1???$_Write_integral@_WV?$back_insert_iterator@V?$_Fmt_buffer@_W@std@@@std@@E@2@YA?AV12@V12@EU32@V_Lazy_locale@2@@Z@@std@@YA?AV?$back_insert_iterator@V?$_Fmt_buffer@_W@std@@@0@V10@HAEBU?$_Basic_format_specs@_W@0@W4_Fmt_align@0@AEAV<lambda_1>@?1???$_Write_integral@_WV?$back_insert_iterator@V?$_Fmt_buffer@_W@std@@@std@@E@0@YA?AV10@0EU20@V_Lazy_locale@0@@Z@@Z 0000000140008c50 f i main.obj
 0001:00007dd0       ??$_Write_aligned@V?$back_insert_iterator@V?$_Fmt_buffer@_W@std@@@std@@U?$_Basic_format_specs@_W@2@AEAV<lambda_1>@?1???$_Write_integral@_WV?$back_insert_iterator@V?$_Fmt_buffer@_W@std@@@std@@G@2@YA?AV12@V12@GU32@V_Lazy_locale@2@@Z@@std@@YA?AV?$back_insert_iterator@V?$_Fmt_buffer@_W@std@@@0@V10@HAEBU?$_Basic_format_specs@_W@0@W4_Fmt_align@0@AEAV<lambda_1>@?1???$_Write_integral@_WV?$back_insert_iterator@V?$_Fmt_buffer@_W@std@@@std@@G@0@YA?AV10@0GU20@V_Lazy_locale@0@@Z@@Z 0000000140008dd0 f i main.obj
 0001:00007f50       ??$_Write_aligned@V?$back_insert_iterator@V?$_Fmt_buffer@_W@std@@@std@@U?$_Basic_format_specs@_W@2@AEAV<lambda_1>@?1???$_Write_integral@_WV?$back_insert_iterator@V?$_Fmt_buffer@_W@std@@@std@@H@2@YA?AV12@V12@HU32@V_Lazy_locale@2@@Z@@std@@YA?AV?$back_insert_iterator@V?$_Fmt_buffer@_W@std@@@0@V10@HAEBU?$_Basic_format_specs@_W@0@W4_Fmt_align@0@AEAV<lambda_1>@?1???$_Write_integral@_WV?$back_insert_iterator@V?$_Fmt_buffer@_W@std@@@std@@H@0@YA?AV10@0HU20@V_Lazy_locale@0@@Z@@Z 0000000140008f50 f i main.obj
 0001:000080d0       ??$_Write_aligned@V?$back_insert_iterator@V?$_Fmt_buffer@_W@std@@@std@@U?$_Basic_format_specs@_W@2@AEAV<lambda_1>@?1???$_Write_integral@_WV?$back_insert_iterator@V?$_Fmt_buffer@_W@std@@@std@@I@2@YA?AV12@V12@IU32@V_Lazy_locale@2@@Z@@std@@YA?AV?$back_insert_iterator@V?$_Fmt_buffer@_W@std@@@0@V10@HAEBU?$_Basic_format_specs@_W@0@W4_Fmt_align@0@AEAV<lambda_1>@?1???$_Write_integral@_WV?$back_insert_iterator@V?$_Fmt_buffer@_W@std@@@std@@I@0@YA?AV10@0IU20@V_Lazy_locale@0@@Z@@Z 00000001400090d0 f i main.obj
 0001:00008250       ??$_Write_aligned@V?$back_insert_iterator@V?$_Fmt_buffer@_W@std@@@std@@U?$_Basic_format_specs@_W@2@AEAV<lambda_1>@?1???$_Write_integral@_WV?$back_insert_iterator@V?$_Fmt_buffer@_W@std@@@std@@_J@2@YA?AV12@V12@_JU32@V_Lazy_locale@2@@Z@@std@@YA?AV?$back_insert_iterator@V?$_Fmt_buffer@_W@std@@@0@V10@HAEBU?$_Basic_format_specs@_W@0@W4_Fmt_align@0@AEAV<lambda_1>@?1???$_Write_integral@_WV?$back_insert_iterator@V?$_Fmt_buffer@_W@std@@@std@@_J@0@YA?AV10@0_JU20@V_Lazy_locale@0@@Z@@Z 0000000140009250 f i main.obj
 0001:000083d0       ??$_Write_aligned@V?$back_insert_iterator@V?$_Fmt_buffer@_W@std@@@std@@U?$_Basic_format_specs@_W@2@AEAV<lambda_1>@?1???$_Write_integral@_WV?$back_insert_iterator@V?$_Fmt_buffer@_W@std@@@std@@_K@2@YA?AV12@V12@_KU32@V_Lazy_locale@2@@Z@@std@@YA?AV?$back_insert_iterator@V?$_Fmt_buffer@_W@std@@@0@V10@HAEBU?$_Basic_format_specs@_W@0@W4_Fmt_align@0@AEAV<lambda_1>@?1???$_Write_integral@_WV?$back_insert_iterator@V?$_Fmt_buffer@_W@std@@@std@@_K@0@YA?AV10@0_KU20@V_Lazy_locale@0@@Z@@Z 00000001400093d0 f i main.obj
 0001:00008550       ??$_Write_aligned@V?$back_insert_iterator@V?$_Fmt_buffer@_W@std@@@std@@U?$_Basic_format_specs@_W@2@V<lambda_1>@?1???$_Fmt_write@_WV?$back_insert_iterator@V?$_Fmt_buffer@_W@std@@@std@@@2@YA?AV12@V12@V?$basic_string_view@_WU?$char_traits@_W@std@@@2@AEBU32@V_Lazy_locale@2@@Z@@std@@YA?AV?$back_insert_iterator@V?$_Fmt_buffer@_W@std@@@0@V10@HAEBU?$_Basic_format_specs@_W@0@W4_Fmt_align@0@$$QEAV<lambda_1>@?1???$_Fmt_write@_WV?$back_insert_iterator@V?$_Fmt_buffer@_W@std@@@std@@@0@YA?AV10@0V?$basic_string_view@_WU?$char_traits@_W@std@@@0@1V_Lazy_locale@0@@Z@@Z 0000000140009550 f i main.obj
 0001:00008720       ??$_Write_integral@_WV?$back_insert_iterator@V?$_Fmt_buffer@_W@std@@@std@@E@std@@YA?AV?$back_insert_iterator@V?$_Fmt_buffer@_W@std@@@0@V10@EU?$_Basic_format_specs@_W@0@V_Lazy_locale@0@@Z 0000000140009720 f i main.obj
 0001:00008bd0       ??$_Write_integral@_WV?$back_insert_iterator@V?$_Fmt_buffer@_W@std@@@std@@G@std@@YA?AV?$back_insert_iterator@V?$_Fmt_buffer@_W@std@@@0@V10@GU?$_Basic_format_specs@_W@0@V_Lazy_locale@0@@Z 0000000140009bd0 f i main.obj
 0001:00009080       ??$_Write_integral@_WV?$back_insert_iterator@V?$_Fmt_buffer@_W@std@@@std@@H@std@@YA?AV?$back_insert_iterator@V?$_Fmt_buffer@_W@std@@@0@V10@HU?$_Basic_format_specs@_W@0@V_Lazy_locale@0@@Z 000000014000a080 f i main.obj
 0001:00009560       ??$_Write_integral@_WV?$back_insert_iterator@V?$_Fmt_buffer@_W@std@@@std@@I@std@@YA?AV?$back_insert_iterator@V?$_Fmt_buffer@_W@std@@@0@V10@IU?$_Basic_format_specs@_W@0@V_Lazy_locale@0@@Z 000000014000a560 f i main.obj
 0001:00009a30       ??$_Write_integral@_WV?$back_insert_iterator@V?$_Fmt_buffer@_W@std@@@std@@_J@std@@YA?AV?$back_insert_iterator@V?$_Fmt_buffer@_W@std@@@0@V10@_JU?$_Basic_format_specs@_W@0@V_Lazy_locale@0@@Z 000000014000aa30 f i main.obj
 0001:00009f10       ??$_Write_integral@_WV?$back_insert_iterator@V?$_Fmt_buffer@_W@std@@@std@@_K@std@@YA?AV?$back_insert_iterator@V?$_Fmt_buffer@_W@std@@@0@V10@_KU?$_Basic_format_specs@_W@0@V_Lazy_locale@0@@Z 000000014000af10 f i main.obj
 0001:0000a3d0       ??$_Write_separated_integer@_WV?$back_insert_iterator@V?$_Fmt_buffer@_W@std@@@std@@@std@@YA?AV?$back_insert_iterator@V?$_Fmt_buffer@_W@std@@@0@PEBDQEBDV?$basic_string_view@DU?$char_traits@D@std@@@0@_WHV10@@Z 000000014000b3d0 f i main.obj
 0001:0000a560       ??$__append_c_digits@D@std@@YAXIIQEAD@Z 000000014000b560 f i main.obj
 0001:0000a600       ??$__append_n_digits@D@std@@YAXIIQEAD@Z 000000014000b600 f i main.obj
 0001:0000a710       ??$__append_nine_digits@D@std@@YAXIQEAD@Z 000000014000b710 f i main.obj
 0001:0000a7b0       ??$__d2fixed_buffered_n@D@std@@YA?AU?$pair@PEADW4errc@std@@@0@PEADQEADNI@Z 000000014000b7b0 f i main.obj
 0001:0000ad70       ??$__d2s_buffered_n@D@std@@YA?AU?$pair@PEADW4errc@std@@@0@QEAD0NW4chars_format@0@@Z 000000014000bd70 f i main.obj
 0001:0000af30       ??$__to_chars@D@std@@YA?AU?$pair@PEADW4errc@std@@@0@QEAD0U__floating_decimal_32@0@W4chars_format@0@II@Z 000000014000bf30 f i main.obj
 0001:0000b2f0       ??$__to_chars@D@std@@YA?AU?$pair@PEADW4errc@std@@@0@QEAD0U__floating_decimal_64@0@W4chars_format@0@N@Z 000000014000c2f0 f i main.obj
 0001:0000b9b0       ??$format@AEAV?$basic_string@_WU?$char_traits@_W@std@@V?$allocator@_W@2@@std@@@std@@YA?AV?$basic_string@_WU?$char_traits@_W@std@@V?$allocator@_W@2@@0@U?$basic_format_string@_WAEAV?$basic_string@_WU?$char_traits@_W@std@@V?$allocator@_W@2@@std@@@0@AEAV10@@Z 000000014000c9b0 f i main.obj
 0001:0000ba40       ??$format@AEA_K@std@@YA?AV?$basic_string@_WU?$char_traits@_W@std@@V?$allocator@_W@2@@0@U?$basic_format_string@_WAEA_K@0@AEA_K@Z 000000014000ca40 f i main.obj
 0001:0000bac0       ??$format@PEB_W@std@@YA?AV?$basic_string@_WU?$char_traits@_W@std@@V?$allocator@_W@2@@0@U?$basic_format_string@_WPEB_W@0@$$QEAPEB_W@Z 000000014000cac0 f i main.obj
 0001:0000bb40       ??$format@V?$basic_string@_WU?$char_traits@_W@std@@V?$allocator@_W@2@@std@@@std@@YA?AV?$basic_string@_WU?$char_traits@_W@std@@V?$allocator@_W@2@@0@U?$basic_format_string@_WV?$basic_string@_WU?$char_traits@_W@std@@V?$allocator@_W@2@@std@@@0@$$QEAV10@@Z 000000014000cb40 f i main.obj
 0001:0000bbd0       ??$swprintf_s@$0EA@@@YAHAEAY0EA@_WPEB_WZZ 000000014000cbd0 f i main.obj
 0001:0000bc30       ??$use_facet@V?$numpunct@_W@std@@@std@@YAAEBV?$numpunct@_W@0@AEBVlocale@0@@Z 000000014000cc30 f i main.obj
 0001:0000bd50       ??$vformat@$0A@@std@@YA?AV?$basic_string@_WU?$char_traits@_W@std@@V?$allocator@_W@2@@0@V?$basic_string_view@_WU?$char_traits@_W@std@@@0@V?$basic_format_args@V?$basic_format_context@V?$back_insert_iterator@V?$_Fmt_buffer@_W@std@@@std@@_W@std@@@0@@Z 000000014000cd50 f i main.obj
 0001:0000bf30       ??$wfmt@H@detail@embedded@@YA?AV?$basic_string@_WU?$char_traits@_W@std@@V?$allocator@_W@2@@std@@V23@H@Z 000000014000cf30 f i main.obj
 0001:0000bfe0       ??$wfmt@HK@detail@embedded@@YA?AV?$basic_string@_WU?$char_traits@_W@std@@V?$allocator@_W@2@@std@@V23@HK@Z 000000014000cfe0 f i main.obj
 0001:0000c0a0       ??$wfmt@K@@YA?AV?$basic_string@_WU?$char_traits@_W@std@@V?$allocator@_W@2@@std@@V01@K@Z 000000014000d0a0 f i main.obj
 0001:0000c150       ??$wfmt@K@detail@embedded@@YA?AV?$basic_string@_WU?$char_traits@_W@std@@V?$allocator@_W@2@@std@@V23@K@Z 000000014000d150 f i main.obj
 0001:0000c200       ??$wfmt@KV?$basic_string@_WU?$char_traits@_W@std@@V?$allocator@_W@2@@std@@@@YA?AV?$basic_string@_WU?$char_traits@_W@std@@V?$allocator@_W@2@@std@@V01@K0@Z 000000014000d200 f i main.obj
 0001:0000c2f0       ??$wfmt@V?$basic_string@_WU?$char_traits@_W@std@@V?$allocator@_W@2@@std@@@@YA?AV?$basic_string@_WU?$char_traits@_W@std@@V?$allocator@_W@2@@std@@V01@0@Z 000000014000d2f0 f i main.obj
 0001:0000c3c0       ??$wfmt@V?$basic_string@_WU?$char_traits@_W@std@@V?$allocator@_W@2@@std@@@detail@embedded@@YA?AV?$basic_string@_WU?$char_traits@_W@std@@V?$allocator@_W@2@@std@@V23@0@Z 000000014000d3c0 f i main.obj
 0001:0000c490       ??0?$basic_string@DU?$char_traits@D@std@@V?$allocator@D@2@@std@@QEAA@AEBV01@@Z 000000014000d490 f i main.obj
 0001:0000c550       ??0?$basic_string@DU?$char_traits@D@std@@V?$allocator@D@2@@std@@QEAA@QEBD@Z 000000014000d550 f i main.obj
 0001:0000c5a0       ??0?$basic_string@DU?$char_traits@D@std@@V?$allocator@D@2@@std@@QEAA@_KD@Z 000000014000d5a0 f i main.obj
 0001:0000c680       ??0?$basic_string@_WU?$char_traits@_W@std@@V?$allocator@_W@2@@std@@QEAA@AEBV01@@Z 000000014000d680 f i main.obj
 0001:0000c770       ??0?$basic_string@_WU?$char_traits@_W@std@@V?$allocator@_W@2@@std@@QEAA@QEB_W@Z 000000014000d770 f i main.obj
 0001:0000c7c0       ??0?$basic_string@_WU?$char_traits@_W@std@@V?$allocator@_W@2@@std@@QEAA@U_String_constructor_concat_tag@1@AEAV01@1@Z 000000014000d7c0 f i main.obj
 0001:0000c9a0       ??0?$basic_string@_WU?$char_traits@_W@std@@V?$allocator@_W@2@@std@@QEAA@_K_W@Z 000000014000d9a0 f i main.obj
 0001:0000cab0       ??0_System_error@std@@IEAA@Verror_code@1@AEBV?$basic_string@DU?$char_traits@D@std@@V?$allocator@D@2@@1@@Z 000000014000dab0 f i main.obj
 0001:0000cd10       ??0_System_error@std@@QEAA@AEBV01@@Z 000000014000dd10 f i main.obj
 0001:0000cd60       ??0bad_alloc@std@@QEAA@AEBV01@@Z 000000014000dd60 f i main.obj
 0001:0000cda0       ??0bad_array_new_length@std@@QEAA@AEBV01@@Z 000000014000dda0 f i main.obj
 0001:0000cde0       ??0bad_array_new_length@std@@QEAA@XZ 000000014000dde0 f i main.obj
 0001:0000ce10       ??0bad_cast@std@@QEAA@AEBV01@@Z 000000014000de10 f i main.obj
 0001:0000ce50       ??0bad_cast@std@@QEAA@XZ   000000014000de50 f i main.obj
 0001:0000ce80       ??0exception@std@@QEAA@AEBV01@@Z 000000014000de80 f i main.obj
 0001:0000cec0       ??0filesystem_error@filesystem@std@@QEAA@AEBV012@@Z 000000014000dec0 f i main.obj
 0001:0000cf50       ??0filesystem_error@filesystem@std@@QEAA@AEBV?$basic_string@DU?$char_traits@D@std@@V?$allocator@D@2@@2@AEBVpath@12@Verror_code@2@@Z 000000014000df50 f i main.obj
 0001:0000d080       ??0format_error@std@@QEAA@AEBV01@@Z 000000014000e080 f i main.obj
 0001:0000d0c0       ??0format_error@std@@QEAA@PEBD@Z 000000014000e0c0 f i main.obj
 0001:0000d110       ??0kvc@@QEAA@XZ            000000014000e110 f i main.obj
 0001:0000d170       ??0runtime_error@std@@QEAA@AEBV01@@Z 000000014000e170 f i main.obj
 0001:0000d1b0       ??0system_error@std@@QEAA@AEBV01@@Z 000000014000e1b0 f i main.obj
 0001:0000d210       ??0system_error@std@@QEAA@Verror_code@1@@Z 000000014000e210 f i main.obj
 0001:0000d310       ??1?$_Fmt_iterator_buffer@V?$back_insert_iterator@V?$basic_string@_WU?$char_traits@_W@std@@V?$allocator@_W@2@@std@@@std@@_WU_Fmt_buffer_traits@2@@std@@QEAA@XZ 000000014000e310 f i main.obj
 0001:0000d390       ??1?$_Tidy_guard@V?$numpunct@_W@std@@@std@@QEAA@XZ 000000014000e390 f i main.obj
 0001:0000d3d0       ??1?$_Yarn@D@std@@QEAA@XZ  000000014000e3d0 f i main.obj
 0001:0000d400       ??1?$_Yarn@_W@std@@QEAA@XZ 000000014000e400 f i main.obj
 0001:0000d430       ??1?$basic_string@DU?$char_traits@D@std@@V?$allocator@D@2@@std@@QEAA@XZ 000000014000e430 f i main.obj
 0001:0000d440       ??1?$basic_string@_WU?$char_traits@_W@std@@V?$allocator@_W@2@@std@@QEAA@XZ 000000014000e440 f i main.obj
 0001:0000d450       ??1?$unique_ptr@V_Facet_base@std@@U?$default_delete@V_Facet_base@std@@@2@@std@@QEAA@XZ 000000014000e450 f i main.obj
 0001:0000d470       ??1?$vector@DV?$allocator@D@std@@@std@@QEAA@XZ 000000014000e470 f i main.obj
 0001:0000d480       ??1HttpResp@detail@fb_auth@@QEAA@XZ 000000014000e480 f i main.obj
 0001:0000d490       ??1OpResult@driver_mgr@@QEAA@XZ 000000014000e490 f i main.obj
 0001:0000d4a0       ??1Result@fb_auth@@QEAA@XZ 000000014000e4a0 f i main.obj
 0001:0000d4b0       ??1Session@kvc_session@@QEAA@XZ 000000014000e4b0 f i main.obj
 0001:0000d4f0       ??1_Locinfo@std@@QEAA@XZ   000000014000e4f0 f i main.obj
 0001:0000d590       ??1_System_error_message@std@@QEAA@XZ 000000014000e590 f i main.obj
 0001:0000d5a0       ??1_Vaporization_guard@?$vector@EV?$allocator@E@std@@@std@@QEAA@XZ 000000014000e5a0 f i main.obj
 0001:0000d5c0       ??1bad_array_new_length@std@@UEAA@XZ 000000014000e5c0 f i main.obj
 0001:0000d5e0       ??1bad_cast@std@@UEAA@XZ   000000014000e5e0 f i main.obj
 0001:0000d600       ??1facet@locale@std@@MEAA@XZ 000000014000e600 f i main.obj
 0001:0000d610       ??1filesystem_error@filesystem@std@@UEAA@XZ 000000014000e610 f i main.obj
 0001:0000d650       ??1format_error@std@@UEAA@XZ 000000014000e650 f i main.obj
 0001:0000d670       ??1kvc@@QEAA@XZ            000000014000e670 f i main.obj
 0001:0000d6e0       ??1locale@std@@QEAA@XZ     000000014000e6e0 f i main.obj
 0001:0000d720       ??1path@filesystem@std@@QEAA@XZ 000000014000e720 f i main.obj
 0001:0000d730       ??1system_error@std@@UEAA@XZ 000000014000e730 f i main.obj
 0001:0000d750       ??4?$basic_string@DU?$char_traits@D@std@@V?$allocator@D@2@@std@@QEAAAEAV01@$$QEAV01@@Z 000000014000e750 f i main.obj
 0001:0000d7f0       ??4?$basic_string@_WU?$char_traits@_W@std@@V?$allocator@_W@2@@std@@QEAAAEAV01@$$QEAV01@@Z 000000014000e7f0 f i main.obj
 0001:0000d8a0       ??E?$_Grapheme_break_property_iterator@_W@std@@QEAAAEAV01@XZ 000000014000e8a0 f i main.obj
 0001:0000dbe0       ??R<lambda_10>@?1??extract_and_decrypt@detail@embedded@@YA?AV?$basic_string@_WU?$char_traits@_W@std@@V?$allocator@_W@2@@std@@HPEB_WQEBE1@Z@QEBAPEAXAEBV45@@Z 000000014000ebe0 f i main.obj
 0001:0000def0       ??R<lambda_14>@?DC@??draw_login_ui@auth@@YA_NXZ@QEBAPEB_WXZ 000000014000eef0 f i main.obj
 0001:0000e090       ??R<lambda_1>@?1???$_Fmt_write@_WV?$back_insert_iterator@V?$_Fmt_buffer@_W@std@@@std@@@std@@YA?AV?$back_insert_iterator@V?$_Fmt_buffer@_W@std@@@1@V21@QEBXAEBU?$_Basic_format_specs@_W@1@V_Lazy_locale@1@@Z@QEBA@0@Z 000000014000f090 f i main.obj
 0001:0000e1a0       ??R<lambda_1>@?1???$_Fmt_write@_WV?$back_insert_iterator@V?$_Fmt_buffer@_W@std@@@std@@M@std@@YA?AV?$back_insert_iterator@V?$_Fmt_buffer@_W@std@@@1@V21@MAEBU?$_Basic_format_specs@_W@1@V_Lazy_locale@1@@Z@QEBA@0@Z 000000014000f1a0 f i main.obj
 0001:0000e530       ??R<lambda_1>@?1???$_Fmt_write@_WV?$back_insert_iterator@V?$_Fmt_buffer@_W@std@@@std@@N@std@@YA?AV?$back_insert_iterator@V?$_Fmt_buffer@_W@std@@@1@V21@NAEBU?$_Basic_format_specs@_W@1@V_Lazy_locale@1@@Z@QEBA@0@Z 000000014000f530 f i main.obj
 0001:0000e8c0       ??R<lambda_1>@?1???$_Fmt_write@_WV?$back_insert_iterator@V?$_Fmt_buffer@_W@std@@@std@@O@std@@YA?AV?$back_insert_iterator@V?$_Fmt_buffer@_W@std@@@1@V21@OAEBU?$_Basic_format_specs@_W@1@V_Lazy_locale@1@@Z@QEBA@0@Z 000000014000f8c0 f i main.obj
 0001:0000ec50       ??R<lambda_1>@?1???$_Write_integral@_WV?$back_insert_iterator@V?$_Fmt_buffer@_W@std@@@std@@E@std@@YA?AV?$back_insert_iterator@V?$_Fmt_buffer@_W@std@@@1@V21@EU?$_Basic_format_specs@_W@1@V_Lazy_locale@1@@Z@QEBA@0@Z 000000014000fc50 f i main.obj
 0001:0000ee70       ??R<lambda_1>@?1???$_Write_integral@_WV?$back_insert_iterator@V?$_Fmt_buffer@_W@std@@@std@@G@std@@YA?AV?$back_insert_iterator@V?$_Fmt_buffer@_W@std@@@1@V21@GU?$_Basic_format_specs@_W@1@V_Lazy_locale@1@@Z@QEBA@0@Z 000000014000fe70 f i main.obj
 0001:0000f090       ??R<lambda_1>@?1???$_Write_integral@_WV?$back_insert_iterator@V?$_Fmt_buffer@_W@std@@@std@@H@std@@YA?AV?$back_insert_iterator@V?$_Fmt_buffer@_W@std@@@1@V21@HU?$_Basic_format_specs@_W@1@V_Lazy_locale@1@@Z@QEBA@0@Z 0000000140010090 f i main.obj
 0001:0000f2d0       ??R<lambda_1>@?1???$_Write_integral@_WV?$back_insert_iterator@V?$_Fmt_buffer@_W@std@@@std@@I@std@@YA?AV?$back_insert_iterator@V?$_Fmt_buffer@_W@std@@@1@V21@IU?$_Basic_format_specs@_W@1@V_Lazy_locale@1@@Z@QEBA@0@Z 00000001400102d0 f i main.obj
 0001:0000f4f0       ??R<lambda_1>@?1???$_Write_integral@_WV?$back_insert_iterator@V?$_Fmt_buffer@_W@std@@@std@@_J@std@@YA?AV?$back_insert_iterator@V?$_Fmt_buffer@_W@std@@@1@V21@_JU?$_Basic_format_specs@_W@1@V_Lazy_locale@1@@Z@QEBA@0@Z 00000001400104f0 f i main.obj
 0001:0000f740       ??R<lambda_1>@?1???$_Write_integral@_WV?$back_insert_iterator@V?$_Fmt_buffer@_W@std@@@std@@_K@std@@YA?AV?$back_insert_iterator@V?$_Fmt_buffer@_W@std@@@1@V21@_KU?$_Basic_format_specs@_W@1@V_Lazy_locale@1@@Z@QEBA@0@Z 0000000140010740 f i main.obj
 0001:0000f960       ??R<lambda_1>@?1??GetKernelModuleInfo@detail_dse@@YA?AV?$optional@UKernelModuleInfo@detail_dse@@@std@@PEBD@Z@QEBAPEB_WXZ 0000000140010960 f i main.obj
 0001:0000fb00       ??R<lambda_1>@?1??GetSymbolOffsetsByPatternScan@symbol_engine@@CA?AV?$optional@U?$pair@_K_K@std@@@std@@AEBV?$basic_string@_WU?$char_traits@_W@std@@V?$allocator@_W@2@@4@@Z@QEBA?AV34@XZ 0000000140010b00 f i main.obj
 0001:0000fb80       ??R<lambda_1>@?1??GetWindowsBuildNumber@detail_dse@@YAKXZ@QEBAPEB_WXZ 0000000140010b80 f i main.obj
 0001:0000fd20       ??R<lambda_1>@?1??HttpDownload@symbol_engine@@CA_NAEBV?$basic_string@_WU?$char_traits@_W@std@@V?$allocator@_W@2@@std@@AEAV?$vector@EV?$allocator@E@std@@@4@@Z@QEBAPEB_WXZ 0000000140010d20 f i main.obj
 0001:0000fec0       ??R<lambda_1>@?1??Init@embedded@@YA_NXZ@QEBAPEB_WXZ 0000000140010ec0 f i main.obj
 0001:00010060       ??R<lambda_1>@?1??KVC_SVC_DISP@kvc_session@@YAPEB_WXZ@QEBAPEB_WXZ 0000000140011060 f i main.obj
 0001:00010200       ??R<lambda_1>@?1??KVC_SVC_NAME@kvc_session@@YAPEB_WXZ@QEBAPEB_WXZ 0000000140011200 f i main.obj
 0001:000103a0       ??R<lambda_1>@?1??get@advapi32_@lazy@@YAAEAUapi_t@23@XZ@QEBAPEB_WXZ 00000001400113a0 f i main.obj
 0001:00010540       ??R<lambda_1>@?1??get@bcrypt_loader@detail@embedded@@YAAEAUapi_t@234@XZ@QEBAPEB_WXZ 0000000140011540 f i main.obj
 0001:000106e0       ??R<lambda_1>@?1??get@d3d11_@lazy@@YAAEAUapi_t@23@XZ@QEBAPEB_WXZ 00000001400116e0 f i main.obj
 0001:00010880       ??R<lambda_1>@?1??get@dbghelp_@lazy@@YAAEAUapi_t@23@XZ@QEBAPEB_WXZ 0000000140011880 f i main.obj
 0001:00010a20       ??R<lambda_1>@?1??get@k32@lazy@@YAAEAUapi_t@23@XZ@QEBAPEB_WXZ 0000000140011a20 f i main.obj
 0001:00010bc0       ??R<lambda_1>@?1??get@winhttp_@lazy@@YAAEAUapi_t@23@XZ@QEBAPEB_WXZ 0000000140011bc0 f i main.obj
 0001:00010d60       ??R<lambda_1>@?1??load_driver@driver_mgr@@YA?AUOpResult@2@AEBV?$basic_string@_WU?$char_traits@_W@std@@V?$allocator@_W@2@@std@@V45@K_N0@Z@QEBA@XZ 0000000140011d60 f i main.obj
 0001:00011220       ??R<lambda_1>@?2??GetOriginalCiCallback@session_manager@@YA_KXZ@QEBAPEB_WXZ 0000000140012220 f i main.obj
 0001:000113c0       ??R<lambda_1>@?2??SaveOriginalCiCallback@session_manager@@YAX_K@Z@QEBAPEB_WXZ 00000001400123c0 f i main.obj
 0001:00011700       ??R<lambda_2>@?1??GetSymbolOffsetsByPatternScan@symbol_engine@@CA?AV?$optional@U?$pair@_K_K@std@@@std@@AEBV?$basic_string@_WU?$char_traits@_W@std@@V?$allocator@_W@2@@4@@Z@QEBAPEAEK@Z 0000000140012700 f i main.obj
 0001:00011790       ??R<lambda_2>@?1??Init@embedded@@YA_NXZ@QEBAPEB_WXZ 0000000140012790 f i main.obj
 0001:00011930       ??R<lambda_2>@?4??launch_payload@auth@@YA_NAEBV?$basic_string@_WU?$char_traits@_W@std@@V?$allocator@_W@2@@std@@@Z@QEBAPEB_WXZ 0000000140012930 f i main.obj
 0001:00011ad0       ??R<lambda_2>@?6??GetOriginalCiCallback@session_manager@@YA_KXZ@QEBAPEB_WXZ 0000000140012ad0 f i main.obj
 0001:00011c70       ??R<lambda_2>@?6??SaveOriginalCiCallback@session_manager@@YAX_K@Z@QEBAPEB_WXZ 0000000140012c70 f i main.obj
 0001:00011e10       ??R<lambda_2>@?BB@??FindCiOptionsKernelAddr@detail_dse@@YA_K_K@Z@QEBAPEB_WXZ 0000000140012e10 f i main.obj
 0001:00011fb0       ??R<lambda_2>@?BE@??CalculateOffsetsFromDisk@symbol_engine@@AEAA?AV?$optional@U?$pair@_K_K@std@@@std@@AEBV?$basic_string@_WU?$char_traits@_W@std@@V?$allocator@_W@2@@4@0@Z@QEBAPEB_WXZ 0000000140012fb0 f i main.obj
 0001:000122f0       ??R<lambda_3>@?1??Init@embedded@@YA_NXZ@QEBAPEB_WXZ 00000001400132f0 f i main.obj
 0001:00012630       ??R<lambda_3>@?BG@??CalculateOffsetsFromDisk@symbol_engine@@AEAA?AV?$optional@U?$pair@_K_K@std@@@std@@AEBV?$basic_string@_WU?$char_traits@_W@std@@V?$allocator@_W@2@@4@0@Z@QEBAPEB_WXZ 0000000140013630 f i main.obj
 0001:000127d0       ??R<lambda_4>@?1??Init@embedded@@YA_NXZ@QEBAPEB_WXZ 00000001400137d0 f i main.obj
 0001:00012970       ??R<lambda_5>@?1??GetSymbolOffsetsByPatternScan@symbol_engine@@CA?AV?$optional@U?$pair@_K_K@std@@@std@@AEBV?$basic_string@_WU?$char_traits@_W@std@@V?$allocator@_W@2@@4@@Z@QEBA_NKH@Z 0000000140013970 f i main.obj
 0001:00012a30       ??R<lambda_6>@?4??Init@embedded@@YA_NXZ@QEBAPEB_WXZ 0000000140013a30 f i main.obj
 0001:00012bd0       ??R<lambda_6>@?BG@??draw_login_ui@auth@@YA_NXZ@QEBAPEB_WXZ 0000000140013bd0 f i main.obj
 0001:00012d70       ??R<lambda_6>@?DF@??FindCiOptionsKernelAddr@detail_dse@@YA_K_K@Z@QEBAKK@Z 0000000140013d70 f i main.obj
 0001:00012de0       ??R<lambda_7>@?4??Init@embedded@@YA_NXZ@QEBAPEB_WXZ 0000000140013de0 f i main.obj
 0001:00012f80       ??R<lambda_8>@?4??Init@embedded@@YA_NXZ@QEBAPEB_WXZ 0000000140013f80 f i main.obj
 0001:00013120       ??R<lambda_9>@?6??Init@embedded@@YA_NXZ@QEBAPEB_WXZ 0000000140014120 f i main.obj
 0001:000132c0       ??R?$_Arg_formatter@V?$back_insert_iterator@V?$_Fmt_buffer@_W@std@@@std@@_W@std@@QEAA?AV?$back_insert_iterator@V?$_Fmt_buffer@_W@std@@@1@Vhandle@?$basic_format_arg@V?$basic_format_context@V?$back_insert_iterator@V?$_Fmt_buffer@_W@std@@@std@@_W@std@@@1@@Z 00000001400142c0 f i main.obj
 0001:000132e0       ??_E?$numpunct@_W@std@@MEAAPEAXI@Z 00000001400142e0 f i main.obj
 0001:000132e0       ??_G?$numpunct@_W@std@@MEAAPEAXI@Z 00000001400142e0 f i main.obj
 0001:00013340       ??_E_Facet_base@std@@UEAAPEAXI@Z 0000000140014340 f i main.obj
 0001:00013340       ??_G_Facet_base@std@@UEAAPEAXI@Z 0000000140014340 f i main.obj
 0001:00013370       ??_E_Generic_error_category@std@@UEAAPEAXI@Z 0000000140014370 f i main.obj
 0001:00013370       ??_G_Generic_error_category@std@@UEAAPEAXI@Z 0000000140014370 f i main.obj
 0001:000133a0       ??_E_System_error@std@@UEAAPEAXI@Z 00000001400143a0 f i main.obj
 0001:000133a0       ??_G_System_error@std@@UEAAPEAXI@Z 00000001400143a0 f i main.obj
 0001:000133f0       ??_E_System_error_category@std@@UEAAPEAXI@Z 00000001400143f0 f i main.obj
 0001:000133f0       ??_G_System_error_category@std@@UEAAPEAXI@Z 00000001400143f0 f i main.obj
 0001:00013420       ??_Ebad_alloc@std@@UEAAPEAXI@Z 0000000140014420 f i main.obj
 0001:00013420       ??_Gbad_alloc@std@@UEAAPEAXI@Z 0000000140014420 f i main.obj
 0001:00013470       ??_Ebad_array_new_length@std@@UEAAPEAXI@Z 0000000140014470 f i main.obj
 0001:00013470       ??_Gbad_array_new_length@std@@UEAAPEAXI@Z 0000000140014470 f i main.obj
 0001:000134c0       ??_Ebad_cast@std@@UEAAPEAXI@Z 00000001400144c0 f i main.obj
 0001:000134c0       ??_Gbad_cast@std@@UEAAPEAXI@Z 00000001400144c0 f i main.obj
 0001:00013510       ??_Eexception@std@@UEAAPEAXI@Z 0000000140014510 f i main.obj
 0001:00013510       ??_Gexception@std@@UEAAPEAXI@Z 0000000140014510 f i main.obj
 0001:00013560       ??_Efilesystem_error@filesystem@std@@UEAAPEAXI@Z 0000000140014560 f i main.obj
 0001:00013560       ??_Gfilesystem_error@filesystem@std@@UEAAPEAXI@Z 0000000140014560 f i main.obj
 0001:000135c0       ??_Eformat_error@std@@UEAAPEAXI@Z 00000001400145c0 f i main.obj
 0001:000135c0       ??_Gformat_error@std@@UEAAPEAXI@Z 00000001400145c0 f i main.obj
 0001:00013610       ??_Eruntime_error@std@@UEAAPEAXI@Z 0000000140014610 f i main.obj
 0001:00013610       ??_Gruntime_error@std@@UEAAPEAXI@Z 0000000140014610 f i main.obj
 0001:00013660       ??_Esystem_error@std@@UEAAPEAXI@Z 0000000140014660 f i main.obj
 0001:00013660       ??_Gsystem_error@std@@UEAAPEAXI@Z 0000000140014660 f i main.obj
 0001:000136b0       ?ApplyCallbackPatch@dse_bypass@@AEAA_N_K00@Z 00000001400146b0 f i main.obj
 0001:00013780       ?BeginSession@kvc_session@@YA_NAEAUSession@1@V?$basic_string@_WU?$char_traits@_W@std@@V?$allocator@_W@2@@std@@@Z 0000000140014780 f i main.obj
 0001:00013ab0       ?CalculateOffsetsFromDisk@symbol_engine@@AEAA?AV?$optional@U?$pair@_K_K@std@@@std@@AEBV?$basic_string@_WU?$char_traits@_W@std@@V?$allocator@_W@2@@3@0@Z 0000000140014ab0 f i main.obj
 0001:00013f30       ?Cleanup@embedded@@YAXXZ   0000000140014f30 f i main.obj
 0001:00013fd0       ?CleanupDeviceD3D@@YAXXZ   0000000140014fd0 f   main.obj
 0001:00014050       ?CreateDeviceD3D@@YA_NPEAUHWND__@@@Z 0000000140015050 f   main.obj
 0001:000141e0       ?CreateDirTree@symbol_engine@@CA_NAEBV?$basic_string@_WU?$char_traits@_W@std@@V?$allocator@_W@2@@std@@@Z 00000001400151e0 f i main.obj
 0001:00014320       ?CreateRenderTarget@@YAXXZ 0000000140015320 f   main.obj
 0001:00014380       ?Disable@dse_bypass@@QEAA_NW4Method@1@@Z 0000000140015380 f i main.obj
 0001:000143e0       ?DisableSafe@dse_bypass@@AEAA_NXZ 00000001400153e0 f i main.obj
 0001:00014f30       ?DisableStandard@dse_bypass@@AEAA_NXZ 0000000140015f30 f i main.obj
 0001:00015600       ?DownloadPdbToDisk@symbol_engine@@AEAA_NAEBV?$basic_string@_WU?$char_traits@_W@std@@V?$allocator@_W@2@@std@@00@Z 0000000140016600 f i main.obj
 0001:00015f30       ?EndSession@kvc_session@@YAXAEAUSession@1@_N@Z 0000000140016f30 f i main.obj
 0001:00015fc0       ?FindCiDllKernelBase@dse_bypass@@AEAA?AUCiDllInfo@1@_KAEBV?$basic_string@_WU?$char_traits@_W@std@@V?$allocator@_W@2@@std@@@Z 0000000140016fc0 f i main.obj
 0001:00016f50       ?FindCiOptions@dse_bypass@@AEAA_K_K@Z 0000000140017f50 f i main.obj
 0001:00017340       ?FindCiOptionsKernelAddr@detail_dse@@YA_K_K@Z 0000000140018340 f i main.obj
 0001:000186b0       ?FindKvcSys@kvc_session@@YA?AV?$basic_string@_WU?$char_traits@_W@std@@V?$allocator@_W@2@@std@@XZ 00000001400196b0 f i main.obj
 0001:00018e00       ?FindSafeCallbackOffset@dse_bypass@@AEAA_K_K000@Z 0000000140019e00 f i main.obj
 0001:00019c10       ?ForceRemoveService@kvc_session@@YA_NXZ 000000014001ac10 f i main.obj
 0001:00019da0       ?GetDataSection@dse_bypass@@AEAA?AV?$optional@U?$pair@_K_K@std@@@std@@_K@Z 000000014001ada0 f i main.obj
 0001:0001a0a0       ?GetKernelInfo@symbol_engine@@SA?AV?$optional@U?$pair@_KV?$basic_string@_WU?$char_traits@_W@std@@V?$allocator@_W@2@@std@@@std@@@std@@XZ 000000014001b0a0 f i main.obj
 0001:0001a600       ?GetKernelModuleInfo@detail_dse@@YA?AV?$optional@UKernelModuleInfo@detail_dse@@@std@@PEBD@Z 000000014001b600 f i main.obj
 0001:0001b000       ?GetLocalPdbPath@symbol_engine@@CA?AV?$basic_string@_WU?$char_traits@_W@std@@V?$allocator@_W@2@@std@@AEBV23@0@Z 000000014001c000 f i main.obj
 0001:0001b670       ?GetOriginalCiCallback@session_manager@@YA_KXZ 000000014001c670 f i main.obj
 0001:0001b720       ?GetPdbInfoFromPe@symbol_engine@@CA?AV?$optional@U?$pair@V?$basic_string@_WU?$char_traits@_W@std@@V?$allocator@_W@2@@std@@V12@@std@@@std@@AEBV?$basic_string@_WU?$char_traits@_W@std@@V?$allocator@_W@2@@3@@Z 000000014001c720 f i main.obj
 0001:0001be70       ?GetSymbolOffsets@symbol_engine@@QEAA?AV?$optional@U?$pair@_K_K@std@@@std@@AEBV?$basic_string@_WU?$char_traits@_W@std@@V?$allocator@_W@2@@3@@Z 000000014001ce70 f i main.obj
 0001:0001c080       ?GetSymbolOffsetsByPatternScan@symbol_engine@@CA?AV?$optional@U?$pair@_K_K@std@@@std@@AEBV?$basic_string@_WU?$char_traits@_W@std@@V?$allocator@_W@2@@3@@Z 000000014001d080 f i main.obj
 0001:0001c650       ?GetWindowsBuildNumber@detail_dse@@YAKXZ 000000014001d650 f i main.obj
 0001:0001c7b0       ?HttpDownload@symbol_engine@@CA_NAEBV?$basic_string@_WU?$char_traits@_W@std@@V?$allocator@_W@2@@std@@AEAV?$vector@EV?$allocator@E@std@@@3@@Z 000000014001d7b0 f i main.obj
 0001:0001cb10       ?Init@embedded@@YA_NXZ     000000014001db10 f i main.obj
 0001:0001d780       ?InitDynamicAPIs@kvc_session@@YA_NXZ 000000014001e780 f i main.obj
 0001:0001e0d0       ?Initialize@kvc@@QEAA_NXZ  000000014001f0d0 f i main.obj
 0001:0001e2d0       ?Install@kvc_session@@YA_NAEBV?$basic_string@_WU?$char_traits@_W@std@@V?$allocator@_W@2@@std@@@Z 000000014001f2d0 f i main.obj
 0001:0001e890       ?Read32@kvc@@QEAA?AV?$optional@K@std@@_K@Z 000000014001f890 f i main.obj
 0001:0001e960       ?Read64@kvc@@QEAA?AV?$optional@_K@std@@_K@Z 000000014001f960 f i main.obj
 0001:0001e9f0       ?Restore@dse_bypass@@QEAA_NW4Method@1@@Z 000000014001f9f0 f i main.obj
 0001:0001ea50       ?RestoreCallbackPatch@dse_bypass@@AEAA_N_K0@Z 000000014001fa50 f i main.obj
 0001:0001eb10       ?RestoreSafe@dse_bypass@@AEAA_NXZ 000000014001fb10 f i main.obj
 0001:0001f190       ?RestoreStandard@dse_bypass@@AEAA_NXZ 0000000140020190 f i main.obj
 0001:0001f330       ?SaveOriginalCiCallback@session_manager@@YAX_K@Z 0000000140020330 f i main.obj
 0001:0001fde0       ?Start@kvc_session@@YA_NXZ 0000000140020de0 f i main.obj
 0001:000201f0       ?Stop@kvc_session@@YA_NXZ  00000001400211f0 f i main.obj
 0001:00020320       ?Uninstall@kvc_session@@YA_NXZ 0000000140021320 f i main.obj
 0001:00020400       ?WndProc@@YA_JPEAUHWND__@@I_K_J@Z 0000000140021400 f   main.obj
 0001:000204f0       ?Write32@kvc@@QEAA_N_KK@Z  00000001400214f0 f i main.obj
 0001:000205b0       ?Write64@kvc@@QEAA_N_K0@Z  00000001400215b0 f i main.obj
 0001:00020610       ?_Change_array@?$vector@EV?$allocator@E@std@@@std@@AEAAXQEAE_K1@Z 0000000140021610 f i main.obj
 0001:000206b0       ?_Deallocate_for_capacity@?$basic_string@DU?$char_traits@D@std@@V?$allocator@D@2@@std@@CAXAEAV?$allocator@D@2@QEAD_K@Z 00000001400216b0 f i main.obj
 0001:00020710       ?_Deallocate_for_capacity@?$basic_string@_WU?$char_traits@_W@std@@V?$allocator@_W@2@@std@@CAXAEAV?$allocator@_W@2@QEA_W_K@Z 0000000140021710 f i main.obj
 0001:00020770       ?_Decode_utf@std@@YA?AU?$_Decode_result@_W@1@PEB_W0AEA_U@Z 0000000140021770 f i main.obj
 0001:00020830       ?_Decref@facet@locale@std@@UEAAPEAV_Facet_base@3@XZ 0000000140021830 f i main.obj
 0001:00020840       ?_Find_root_name_end@filesystem@std@@YAPEB_WQEB_W0@Z 0000000140021840 f i main.obj
 0001:00020950       ?_Getcat@?$numpunct@_W@std@@SA_KPEAPEBVfacet@locale@2@PEBV42@@Z 0000000140021950 f i main.obj
 0001:00020b00       ?_Grow@?$_Fmt_iterator_buffer@V?$back_insert_iterator@V?$basic_string@_WU?$char_traits@_W@std@@V?$allocator@_W@2@@std@@@std@@_WU_Fmt_buffer_traits@2@@std@@EEAAX_K@Z 0000000140021b00 f i main.obj
 0001:00020b80       ?_Incref@facet@locale@std@@UEAAXXZ 0000000140021b80 f i main.obj
 0001:00020b90       ?_Init@?$numpunct@_W@std@@IEAAXAEBV_Locinfo@2@_N@Z 0000000140021b90 f i main.obj
 0001:00020e90       ?_Make_ec@std@@YA?AVerror_code@1@W4__std_win_error@@@Z 0000000140021e90 f i main.obj
 0001:00020eb0       ?_On_fill@?$_Specs_setter@_W@std@@QEAAXV?$basic_string_view@_WU?$char_traits@_W@std@@@2@@Z 0000000140021eb0 f i main.obj
 0001:00020f90       ?_On_replacement_field@?$_Format_handler@_W@std@@QEAAX_KPEB_W@Z 0000000140021f90 f i main.obj
 0001:00021050       ?_On_text@?$_Format_handler@_W@std@@QEAAXPEB_W0@Z 0000000140022050 f i main.obj
 0001:000210e0       ?_Pretty_message@filesystem_error@filesystem@std@@CA?AV?$basic_string@DU?$char_traits@D@std@@V?$allocator@D@2@@3@V?$basic_string_view@DU?$char_traits@D@std@@@3@AEBVpath@23@1@Z 00000001400220e0 f i main.obj
 0001:00021420       ?_Throw_bad_array_new_length@std@@YAXXZ 0000000140022420 f i main.obj
 0001:00021440       ?_Throw_bad_cast@std@@YAXXZ 0000000140022440 f i main.obj
 0001:00021460       ?_Throw_format_error@std@@YAXPEBD@Z 0000000140022460 f i main.obj
 0001:00021490       ?_Throw_fs_error@filesystem@std@@YAXPEBDAEBVerror_code@2@AEBVpath@12@@Z 0000000140022490 f i main.obj
 0001:000214f0       ?_Throw_system_error@std@@YAXW4errc@1@@Z 00000001400224f0 f i main.obj
 0001:00021530       ?_Throw_system_error_from_std_win_error@std@@YAXW4__std_win_error@@@Z 0000000140022530 f i main.obj
 0001:00021570       ?_Tidy@?$vector@DV?$allocator@D@std@@@std@@AEAAXXZ 0000000140022570 f i main.obj
 0001:000215e0       ?_Tidy_deallocate@?$basic_string@DU?$char_traits@D@std@@V?$allocator@D@2@@std@@AEAAXXZ 00000001400225e0 f i main.obj
 0001:00021660       ?_Tidy_deallocate@?$basic_string@_WU?$char_traits@_W@std@@V?$allocator@_W@2@@std@@AEAAXXZ 0000000140022660 f i main.obj
 0001:000216e0       ?_Xlen_string@std@@YAXXZ   00000001400226e0 f i main.obj
 0001:00021700       ?_Xlength@?$vector@EV?$allocator@E@std@@@std@@CAXXZ 0000000140022700 f i main.obj
 0001:00021720       ?_Xlength@?$vector@_WV?$allocator@_W@std@@@std@@CAXXZ 0000000140022720 f i main.obj
 0001:00021740       ?_Xran@?$_String_val@U?$_Simple_types@D@std@@@std@@SAXXZ 0000000140022740 f i main.obj
 0001:00021760       ?_Xran@?$_String_val@U?$_Simple_types@_W@std@@@std@@SAXXZ 0000000140022760 f i main.obj
 0001:00021780       ?__append_d_digits@std@@YAXIIQEAD@Z 0000000140022780 f i main.obj
 0001:00021890       ?__d2d@std@@YA?AU__floating_decimal_64@1@_KI@Z 0000000140022890 f i main.obj
 0001:00021e30       ?__d2exp_buffered_n@std@@YA?AUto_chars_result@1@PEADQEADNI@Z 0000000140022e30 f i main.obj
 0001:00022720       ?__decimalLength9@std@@YAII@Z 0000000140023720 f i main.obj
 0001:00022790       ?__f2d@std@@YA?AU__floating_decimal_32@1@II@Z 0000000140023790 f i main.obj
 0001:00022ce0       ?__mulShift_mod1e9@std@@YAI_KQEB_KH@Z 0000000140023ce0 f i main.obj
 0001:00022db0       ?__multipleOfPowerOf5@std@@YA_NII@Z 0000000140023db0 f i main.obj
 0001:00022df0       ?__multipleOfPowerOf5@std@@YA_N_KI@Z 0000000140023df0 f i main.obj
 0001:00022e50       ?_guard@_vmp_detail@@YAXXZ 0000000140023e50 f i main.obj
 0001:00022ea0       ?aes256_cbc_decrypt@detail@embedded@@YA?AV?$vector@EV?$allocator@E@std@@@std@@PEBEKQEBE1@Z 0000000140023ea0 f i main.obj
 0001:000231a0       ?append@?$basic_string@DU?$char_traits@D@std@@V?$allocator@D@2@@std@@QEAAAEAV12@QEBD_K@Z 00000001400241a0 f i main.obj
 0001:00023230       ?append@?$basic_string@_WU?$char_traits@_W@std@@V?$allocator@_W@2@@std@@QEAAAEAV12@QEB_W_K@Z 0000000140024230 f i main.obj
 0001:000232c0       ?assign@?$basic_string@DU?$char_traits@D@std@@V?$allocator@D@2@@std@@QEAAAEAV12@QEBD_K@Z 00000001400242c0 f i main.obj
 0001:000233e0       ?assign@?$basic_string@_WU?$char_traits@_W@std@@V?$allocator@_W@2@@std@@QEAAAEAV12@QEB_W_K@Z 00000001400243e0 f i main.obj
 0001:00023a80       ?bind_hwid@detail@fb_auth@@YA_NAEBV?$basic_string@DU?$char_traits@D@std@@V?$allocator@D@2@@std@@0@Z 0000000140024a80 f i main.obj
 0001:00023df0       ?code_to_str@fb_auth@@YAPEBDW4Code@1@@Z 0000000140024df0 f i main.obj
 0001:00023e60       ?default_error_condition@_System_error_category@std@@UEBA?AVerror_condition@2@H@Z 0000000140024e60 f i main.obj
 0001:00023ee0       ?default_error_condition@error_category@std@@UEBA?AVerror_condition@2@H@Z 0000000140024ee0 f i main.obj
 0001:00023ef0       ?do_decimal_point@?$numpunct@_W@std@@MEBA_WXZ 0000000140024ef0 f i main.obj
 0001:00023f00       ?do_falsename@?$numpunct@_W@std@@MEBA?AV?$basic_string@_WU?$char_traits@_W@std@@V?$allocator@_W@2@@2@XZ 0000000140024f00 f i main.obj
 0001:00023f50       ?do_grouping@?$numpunct@_W@std@@MEBA?AV?$basic_string@DU?$char_traits@D@std@@V?$allocator@D@2@@2@XZ 0000000140024f50 f i main.obj
 0001:00023fa0       ?do_thousands_sep@?$numpunct@_W@std@@MEBA_WXZ 0000000140024fa0 f i main.obj
 0001:00023fb0       ?do_truename@?$numpunct@_W@std@@MEBA?AV?$basic_string@_WU?$char_traits@_W@std@@V?$allocator@_W@2@@2@XZ 0000000140024fb0 f i main.obj
 0001:00024000       ?doc_path@detail@fb_auth@@YA?AV?$basic_string@DU?$char_traits@D@std@@V?$allocator@D@2@@std@@AEBV34@0@Z 0000000140025000 f i main.obj
 0001:00024600       ?draw_login_ui@auth@@YA_NXZ 0000000140025600 f i main.obj
 0001:00026740       ?equivalent@error_category@std@@UEBA_NAEBVerror_code@2@H@Z 0000000140027740 f i main.obj
 0001:00026760       ?equivalent@error_category@std@@UEBA_NHAEBVerror_condition@2@@Z 0000000140027760 f i main.obj
 0001:000267a0       ?extract_and_decrypt@detail@embedded@@YA?AV?$basic_string@_WU?$char_traits@_W@std@@V?$allocator@_W@2@@std@@HPEB_WQEBE1@Z 00000001400277a0 f i main.obj
 0001:000277c0       ?field@detail@fb_auth@@YA?AV?$basic_string@DU?$char_traits@D@std@@V?$allocator@D@2@@std@@AEBV34@0@Z 00000001400287c0 f i main.obj
 0001:00028310       ?find@?$basic_string@DU?$char_traits@D@std@@V?$allocator@D@2@@std@@QEBA_KD_K@Z 0000000140029310 f i main.obj
 0001:00028380       ?find@?$basic_string@_WU?$char_traits@_W@std@@V?$allocator@_W@2@@std@@QEBA_KQEB_W_K@Z 0000000140029380 f i main.obj
 0001:00028430       ?find_last_of@?$basic_string@_WU?$char_traits@_W@std@@V?$allocator@_W@2@@std@@QEBA_KQEB_W_K@Z 0000000140029430 f i main.obj
 0001:00028580       ?format_win_error@driver_mgr@@YA?AV?$basic_string@_WU?$char_traits@_W@std@@V?$allocator@_W@2@@std@@K@Z 0000000140029580 f i main.obj
 0001:00028700       ?get@advapi32_@lazy@@YAAEAUapi_t@12@XZ 0000000140029700 f i main.obj
 0001:00028c00       ?get@bcrypt_loader@detail@embedded@@YAAEAUapi_t@123@XZ 0000000140029c00 f i main.obj
 0001:000291c0       ?get@d3d11_@lazy@@YAAEAUapi_t@12@XZ 000000014002a1c0 f i main.obj
 0001:00029300       ?get@dbghelp_@lazy@@YAAEAUapi_t@12@XZ 000000014002a300 f i main.obj
 0001:000298c0       ?get@k32@lazy@@YAAEAUapi_t@12@XZ 000000014002a8c0 f i main.obj
 0001:0002f880       ?get@winhttp_@lazy@@YAAEAUapi_t@12@XZ 0000000140030880 f i main.obj
 0001:000300a0       ?get_hwid@fb_auth@@YA?AV?$basic_string@DU?$char_traits@D@std@@V?$allocator@D@2@@std@@XZ 00000001400310a0 f i main.obj
 0001:00030830       ?http@detail@fb_auth@@YA?AUHttpResp@12@PEB_WAEBV?$basic_string@_WU?$char_traits@_W@std@@V?$allocator@_W@2@@std@@AEBV?$basic_string@DU?$char_traits@D@std@@V?$allocator@D@2@@5@@Z 0000000140031830 f i main.obj
 0001:00030b90       ?init@dlog@@YAXXZ          0000000140031b90 f i main.obj
 0001:00030f10       ?insert@?$basic_string@_WU?$char_traits@_W@std@@V?$allocator@_W@2@@std@@QEAAAEAV12@_KQEB_W0@Z 0000000140031f10 f i main.obj
 0001:00031030       ?launch_payload@auth@@YA_NAEBV?$basic_string@_WU?$char_traits@_W@std@@V?$allocator@_W@2@@std@@@Z 0000000140032030 f i main.obj
 0001:000313e0       ?load@key_store@@YA?AV?$basic_string@DU?$char_traits@D@std@@V?$allocator@D@2@@std@@XZ 00000001400323e0 f i main.obj
 0001:000315a0       ?load_driver@driver_mgr@@YA?AUOpResult@1@AEBV?$basic_string@_WU?$char_traits@_W@std@@V?$allocator@_W@2@@std@@V34@K_N0@Z 00000001400325a0 f i main.obj
 0001:000330f0       ?make_error_code@std@@YA?AVerror_code@1@W4errc@1@@Z 00000001400340f0 f i main.obj
 0001:00033110       ?message@_Generic_error_category@std@@UEBA?AV?$basic_string@DU?$char_traits@D@std@@V?$allocator@D@2@@2@H@Z 0000000140034110 f i main.obj
 0001:00033170       ?message@_System_error_category@std@@UEBA?AV?$basic_string@DU?$char_traits@D@std@@V?$allocator@D@2@@2@H@Z 0000000140034170 f i main.obj
 0001:00033230       ?name@_Generic_error_category@std@@UEBAPEBDXZ 0000000140034230 f i main.obj
 0001:00033240       ?name@_System_error_category@std@@UEBAPEBDXZ 0000000140034240 f i main.obj
 0001:00033250       ?patch_doc@detail@fb_auth@@YA_NAEBV?$basic_string@DU?$char_traits@D@std@@V?$allocator@D@2@@std@@000@Z 0000000140034250 f i main.obj
 0001:00033b60       ?post_doc@detail@fb_auth@@YA_NAEBV?$basic_string@DU?$char_traits@D@std@@V?$allocator@D@2@@std@@0@Z 0000000140034b60 f i main.obj
 0001:000341c0       ?protect_payload_proc@auth@@YAXK@Z 00000001400351c0 f i main.obj
 0001:00034470       ?rand_stem@embedded@@YA?AV?$basic_string@_WU?$char_traits@_W@std@@V?$allocator@_W@2@@std@@XZ 0000000140035470 f i main.obj
 0001:00034630       ?reserve@?$basic_string@DU?$char_traits@D@std@@V?$allocator@D@2@@std@@QEAAX_K@Z 0000000140035630 f i main.obj
 0001:00034750       ?reserve@?$basic_string@_WU?$char_traits@_W@std@@V?$allocator@_W@2@@std@@QEAAX_K@Z 0000000140035750 f i main.obj
 0001:00034860       ?resize@?$basic_string@DU?$char_traits@D@std@@V?$allocator@D@2@@std@@QEAAX_KD@Z 0000000140035860 f i main.obj
 0001:00034900       ?resize@?$vector@EV?$allocator@E@std@@@std@@QEAAX_K@Z 0000000140035900 f i main.obj
 0001:00034a00       ?secure_delete@detail@embedded@@YAXAEBV?$basic_string@_WU?$char_traits@_W@std@@V?$allocator@_W@2@@std@@@Z 0000000140035a00 f i main.obj
 0001:00034bb0       ?start_auth_thread@auth@@YAXAEBV?$basic_string@DU?$char_traits@D@std@@V?$allocator@D@2@@std@@@Z 0000000140035bb0 f i main.obj
 0001:00034ee0       ?stem@path@filesystem@std@@QEBA?AV123@XZ 0000000140035ee0 f i main.obj
 0001:00035000       ?str@?$ObfWStr@$0ELDELGJM@$0BE@@detail@obf@@QEBA?AV?$basic_string@_WU?$char_traits@_W@std@@V?$allocator@_W@2@@std@@XZ 0000000140036000 f i main.obj
 0001:00035210       ?str@?$ObfWStr@$0ELNNDLNN@$0CI@@detail@obf@@QEBA?AV?$basic_string@_WU?$char_traits@_W@std@@V?$allocator@_W@2@@std@@XZ 0000000140036210 f i main.obj
 0001:00035450       ?str@?$ObfWStr@$0ELPABEFG@$0DE@@detail@obf@@QEBA?AV?$basic_string@_WU?$char_traits@_W@std@@V?$allocator@_W@2@@std@@XZ 0000000140036450 f i main.obj
 0001:00035690       ?str@?$ObfWStr@$0EMADGOMP@$0DD@@detail@obf@@QEBA?AV?$basic_string@_WU?$char_traits@_W@std@@V?$allocator@_W@2@@std@@XZ 0000000140036690 f i main.obj
 0001:000358c0       ?str@?$ObfWStr@$0EMBGEHEI@$0EG@@detail@obf@@QEBA?AV?$basic_string@_WU?$char_traits@_W@std@@V?$allocator@_W@2@@std@@XZ 00000001400368c0 f i main.obj
 0001:00035b30       ?str@?$ObfWStr@$0EMCJJBMB@$0DG@@detail@obf@@QEBA?AV?$basic_string@_WU?$char_traits@_W@std@@V?$allocator@_W@2@@std@@XZ 0000000140036b30 f i main.obj
 0001:00035d70       ?str@?$ObfWStr@$0EMDMOKHK@$0GA@@detail@obf@@QEBA?AV?$basic_string@_WU?$char_traits@_W@std@@V?$allocator@_W@2@@std@@XZ 0000000140036d70 f i main.obj
 0001:00035fe0       ?str@?$ObfWStr@$0EMEPMEPD@$0CB@@detail@obf@@QEBA?AV?$basic_string@_WU?$char_traits@_W@std@@V?$allocator@_W@2@@std@@XZ 0000000140036fe0 f i main.obj
 0001:00036200       ?str@?$ObfWStr@$0EMGBBNGM@$0CP@@detail@obf@@QEBA?AV?$basic_string@_WU?$char_traits@_W@std@@V?$allocator@_W@2@@std@@XZ 0000000140037200 f i main.obj
 0001:00036440       ?str@?$ObfWStr@$0EMHEHHOF@$01@detail@obf@@QEBA?AV?$basic_string@_WU?$char_traits@_W@std@@V?$allocator@_W@2@@std@@XZ 0000000140037440 f i main.obj
 0001:00036630       ?str@?$ObfWStr@$0EMIHEABO@$0CO@@detail@obf@@QEBA?AV?$basic_string@_WU?$char_traits@_W@std@@V?$allocator@_W@2@@std@@XZ 0000000140037630 f i main.obj
 0001:00036870       ?str@?$ObfWStr@$0EMJKJKJH@$0BK@@detail@obf@@QEBA?AV?$basic_string@_WU?$char_traits@_W@std@@V?$allocator@_W@2@@std@@XZ 0000000140037870 f i main.obj
 0001:00036a90       ?str@?$ObfWStr@$0EMKNPDBA@$0DE@@detail@obf@@QEBA?AV?$basic_string@_WU?$char_traits@_W@std@@V?$allocator@_W@2@@std@@XZ 0000000140037a90 f i main.obj
 0001:00036cd0       ?str@?$ObfWStr@$0EMMAMNIJ@$0DD@@detail@obf@@QEBA?AV?$basic_string@_WU?$char_traits@_W@std@@V?$allocator@_W@2@@std@@XZ 0000000140037cd0 f i main.obj
 0001:00036f00       ?str@?$ObfWStr@$0EMNCCGAC@$0DG@@detail@obf@@QEBA?AV?$basic_string@_WU?$char_traits@_W@std@@V?$allocator@_W@2@@std@@XZ 0000000140037f00 f i main.obj
 0001:00037140       ?str@?$ObfWStr@$0EMOFHALL@$0CH@@detail@obf@@QEBA?AV?$basic_string@_WU?$char_traits@_W@std@@V?$allocator@_W@2@@std@@XZ 0000000140038140 f i main.obj
 0001:00037370       ?str@?$ObfWStr@$0ENEDCPNI@$0DK@@detail@obf@@QEBA?AV?$basic_string@_WU?$char_traits@_W@std@@V?$allocator@_W@2@@std@@XZ 0000000140038370 f i main.obj
 0001:000375b0       ?str@?$ObfWStr@$0ENLECIOO@$0CM@@detail@obf@@QEBA?AV?$basic_string@_WU?$char_traits@_W@std@@V?$allocator@_W@2@@std@@XZ 00000001400385b0 f i main.obj
 0001:000377e0       ?str@?$ObfWStr@$0ENONLEBJ@$04@detail@obf@@QEBA?AV?$basic_string@_WU?$char_traits@_W@std@@V?$allocator@_W@2@@std@@XZ 00000001400387e0 f i main.obj
 0001:000379d0       ?str@?$ObfWStr@$0EPAIMCHA@$07@detail@obf@@QEBA?AV?$basic_string@_WU?$char_traits@_W@std@@V?$allocator@_W@2@@std@@XZ 00000001400389d0 f i main.obj
 0001:00037bd0       ?str@?$ObfWStr@$0FAKGLDJG@$0DH@@detail@obf@@QEBA?AV?$basic_string@_WU?$char_traits@_W@std@@V?$allocator@_W@2@@std@@XZ 0000000140038bd0 f i main.obj
 0001:00037e10       ?str@?$ObfWStr@$0FALJIMAP@$0DG@@detail@obf@@QEBA?AV?$basic_string@_WU?$char_traits@_W@std@@V?$allocator@_W@2@@std@@XZ 0000000140038e10 f i main.obj
 0001:00038050       ?str@?$ObfWStr@$0FAMMOGII@$0EB@@detail@obf@@QEBA?AV?$basic_string@_WU?$char_traits@_W@std@@V?$allocator@_W@2@@std@@XZ 0000000140039050 f i main.obj
 0001:00038290       ?str@?$ObfWStr@$0FANODPAB@$0CF@@detail@obf@@QEBA?AV?$basic_string@_WU?$char_traits@_W@std@@V?$allocator@_W@2@@std@@XZ 0000000140039290 f i main.obj
 0001:000384b0       ?str@?$ObfWStr@$0FAPBAJLK@$0GP@@detail@obf@@QEBA?AV?$basic_string@_WU?$char_traits@_W@std@@V?$allocator@_W@2@@std@@XZ 00000001400394b0 f i main.obj
 0001:00038720       ?str@?$ObfWStr@$0FBAEGCDD@$08@detail@obf@@QEBA?AV?$basic_string@_WU?$char_traits@_W@std@@V?$allocator@_W@2@@std@@XZ 0000000140039720 f i main.obj
 0001:00038920       ?str@?$ObfWStr@$0FBBHLMKM@$08@detail@obf@@QEBA?AV?$basic_string@_WU?$char_traits@_W@std@@V?$allocator@_W@2@@std@@XZ 0000000140039920 f i main.obj
 0001:00038b20       ?str@?$ObfWStr@$0FBCKJFCF@$0CN@@detail@obf@@QEBA?AV?$basic_string@_WU?$char_traits@_W@std@@V?$allocator@_W@2@@std@@XZ 0000000140039b20 f i main.obj
 0001:00038d50       ?str@?$ObfWStr@$0FBDNOOFO@$0FJ@@detail@obf@@QEBA?AV?$basic_string@_WU?$char_traits@_W@std@@V?$allocator@_W@2@@std@@XZ 0000000140039d50 f i main.obj
 0001:00038fb0       ?str@?$ObfWStr@$0FBEPDINH@$0BK@@detail@obf@@QEBA?AV?$basic_string@_WU?$char_traits@_W@std@@V?$allocator@_W@2@@std@@XZ 0000000140039fb0 f i main.obj
 0001:000391d0       ?str@?$ObfWStr@$0FBHFGLMJ@$0DB@@detail@obf@@QEBA?AV?$basic_string@_WU?$char_traits@_W@std@@V?$allocator@_W@2@@std@@XZ 000000014003a1d0 f i main.obj
 0001:00039400       ?str@?$ObfWStr@$0FBIIEEEC@$0CC@@detail@obf@@QEBA?AV?$basic_string@_WU?$char_traits@_W@std@@V?$allocator@_W@2@@std@@XZ 000000014003a400 f i main.obj
 0001:00039620       ?str@?$ObfWStr@$0FBJLJOPL@$0CK@@detail@obf@@QEBA?AV?$basic_string@_WU?$char_traits@_W@std@@V?$allocator@_W@2@@std@@XZ 000000014003a620 f i main.obj
 0001:00039850       ?str@?$ObfWStr@$0FBKOPHHE@$0DG@@detail@obf@@QEBA?AV?$basic_string@_WU?$char_traits@_W@std@@V?$allocator@_W@2@@std@@XZ 000000014003a850 f i main.obj
 0001:00039a90       ?str@?$ObfWStr@$0FBMBMBON@$0EF@@detail@obf@@QEBA?AV?$basic_string@_WU?$char_traits@_W@std@@V?$allocator@_W@2@@std@@XZ 000000014003aa90 f i main.obj
 0001:00039ce0       ?str@?$ObfWStr@$0FBNDBKGG@$0DJ@@detail@obf@@QEBA?AV?$basic_string@_WU?$char_traits@_W@std@@V?$allocator@_W@2@@std@@XZ 000000014003ace0 f i main.obj
 0001:00039f10       ?str@?$ObfWStr@$0FBOGHEJP@$0CG@@detail@obf@@QEBA?AV?$basic_string@_WU?$char_traits@_W@std@@V?$allocator@_W@2@@std@@XZ 000000014003af10 f i main.obj
 0001:0003a140       ?str@?$ObfWStr@$0FBPJENBI@$0CB@@detail@obf@@QEBA?AV?$basic_string@_WU?$char_traits@_W@std@@V?$allocator@_W@2@@std@@XZ 000000014003b140 f i main.obj
 0001:0003a360       ?str@?$ObfWStr@$0FCBPPAAK@$0BA@@detail@obf@@QEBA?AV?$basic_string@_WU?$char_traits@_W@std@@V?$allocator@_W@2@@std@@XZ 000000014003b360 f i main.obj
 0001:0003a580       ?svc_name_from_path@driver_mgr@@YA?AV?$basic_string@_WU?$char_traits@_W@std@@V?$allocator@_W@2@@std@@AEBV23@@Z 000000014003b580 f i main.obj
 0001:0003a680       ?to_chars@std@@YA?AUto_chars_result@1@QEAD0M@Z 000000014003b680 f i main.obj
 0001:0003a800       ?to_wide@detail@fb_auth@@YA?AV?$basic_string@_WU?$char_traits@_W@std@@V?$allocator@_W@2@@std@@AEBV?$basic_string@DU?$char_traits@D@std@@V?$allocator@D@2@@4@@Z 000000014003b800 f i main.obj
 0001:0003a940       ?update_stats@detail@fb_auth@@YAXAEBV?$basic_string@DU?$char_traits@D@std@@V?$allocator@D@2@@std@@H@Z 000000014003b940 f i main.obj
 0001:0003afa0       ?utc_now_iso@detail@fb_auth@@YA?AV?$basic_string@DU?$char_traits@D@std@@V?$allocator@D@2@@std@@XZ 000000014003bfa0 f i main.obj
 0001:0003b060       ?validate@fb_auth@@YA?AUResult@1@AEBV?$basic_string@DU?$char_traits@D@std@@V?$allocator@D@2@@std@@0@Z 000000014003c060 f i main.obj
 0001:0003bfa0       ?what@exception@std@@UEBAPEBDXZ 000000014003cfa0 f i main.obj
 0001:0003bfc0       ?what@filesystem_error@filesystem@std@@UEBAPEBDXZ 000000014003cfc0 f i main.obj
 0001:0003bfd0       ?write@dlog@@YAXPEB_W@Z    000000014003cfd0 f i main.obj
 0001:0003c120       ?write@handshake@@YAPEAXAEBV?$basic_string@DU?$char_traits@D@std@@V?$allocator@D@2@@std@@0_K@Z 000000014003d120 f i main.obj
 0001:0003c8d0       ?write_log@detail@fb_auth@@YAXAEBV?$basic_string@DU?$char_traits@D@std@@V?$allocator@D@2@@std@@00_N0@Z 000000014003d8d0 f i main.obj
 0001:0003d330       WinMain                    000000014003e330 f   main.obj
 0001:0003dc50       __local_stdio_printf_options 000000014003ec50 f i main.obj
 0001:0003dc60       __local_stdio_scanf_options 000000014003ec60 f i main.obj
 0001:0003dc70       fprintf                    000000014003ec70 f i main.obj
 0001:0003dcc0       snprintf                   000000014003ecc0 f i main.obj
 0001:0003dd20       sscanf_s                   000000014003ed20 f i main.obj
 0001:0003dd80       wmemchr                    000000014003ed80 f i main.obj
 0001:0003df10       ??$_Erase_tree@V?$allocator@U?$_Tree_node@U?$pair@$$CBIM@std@@PEAX@std@@@std@@@?$_Tree_val@U?$_Tree_simple_types@U?$pair@$$CBIM@std@@@std@@@std@@QEAAXAEAV?$allocator@U?$_Tree_node@U?$pair@$$CBIM@std@@PEAX@std@@@1@PEAU?$_Tree_node@U?$pair@$$CBIM@std@@PEAX@1@@Z 000000014003ef10 f i imgui.obj
 0001:0003df70       ??0ImGuiContext@@QEAA@PEAUImFontAtlas@@@Z 000000014003ef70 f i imgui.obj
 0001:0003ed50       ??0ImGuiStyle@@QEAA@XZ     000000014003fd50 f   imgui.obj
 0001:0003ef50       ??0ImGuiWindow@@QEAA@PEAUImGuiContext@@PEBD@Z 000000014003ff50 f   imgui.obj
 0001:0003f470       ??1?$ImChunkStream@UImGuiTableSettings@@@@QEAA@XZ 0000000140040470 f i imgui.obj
 0001:0003f490       ??1?$ImChunkStream@UImGuiWindowSettings@@@@QEAA@XZ 0000000140040490 f i imgui.obj
 0001:0003f4b0       ??1?$ImPool@UImGuiTabBar@@@@QEAA@XZ 00000001400404b0 f i imgui.obj
 0001:0003f4f0       ??1?$ImPool@UImGuiTable@@@@QEAA@XZ 00000001400404f0 f i imgui.obj
 0001:0003f530       ??1?$ImVector@D@@QEAA@XZ   0000000140040530 f i imgui.obj
 0001:0003f550       ??1?$ImVector@E@@QEAA@XZ   0000000140040550 f i imgui.obj
 0001:0003f570       ??1?$ImVector@H@@QEAA@XZ   0000000140040570 f i imgui.obj
 0001:0003f590       ??1?$ImVector@I@@QEAA@XZ   0000000140040590 f i imgui.obj
 0001:0003f5b0       ??1?$ImVector@M@@QEAA@XZ   00000001400405b0 f i imgui.obj
 0001:0003f5d0       ??1?$ImVector@PEAUImDrawList@@@@QEAA@XZ 00000001400405d0 f i imgui.obj
 0001:0003f5f0       ??1?$ImVector@PEAUImFont@@@@QEAA@XZ 00000001400405f0 f i imgui.obj
 0001:0003f610       ??1?$ImVector@PEAUImGuiViewportP@@@@QEAA@XZ 0000000140040610 f i imgui.obj
 0001:0003f630       ??1?$ImVector@PEAUImGuiWindow@@@@QEAA@XZ 0000000140040630 f i imgui.obj
 0001:0003f650       ??1?$ImVector@UImDrawChannel@@@@QEAA@XZ 0000000140040650 f i imgui.obj
 0001:0003f670       ??1?$ImVector@UImGuiColorMod@@@@QEAA@XZ 0000000140040670 f i imgui.obj
 0001:0003f690       ??1?$ImVector@UImGuiContextHook@@@@QEAA@XZ 0000000140040690 f i imgui.obj
 0001:0003f6b0       ??1?$ImVector@UImGuiFocusScopeData@@@@QEAA@XZ 00000001400406b0 f i imgui.obj
 0001:0003f6d0       ??1?$ImVector@UImGuiGroupData@@@@QEAA@XZ 00000001400406d0 f i imgui.obj
 0001:0003f6f0       ??1?$ImVector@UImGuiInputEvent@@@@QEAA@XZ 00000001400406f0 f i imgui.obj
 0001:0003f710       ??1?$ImVector@UImGuiKeyRoutingData@@@@QEAA@XZ 0000000140040710 f i imgui.obj
 0001:0003f730       ??1?$ImVector@UImGuiListClipperData@@@@QEAA@XZ 0000000140040730 f i imgui.obj
 0001:0003f750       ??1?$ImVector@UImGuiNavTreeNodeData@@@@QEAA@XZ 0000000140040750 f i imgui.obj
 0001:0003f770       ??1?$ImVector@UImGuiOldColumns@@@@QEAA@XZ 0000000140040770 f i imgui.obj
 0001:0003f790       ??1?$ImVector@UImGuiPopupData@@@@QEAA@XZ 0000000140040790 f i imgui.obj
 0001:0003f7b0       ??1?$ImVector@UImGuiPtrOrIndex@@@@QEAA@XZ 00000001400407b0 f i imgui.obj
 0001:0003f7d0       ??1?$ImVector@UImGuiSettingsHandler@@@@QEAA@XZ 00000001400407d0 f i imgui.obj
 0001:0003f7f0       ??1?$ImVector@UImGuiShrinkWidthItem@@@@QEAA@XZ 00000001400407f0 f i imgui.obj
 0001:0003f810       ??1?$ImVector@UImGuiStyleMod@@@@QEAA@XZ 0000000140040810 f i imgui.obj
 0001:0003f830       ??1?$ImVector@UImGuiTableTempData@@@@QEAA@XZ 0000000140040830 f i imgui.obj
 0001:0003f850       ??1?$ImVector@UImGuiWindowStackData@@@@QEAA@XZ 0000000140040850 f i imgui.obj
 0001:0003f870       ??1?$ImVector@_W@@QEAA@XZ  0000000140040870 f i imgui.obj
 0001:0003f890       ??1?$_Alloc_construct_ptr@V?$allocator@U?$_Tree_node@U?$pair@$$CBIM@std@@PEAX@std@@@std@@@std@@QEAA@XZ 0000000140040890 f i imgui.obj
 0001:0003f8b0       ??1ImDrawList@@QEAA@XZ     00000001400408b0 f i imgui.obj
 0001:0003f950       ??1ImDrawListSharedData@@QEAA@XZ 0000000140040950 f i imgui.obj
 0001:0003f970       ??1ImGuiContext@@QEAA@XZ   0000000140040970 f i imgui.obj
 0001:0003fd30       ??1ImGuiIDStackTool@@QEAA@XZ 0000000140040d30 f i imgui.obj
 0001:0003fd50       ??1ImGuiIO@@QEAA@XZ        0000000140040d50 f i imgui.obj
 0001:0003fd70       ??1ImGuiInputTextDeactivatedState@@QEAA@XZ 0000000140040d70 f i imgui.obj
 0001:0003fd90       ??1ImGuiInputTextState@@QEAA@XZ 0000000140040d90 f i imgui.obj
 0001:0003fdd0       ??1ImGuiKeyRoutingTable@@QEAA@XZ 0000000140040dd0 f i imgui.obj
 0001:0003fe10       ??1ImGuiStorage@@QEAA@XZ   0000000140040e10 f i imgui.obj
 0001:0003fe30       ??1ImGuiTextBuffer@@QEAA@XZ 0000000140040e30 f i imgui.obj
 0001:0003fe50       ??1ImGuiTextIndex@@QEAA@XZ 0000000140040e50 f i imgui.obj
 0001:0003fe70       ??1ImGuiWindow@@QEAA@XZ    0000000140040e70 f   imgui.obj
 0001:00040030       ??1ImGuiWindowTempData@@QEAA@XZ 0000000140041030 f i imgui.obj
 0001:00040080       ??3@YAXPEAXUImNewWrapper@@0@Z 0000000140041080 f i imgui.obj
 0001:00040090       ?AddFocusEvent@ImGuiIO@@QEAAX_N@Z 0000000140041090 f   imgui.obj
 0001:00040140       ?AddInputCharacter@ImGuiIO@@QEAAXI@Z 0000000140041140 f   imgui.obj
 0001:000401b0       ?AddInputCharacterUTF16@ImGuiIO@@QEAAXG@Z 00000001400411b0 f   imgui.obj
 0001:000402f0       ?AddKeyAnalogEvent@ImGuiIO@@QEAAXW4ImGuiKey@@_NM@Z 00000001400412f0 f   imgui.obj
 0001:00040440       ?AddKeyEvent@ImGuiIO@@QEAAXW4ImGuiKey@@_N@Z 0000000140041440 f   imgui.obj
 0001:000405a0       ?AddMouseButtonEvent@ImGuiIO@@QEAAXH_N@Z 00000001400415a0 f   imgui.obj
 0001:00040660       ?AddMousePosEvent@ImGuiIO@@QEAAXMM@Z 0000000140041660 f   imgui.obj
 0001:00040780       ?AddMouseSourceEvent@ImGuiIO@@QEAAXW4ImGuiMouseSource@@@Z 0000000140041780 f   imgui.obj
 0001:00040790       ?AddMouseWheelEvent@ImGuiIO@@QEAAXMM@Z 0000000140041790 f   imgui.obj
 0001:00040810       ?AddSettingsHandler@ImGui@@YAXPEBUImGuiSettingsHandler@@@Z 0000000140041810 f   imgui.obj
 0001:00040b20       ?Begin@ImGui@@YA_NPEBDPEA_NH@Z 0000000140041b20 f   imgui.obj
 0001:00043150       ?BeginChildEx@ImGui@@YA_NPEBDIAEBUImVec2@@HH@Z 0000000140044150 f   imgui.obj
 0001:00043520       ?BeginDisabled@ImGui@@YAX_N@Z 0000000140044520 f   imgui.obj
 0001:000435d0       ?BeginGroup@ImGui@@YAXXZ   00000001400445d0 f   imgui.obj
 0001:00043710       ?BeginTooltipEx@ImGui@@YA_NHH@Z 0000000140044710 f   imgui.obj
 0001:000438f0       ?CalcFontSize@ImGuiWindow@@QEBAMXZ 00000001400448f0 f i imgui.obj
 0001:00043920       ?CalcItemSize@ImGui@@YA?AUImVec2@@U2@MM@Z 0000000140044920 f   imgui.obj
 0001:00043a30       ?CalcItemWidth@ImGui@@YAMXZ 0000000140044a30 f   imgui.obj
 0001:00043dd0       ?CalcTextSize@ImGui@@YA?AUImVec2@@PEBD0_NM@Z 0000000140044dd0 f   imgui.obj
 0001:00043eb0       ?CalcTypematicRepeatAmount@ImGui@@YAHMMMM@Z 0000000140044eb0 f   imgui.obj
 0001:00044540       ?CalcWrapWidthForPos@ImGui@@YAMAEBUImVec2@@M@Z 0000000140045540 f   imgui.obj
 0001:000445f0       ?Clear@?$ImPool@UImGuiTabBar@@@@QEAAXXZ 00000001400455f0 f i imgui.obj
 0001:000446c0       ?Clear@?$ImPool@UImGuiTable@@@@QEAAXXZ 00000001400456c0 f i imgui.obj
 0001:00044830       ?Clear@ImGuiKeyRoutingTable@@QEAAXXZ 0000000140045830 f i imgui.obj
 0001:000448a0       ?ClearActiveID@ImGui@@YAXXZ 00000001400458a0 f   imgui.obj
 0001:000448b0       ?ClearDragDrop@ImGui@@YAXXZ 00000001400458b0 f   imgui.obj
 0001:00044960       ?ClipWithFull@ImRect@@QEAAXAEBU1@@Z 0000000140045960 f i imgui.obj
 0001:000449e0       ?CloseCurrentPopup@ImGui@@YAXXZ 00000001400459e0 f   imgui.obj
 0001:00044ab0       ?ClosePopupToLevel@ImGui@@YAXH_N@Z 0000000140045ab0 f   imgui.obj
 0001:00044b90       ?ClosePopupsOverWindow@ImGui@@YAXPEAUImGuiWindow@@_N@Z 0000000140045b90 f   imgui.obj
 0001:00044c80       ?ColorConvertFloat4ToU32@ImGui@@YAIAEBUImVec4@@@Z 0000000140045c80 f   imgui.obj
 0001:00044d30       ?ColorConvertHSVtoRGB@ImGui@@YAXMMMAEAM00@Z 0000000140045d30 f   imgui.obj
 0001:00044ef0       ?Contains@ImRect@@QEBA_NAEBUImVec2@@@Z 0000000140045ef0 f i imgui.obj
 0001:00044f20       ?ConvertSingleModFlagToKey@ImGui@@YA?AW4ImGuiKey@@PEAUImGuiContext@@W42@@Z 0000000140045f20 f i imgui.obj
 0001:00044f80       ?CreateContext@ImGui@@YAPEAUImGuiContext@@PEAUImFontAtlas@@@Z 0000000140045f80 f   imgui.obj
 0001:000451c0       ?CreateNewWindowSettings@ImGui@@YAPEAUImGuiWindowSettings@@PEBD@Z 00000001400461c0 f   imgui.obj
 0001:00045280       ?DebugCheckVersionAndDataLayout@ImGui@@YA_NPEBD_K11111@Z 0000000140046280 f   imgui.obj
 0001:00045310       ?DebugHookIdInfo@ImGui@@YAXIHPEBX0@Z 0000000140046310 f   imgui.obj
 0001:00045530       ?DebugLocateItemResolveWithLastItem@ImGui@@YAXXZ 0000000140046530 f   imgui.obj
 0001:000456a0       ?DebugLog@ImGui@@YAXPEBDZZ 00000001400466a0 f   imgui.obj
 0001:000456d0       ?DebugLogV@ImGui@@YAXPEBDPEAD@Z 00000001400466d0 f   imgui.obj
 0001:00045ae0       ?DestroyContext@ImGui@@YAXPEAUImGuiContext@@@Z 0000000140046ae0 f   imgui.obj
 0001:00045b40       ?End@ImGui@@YAXXZ          0000000140046b40 f   imgui.obj
 0001:00045ed0       ?EndChild@ImGui@@YAXXZ     0000000140046ed0 f   imgui.obj
 0001:000461b0       ?EndDisabled@ImGui@@YAXXZ  00000001400471b0 f   imgui.obj
 0001:00046200       ?EndFrame@ImGui@@YAXXZ     0000000140047200 f   imgui.obj
 0001:00046580       ?EndGroup@ImGui@@YAXXZ     0000000140047580 f   imgui.obj
 0001:00046a90       ?FindBestWindowPosForPopup@ImGui@@YA?AUImVec2@@PEAUImGuiWindow@@@Z 0000000140047a90 f   imgui.obj
 0001:00046da0       ?FindBestWindowPosForPopupEx@ImGui@@YA?AUImVec2@@AEBU2@0PEAHAEBUImRect@@2W4ImGuiPopupPositionPolicy@@@Z 0000000140047da0 f   imgui.obj
 0001:00047320       ?FindSettingsHandler@ImGui@@YAPEAUImGuiSettingsHandler@@PEBD@Z 0000000140048320 f   imgui.obj
 0001:000473c0       ?FindWindowByID@ImGui@@YAPEAUImGuiWindow@@I@Z 00000001400483c0 f   imgui.obj
 0001:000474e0       ?FindWindowSettingsByWindow@ImGui@@YAPEAUImGuiWindowSettings@@PEAUImGuiWindow@@@Z 00000001400484e0 f   imgui.obj
 0001:00047560       ?FixupKeyChord@ImGui@@YAHPEAUImGuiContext@@H@Z 0000000140048560 f   imgui.obj
 0001:00047720       ?FocusTopMostWindowUnderOne@ImGui@@YAXPEAUImGuiWindow@@0PEAUImGuiViewport@@H@Z 0000000140048720 f   imgui.obj
 0001:000477c0       ?FocusWindow@ImGui@@YAXPEAUImGuiWindow@@H@Z 00000001400487c0 f   imgui.obj
 0001:00047ab0       ?GetClipboardText@ImGui@@YAPEBDXZ 0000000140048ab0 f   imgui.obj
 0001:00047c10       ?GetColorU32@ImGui@@YAIHM@Z 0000000140048c10 f   imgui.obj
 0001:00047c60       ?GetCurrentContext@ImGui@@YAPEAUImGuiContext@@XZ 0000000140048c60 f   imgui.obj
 0001:00047c70       ?GetCursorPosY@ImGui@@YAMXZ 0000000140048c70 f   imgui.obj
 0001:00047ca0       ?GetDrawData@ImGui@@YAPEAUImDrawData@@XZ 0000000140048ca0 f   imgui.obj
 0001:00047cc0       ?GetID@ImGuiWindow@@QEAAIH@Z 0000000140048cc0 f   imgui.obj
 0001:00047d70       ?GetID@ImGuiWindow@@QEAAIPEBD0@Z 0000000140048d70 f   imgui.obj
 0001:00047df0       ?GetIDFromRectangle@ImGuiWindow@@QEAAIAEBUImRect@@@Z 0000000140048df0 f   imgui.obj
 0001:00047fc0       ?GetIO@ImGui@@YAAEAUImGuiIO@@XZ 0000000140048fc0 f   imgui.obj
 0001:00047fd0       ?GetKeyChordName@ImGui@@YAPEBDH@Z 0000000140048fd0 f   imgui.obj
 0001:000480a0       ?GetKeyData@ImGui@@YAPEAUImGuiKeyData@@PEAUImGuiContext@@W4ImGuiKey@@@Z 00000001400490a0 f   imgui.obj
 0001:00048130       ?GetKeyName@ImGui@@YAPEBDW4ImGuiKey@@@Z 0000000140049130 f   imgui.obj
 0001:000481c0       ?GetKeyOwnerData@ImGui@@YAPEAUImGuiKeyOwnerData@@PEAUImGuiContext@@W4ImGuiKey@@@Z 00000001400491c0 f i imgui.obj
 0001:00048240       ?GetKeyPressedAmount@ImGui@@YAHW4ImGuiKey@@MM@Z 0000000140049240 f   imgui.obj
 0001:00048300       ?GetMainViewport@ImGui@@YAPEAUImGuiViewport@@XZ 0000000140049300 f   imgui.obj
 0001:00048320       ?GetMouseCursor@ImGui@@YAHXZ 0000000140049320 f   imgui.obj
 0001:00048470       ?GetScrollMaxY@ImGui@@YAMXZ 0000000140049470 f   imgui.obj
 0001:00048490       ?GetShortcutRoutingData@ImGui@@YAPEAUImGuiKeyRoutingData@@H@Z 0000000140049490 f   imgui.obj
 0001:00048620       ?GetStyle@ImGui@@YAAEAUImGuiStyle@@XZ 0000000140049620 f   imgui.obj
 0001:00048630       ?GetTextLineHeight@ImGui@@YAMXZ 0000000140049630 f   imgui.obj
 0001:00048640       ?GetTopMostPopupModal@ImGui@@YAPEAUImGuiWindow@@XZ 0000000140049640 f   imgui.obj
 0001:000487d0       ?ImFileOpen@@YAPEAU_iobuf@@PEBD0@Z 00000001400497d0 f   imgui.obj
 0001:00048990       ?ImFormatString@@YAHPEAD_KPEBDZZ 0000000140049990 f   imgui.obj
 0001:00048a10       ?ImFormatStringToTempBuffer@@YAXPEAPEBD0PEBDZZ 0000000140049a10 f   imgui.obj
 0001:00048b80       ?ImFormatStringToTempBufferV@@YAXPEAPEBD0PEBDPEAD@Z 0000000140049b80 f   imgui.obj
 0001:00048cf0       ?ImHashStr@@YAIPEBD_KI@Z   0000000140049cf0 f   imgui.obj
 0001:00048da0       ?ImStrSkipBlank@@YAPEBDPEBD@Z 0000000140049da0 f   imgui.obj
 0001:00048dc0       ?ImStrbolW@@YAPEBGPEBG0@Z  0000000140049dc0 f   imgui.obj
 0001:00048de0       ?ImStrncpy@@YAXPEADPEBD_K@Z 0000000140049de0 f   imgui.obj
 0001:00048e10       ?ImTextCharFromUtf8@@YAHPEAIPEBD1@Z 0000000140049e10 f   imgui.obj
 0001:00048fc0       ?ImTextCountCharsFromUtf8@@YAHPEBD0@Z 0000000140049fc0 f   imgui.obj
 0001:000491a0       ?ImTextCountUtf8BytesFromStr@@YAHPEBG0@Z 000000014004a1a0 f   imgui.obj
 0001:000491f0       ?ImTextStrFromUtf8@@YAHPEAGHPEBD1PEAPEBD@Z 000000014004a1f0 f   imgui.obj
 0001:00049430       ?ImTextStrToUtf8@@YAHPEADHPEBG1@Z 000000014004a430 f   imgui.obj
 0001:00049630       ?Initialize@ImGui@@YAXXZ   000000014004a630 f   imgui.obj
 0001:00049a60       ?IsClippedEx@ImGui@@YA_NAEBUImRect@@I@Z 000000014004aa60 f   imgui.obj
 0001:00049ae0       ?IsItemActive@ImGui@@YA_NXZ 000000014004aae0 f   imgui.obj
 0001:00049b00       ?IsItemDeactivatedAfterEdit@ImGui@@YA_NXZ 000000014004ab00 f   imgui.obj
 0001:00049b60       ?IsItemHovered@ImGui@@YA_NH@Z 000000014004ab60 f   imgui.obj
 0001:00049d70       ?IsKeyChordPressed@ImGui@@YA_NHIH@Z 000000014004ad70 f   imgui.obj
 0001:00049df0       ?IsKeyDown@ImGui@@YA_NW4ImGuiKey@@@Z 000000014004adf0 f   imgui.obj
 0001:00049e70       ?IsKeyPressed@ImGui@@YA_NW4ImGuiKey@@IH@Z 000000014004ae70 f   imgui.obj
 0001:00049ff0       ?IsKeyPressed@ImGui@@YA_NW4ImGuiKey@@_N@Z 000000014004aff0 f   imgui.obj
 0001:0004a000       ?IsKeyReleased@ImGui@@YA_NW4ImGuiKey@@@Z 000000014004b000 f   imgui.obj
 0001:0004a080       ?IsMouseClicked@ImGui@@YA_NHIH@Z 000000014004b080 f   imgui.obj
 0001:0004a110       ?IsMouseClicked@ImGui@@YA_NH_N@Z 000000014004b110 f   imgui.obj
 0001:0004a1e0       ?IsMouseDown@ImGui@@YA_NH@Z 000000014004b1e0 f   imgui.obj
 0001:0004a260       ?IsMouseDown@ImGui@@YA_NHI@Z 000000014004b260 f   imgui.obj
 0001:0004a2a0       ?IsMouseDragging@ImGui@@YA_NHM@Z 000000014004b2a0 f   imgui.obj
 0001:0004a2e0       ?IsMouseHoveringRect@ImGui@@YA_NAEBUImVec2@@0_N@Z 000000014004b2e0 f   imgui.obj
 0001:0004a3b0       ?IsMouseReleased@ImGui@@YA_NHI@Z 000000014004b3b0 f   imgui.obj
 0001:0004a3f0       ?IsPopupOpen@ImGui@@YA_NIH@Z 000000014004b3f0 f   imgui.obj
 0001:0004a470       ?IsWindowContentHoverable@ImGui@@YA_NPEAUImGuiWindow@@H@Z 000000014004b470 f   imgui.obj
 0001:0004a4e0       ?ItemAdd@ImGui@@YA_NAEBUImRect@@IPEBU2@H@Z 000000014004b4e0 f   imgui.obj
 0001:0004a750       ?ItemHoverable@ImGui@@YA_NAEBUImRect@@IH@Z 000000014004b750 f   imgui.obj
 0001:0004a960       ?ItemSize@ImGui@@YAXAEBUImVec2@@M@Z 000000014004b960 f   imgui.obj
 0001:0004aad0       ?LoadIniSettingsFromMemory@ImGui@@YAXPEBD_K@Z 000000014004bad0 f   imgui.obj
 0001:0004ad00       ?LogRenderedText@ImGui@@YAXPEBUImVec2@@PEBD1@Z 000000014004bd00 f   imgui.obj
 0001:0004af00       ?LogSetNextTextDecoration@ImGui@@YAXPEBD0@Z 000000014004bf00 f   imgui.obj
 0001:0004af20       ?LogText@ImGui@@YAXPEBDZZ  000000014004bf20 f   imgui.obj
 0001:0004b010       ?MarkItemEdited@ImGui@@YAXI@Z 000000014004c010 f   imgui.obj
 0001:0004b040       ?MemAlloc@ImGui@@YAPEAX_K@Z 000000014004c040 f   imgui.obj
 0001:0004b0f0       ?MemFree@ImGui@@YAXPEAX@Z  000000014004c0f0 f   imgui.obj
 0001:0004b450       ?NavInitWindow@ImGui@@YAXPEAUImGuiWindow@@_N@Z 000000014004c450 f   imgui.obj
 0001:0004b580       ?NavMoveRequestApplyResult@ImGui@@YAXXZ 000000014004c580 f   imgui.obj
 0001:0004b9b0       ?NavMoveRequestResolveWithLastItem@ImGui@@YAXPEAUImGuiNavItemData@@@Z 000000014004c9b0 f   imgui.obj
 0001:0004ba00       ?NavMoveRequestSubmit@ImGui@@YAXHHHH@Z 000000014004ca00 f   imgui.obj
 0001:0004dcb0       ?NavUpdateCurrentWindowIsScrollPushableX@ImGui@@YAXXZ 000000014004ecb0 f   imgui.obj
 0001:0004ed60       ?NewFrame@ImGui@@YAXXZ     000000014004fd60 f   imgui.obj
 0001:0004fed0       ?Overlaps@ImRect@@QEBA_NAEBU1@@Z 0000000140050ed0 f i imgui.obj
 0001:0004ff00       ?PathLineTo@ImDrawList@@QEAAXAEBUImVec2@@@Z 0000000140050f00 f i imgui.obj
 0001:0004ffb0       ?PopClipRect@ImGui@@YAXXZ  0000000140050fb0 f   imgui.obj
 0001:00050030       ?PopFont@ImGui@@YAXXZ      0000000140051030 f   imgui.obj
 0001:000500a0       ?PopItemWidth@ImGui@@YAXXZ 00000001400510a0 f   imgui.obj
 0001:000500e0       ?PopStyleColor@ImGui@@YAXH@Z 00000001400510e0 f   imgui.obj
 0001:00050140       ?PopStyleVar@ImGui@@YAXH@Z 0000000140051140 f   imgui.obj
 0001:000503a0       ?PopTextWrapPos@ImGui@@YAXXZ 00000001400513a0 f   imgui.obj
 0001:000503e0       ?PushClipRect@ImGui@@YAXAEBUImVec2@@0_N@Z 00000001400513e0 f   imgui.obj
 0001:00050470       ?PushFont@ImGui@@YAXPEAUImFont@@@Z 0000000140051470 f   imgui.obj
 0001:00050570       ?PushID@ImGui@@YAXPEBD@Z   0000000140051570 f   imgui.obj
 0001:00050630       ?PushStyleColor@ImGui@@YAXHAEBUImVec4@@@Z 0000000140051630 f   imgui.obj
 0001:000506b0       ?PushStyleVar@ImGui@@YAXHAEBUImVec2@@@Z 00000001400516b0 f   imgui.obj
 0001:00050740       ?PushStyleVar@ImGui@@YAXHM@Z 0000000140051740 f   imgui.obj
 0001:000507c0       ?PushTextWrapPos@ImGui@@YAXM@Z 00000001400517c0 f   imgui.obj
 0001:00050860       ?Render@ImGui@@YAXXZ       0000000140051860 f   imgui.obj
 0001:000510e0       ?RenderFrame@ImGui@@YAXUImVec2@@0I_NM@Z 00000001400520e0 f   imgui.obj
 0001:00051290       ?RenderMouseCursor@ImGui@@YAXUImVec2@@MHIII@Z 0000000140052290 f   imgui.obj
 0001:00051690       ?RenderNavHighlight@ImGui@@YAXAEBUImRect@@IH@Z 0000000140052690 f   imgui.obj
 0001:000518d0       ?RenderText@ImGui@@YAXUImVec2@@PEBD1_N@Z 00000001400528d0 f   imgui.obj
 0001:00051b80       ?RenderTextClipped@ImGui@@YAXAEBUImVec2@@0PEBD1PEBU2@0PEBUImRect@@@Z 0000000140052b80 f   imgui.obj
 0001:00051df0       ?RenderTextClippedEx@ImGui@@YAXPEAUImDrawList@@AEBUImVec2@@1PEBD2PEBU3@1PEBUImRect@@@Z 0000000140052df0 f   imgui.obj
 0001:00052060       ?RenderTextWrapped@ImGui@@YAXUImVec2@@PEBD1M@Z 0000000140053060 f   imgui.obj
 0001:00053410       ?SameLine@ImGui@@YAXMM@Z   0000000140054410 f   imgui.obj
 0001:000534c0       ?SaveIniSettingsToDisk@ImGui@@YAXPEBD@Z 00000001400544c0 f   imgui.obj
 0001:00053540       ?SaveIniSettingsToMemory@ImGui@@YAPEBDPEA_K@Z 0000000140054540 f   imgui.obj
 0001:00053670       ?ScrollToRectEx@ImGui@@YA?AUImVec2@@PEAUImGuiWindow@@AEBUImRect@@H@Z 0000000140054670 f   imgui.obj
 0001:00053aa0       ?SetActiveID@ImGui@@YAXIPEAUImGuiWindow@@@Z 0000000140054aa0 f   imgui.obj
 0001:00053c00       ?SetClipboardText@ImGui@@YAXPEBD@Z 0000000140054c00 f   imgui.obj
 0001:00053d00       ?SetCurrentFont@ImGui@@YAXPEAUImFont@@@Z 0000000140054d00 f   imgui.obj
 0001:00053da0       ?SetCursorPosX@ImGui@@YAXM@Z 0000000140054da0 f   imgui.obj
 0001:00053de0       ?SetCursorPosY@ImGui@@YAXM@Z 0000000140054de0 f   imgui.obj
 0001:00053e20       ?SetFocusID@ImGui@@YAXIPEAUImGuiWindow@@@Z 0000000140054e20 f   imgui.obj
 0001:00053f70       ?SetHoveredID@ImGui@@YAXI@Z 0000000140054f70 f   imgui.obj
 0001:00053fa0       ?SetKeyEventNativeData@ImGuiIO@@QEAAXW4ImGuiKey@@HHH@Z 0000000140054fa0 f   imgui.obj
 0001:00053fd0       ?SetKeyOwner@ImGui@@YAXW4ImGuiKey@@IH@Z 0000000140054fd0 f   imgui.obj
 0001:00054030       ?SetKeyOwnersForKeyChord@ImGui@@YAXHIH@Z 0000000140055030 f   imgui.obj
 0001:000541e0       ?SetNavFocusScope@ImGui@@YAXI@Z 00000001400551e0 f   imgui.obj
 0001:00054390       ?SetNavID@ImGui@@YAXIW4ImGuiNavLayer@@IAEBUImRect@@@Z 0000000140055390 f   imgui.obj
 0001:00054450       ?SetNavWindow@ImGui@@YAXPEAUImGuiWindow@@@Z 0000000140055450 f   imgui.obj
 0001:00054500       ?SetNextItemWidth@ImGui@@YAXM@Z 0000000140055500 f   imgui.obj
 0001:00054520       ?SetNextWindowBgAlpha@ImGui@@YAXM@Z 0000000140055520 f   imgui.obj
 0001:00054540       ?SetNextWindowPos@ImGui@@YAXAEBUImVec2@@H0@Z 0000000140055540 f   imgui.obj
 0001:00054580       ?SetNextWindowSize@ImGui@@YAXAEBUImVec2@@H@Z 0000000140055580 f   imgui.obj
 0001:000545c0       ?SetScrollY@ImGui@@YAXPEAUImGuiWindow@@M@Z 00000001400555c0 f   imgui.obj
 0001:000545e0       ?SetShortcutRouting@ImGui@@YA_NHIH@Z 00000001400555e0 f   imgui.obj
 0001:00054860       ?SetTooltip@ImGui@@YAXPEBDZZ 0000000140055860 f   imgui.obj
 0001:000548b0       ?SetWindowPos@ImGui@@YAXPEAUImGuiWindow@@AEBUImVec2@@H@Z 00000001400558b0 f   imgui.obj
 0001:00054a10       ?SetWindowSize@ImGui@@YAXPEAUImGuiWindow@@AEBUImVec2@@H@Z 0000000140055a10 f   imgui.obj
 0001:00054b30       ?Shortcut@ImGui@@YA_NHIH@Z 0000000140055b30 f   imgui.obj
 0001:00054bd0       ?Shutdown@ImGui@@YAXXZ     0000000140055bd0 f   imgui.obj
 0001:00055200       ?StartMouseMovingWindow@ImGui@@YAXPEAUImGuiWindow@@@Z 0000000140056200 f   imgui.obj
 0001:000552e0       ?TestKeyOwner@ImGui@@YA_NW4ImGuiKey@@I@Z 00000001400562e0 f   imgui.obj
 0001:000553a0       ?TitleBarHeight@ImGuiWindow@@QEBAMXZ 00000001400563a0 f i imgui.obj
 0001:00055640       ?UpdateHoveredWindowAndCaptureFlags@ImGui@@YAXXZ 0000000140056640 f   imgui.obj
 0001:00055a90       ?UpdateInputEvents@ImGui@@YAX_N@Z 0000000140056a90 f   imgui.obj
 0001:00056e30       ?UpdateMouseMovingWindowEndFrame@ImGui@@YAXXZ 0000000140057e30 f   imgui.obj
 0001:00058e30       ?_Insert_node@?$_Tree_val@U?$_Tree_simple_types@U?$pair@$$CBIM@std@@@std@@@std@@QEAAPEAU?$_Tree_node@U?$pair@$$CBIM@std@@PEAX@2@U?$_Tree_id@PEAU?$_Tree_node@U?$pair@$$CBIM@std@@PEAX@std@@@2@QEAU32@@Z 0000000140059e30 f i imgui.obj
 0001:00059090       ?_Throw_tree_length_error@std@@YAXXZ 000000014005a090 f i imgui.obj
 0001:000590b0       ?append@ImGuiTextBuffer@@QEAAXPEBD0@Z 000000014005a0b0 f   imgui.obj
 0001:00059190       ?appendf@ImGuiTextBuffer@@QEAAXPEBDZZ 000000014005a190 f   imgui.obj
 0001:000591c0       ?appendfv@ImGuiTextBuffer@@QEAAXPEBDPEAD@Z 000000014005a1c0 f   imgui.obj
 0001:000592d0       ?insert@?$ImVector@UImGuiStoragePair@ImGuiStorage@@@@QEAAPEAUImGuiStoragePair@ImGuiStorage@@PEBU23@AEBU23@@Z 000000014005a2d0 f i imgui.obj
 0001:000593d0       ?push_back@?$ImVector@H@@QEAAXAEBH@Z 000000014005a3d0 f i imgui.obj
 0001:00059430       ?push_back@?$ImVector@UImGuiColorMod@@@@QEAAXAEBUImGuiColorMod@@@Z 000000014005a430 f i imgui.obj
 0001:000594f0       ?push_back@?$ImVector@UImGuiInputEvent@@@@QEAAXAEBUImGuiInputEvent@@@Z 000000014005a4f0 f i imgui.obj
 0001:000595b0       ?push_back@?$ImVector@UImGuiPopupData@@@@QEAAXAEBUImGuiPopupData@@@Z 000000014005a5b0 f i imgui.obj
 0001:00059670       ?push_back@?$ImVector@UImGuiStyleMod@@@@QEAAXAEBUImGuiStyleMod@@@Z 000000014005a670 f i imgui.obj
 0001:00059730       ?push_front@?$ImVector@UImDrawCmd@@@@QEAAXAEBUImDrawCmd@@@Z 000000014005a730 f i imgui.obj
 0001:00059880       ?reserve@?$ImVector@D@@QEAAXH@Z 000000014005a880 f i imgui.obj
 0001:000598e0       ?reserve@?$ImVector@H@@QEAAXH@Z 000000014005a8e0 f i imgui.obj
 0001:00059950       ?reserve@?$ImVector@I@@QEAAXH@Z 000000014005a950 f i imgui.obj
 0001:000599c0       ?reserve@?$ImVector@M@@QEAAXH@Z 000000014005a9c0 f i imgui.obj
 0001:00059a30       ?reserve@?$ImVector@PEAUImGuiWindow@@@@QEAAXH@Z 000000014005aa30 f i imgui.obj
 0001:00059aa0       ?reserve@?$ImVector@UImGuiFocusScopeData@@@@QEAAXH@Z 000000014005aaa0 f i imgui.obj
 0001:00059b10       ?reserve@?$ImVector@UImGuiKeyRoutingData@@@@QEAAXH@Z 000000014005ab10 f i imgui.obj
 0001:00059b80       ?reserve@?$ImVector@UImGuiStackLevelInfo@@@@QEAAXH@Z 000000014005ab80 f i imgui.obj
 0001:00059bf0       ?resize@?$ImVector@D@@QEAAXH@Z 000000014005abf0 f i imgui.obj
 0001:00059ca0       ?resize@?$ImVector@D@@QEAAXHAEBD@Z 000000014005aca0 f i imgui.obj
 0001:00059de0       ?resize@?$ImVector@G@@QEAAXH@Z 000000014005ade0 f i imgui.obj
 0001:00059e90       ?resize@?$ImVector@PEAUImDrawList@@@@QEAAXH@Z 000000014005ae90 f i imgui.obj
 0001:00059f40       ?resize@?$ImVector@UImGuiGroupData@@@@QEAAXH@Z 000000014005af40 f i imgui.obj
 0001:00059ff0       ?resize@?$ImVector@UImGuiInputEvent@@@@QEAAXH@Z 000000014005aff0 f i imgui.obj
 0001:0005a0a0       ?resize@?$ImVector@UImGuiPopupData@@@@QEAAXH@Z 000000014005b0a0 f i imgui.obj
 0001:0005a150       printf                     000000014005b150 f i imgui.obj
 0001:0005a1a0       sscanf                     000000014005b1a0 f i imgui.obj
 0001:0005a200       ??0ImDrawListSharedData@@QEAA@XZ 000000014005b200 f   imgui_draw.obj
 0001:0005a300       ??0ImFont@@QEAA@XZ         000000014005b300 f   imgui_draw.obj
 0001:0005a360       ??0ImFontAtlas@@QEAA@XZ    000000014005b360 f   imgui_draw.obj
 0001:0005a3e0       ??1?$ImVector@UImFontAtlasCustomRect@@@@QEAA@XZ 000000014005b3e0 f i imgui_draw.obj
 0001:0005a400       ??1?$ImVector@UImFontBuildDstData@@@@QEAA@XZ 000000014005b400 f i imgui_draw.obj
 0001:0005a420       ??1?$ImVector@UImFontBuildSrcData@@@@QEAA@XZ 000000014005b420 f i imgui_draw.obj
 0001:0005a440       ??1?$ImVector@UImFontConfig@@@@QEAA@XZ 000000014005b440 f i imgui_draw.obj
 0001:0005a460       ??1?$ImVector@UImVec2@@@@QEAA@XZ 000000014005b460 f i imgui_draw.obj
 0001:0005a480       ??1?$ImVector@Ustbrp_rect@@@@QEAA@XZ 000000014005b480 f i imgui_draw.obj
 0001:0005a4a0       ??1?$ImVector@Ustbtt_packedchar@@@@QEAA@XZ 000000014005b4a0 f i imgui_draw.obj
 0001:0005a4c0       ??1ImFont@@QEAA@XZ         000000014005b4c0 f   imgui_draw.obj
 0001:0005a510       ??1ImFontAtlas@@QEAA@XZ    000000014005b510 f   imgui_draw.obj
 0001:0005a560       ?AddCircleFilled@ImDrawList@@QEAAXAEBUImVec2@@MIH@Z 000000014005b560 f   imgui_draw.obj
 0001:0005a630       ?AddConvexPolyFilled@ImDrawList@@QEAAXPEBUImVec2@@HI@Z 000000014005b630 f   imgui_draw.obj
 0001:0005abf0       ?AddDrawCmd@ImDrawList@@QEAAXXZ 000000014005bbf0 f   imgui_draw.obj
 0001:0005ac40       ?AddDrawListToDrawDataEx@ImGui@@YAXPEAUImDrawData@@PEAU?$ImVector@PEAUImDrawList@@@@PEAUImDrawList@@@Z 000000014005bc40 f   imgui_draw.obj
 0001:0005ace0       ?AddFont@ImFontAtlas@@QEAAPEAUImFont@@PEBUImFontConfig@@@Z 000000014005bce0 f   imgui_draw.obj
 0001:0005b000       ?AddFontDefault@ImFontAtlas@@QEAAPEAUImFont@@PEBUImFontConfig@@@Z 000000014005c000 f   imgui_draw.obj
 0001:0005b2c0       ?AddFontFromMemoryCompressedTTF@ImFontAtlas@@QEAAPEAUImFont@@PEBXHMPEBUImFontConfig@@PEBG@Z 000000014005c2c0 f   imgui_draw.obj
 0001:0005b570       ?AddGlyph@ImFont@@QEAAXPEBUImFontConfig@@GMMMMMMMMM@Z 000000014005c570 f   imgui_draw.obj
 0001:0005b780       ?AddImage@ImDrawList@@QEAAXPEAXAEBUImVec2@@111I@Z 000000014005c780 f   imgui_draw.obj
 0001:0005b840       ?AddLine@ImDrawList@@QEAAXAEBUImVec2@@0IM@Z 000000014005c840 f   imgui_draw.obj
 0001:0005b9a0       ?AddPolyline@ImDrawList@@QEAAXPEBUImVec2@@HIHM@Z 000000014005c9a0 f   imgui_draw.obj
 0001:0005c8c0       ?AddRect@ImDrawList@@QEAAXAEBUImVec2@@0IMHM@Z 000000014005d8c0 f   imgui_draw.obj
 0001:0005c9c0       ?AddRectFilled@ImDrawList@@QEAAXAEBUImVec2@@0IMH@Z 000000014005d9c0 f   imgui_draw.obj
 0001:0005cb70       ?AddText@ImDrawList@@QEAAXPEBUImFont@@MAEBUImVec2@@IPEBD2MPEBUImVec4@@@Z 000000014005db70 f   imgui_draw.obj
 0001:0005ccc0       ?BuildLookupTable@ImFont@@QEAAXXZ 000000014005dcc0 f   imgui_draw.obj
 0001:0005d300       ?CalcTextSizeA@ImFont@@QEBA?AUImVec2@@MMMPEBD0PEAPEBD@Z 000000014005e300 f   imgui_draw.obj
 0001:0005d550       ?CalcWordWrapPositionA@ImFont@@QEBAPEBDMPEBD0M@Z 000000014005e550 f   imgui_draw.obj
 0001:0005d710       ?Clear@ImDrawData@@QEAAXXZ 000000014005e710 f   imgui_draw.obj
 0001:0005d780       ?Clear@ImFontAtlas@@QEAAXXZ 000000014005e780 f   imgui_draw.obj
 0001:0005d940       ?ClearFreeMemory@ImDrawListSplitter@@QEAAXXZ 000000014005e940 f   imgui_draw.obj
 0001:0005da00       ?ClearOutputData@ImFont@@QEAAXXZ 000000014005ea00 f   imgui_draw.obj
 0001:0005da80       ?FindGlyph@ImFont@@QEBAPEBUImFontGlyph@@G@Z 000000014005ea80 f   imgui_draw.obj
 0001:0005dac0       ?GetMouseCursorTexData@ImFontAtlas@@QEAA_NHPEAUImVec2@@0QEAU2@1@Z 000000014005eac0 f   imgui_draw.obj
 0001:0005dbd0       ?GetTexDataAsRGBA32@ImFontAtlas@@QEAAXPEAPEAEPEAH11@Z 000000014005ebd0 f   imgui_draw.obj
 0001:0005f660       ?Merge@ImDrawListSplitter@@QEAAXPEAUImDrawList@@@Z 0000000140060660 f   imgui_draw.obj
 0001:0005fb30       ?PathArcTo@ImDrawList@@QEAAXAEBUImVec2@@MMMH@Z 0000000140060b30 f   imgui_draw.obj
 0001:0005fee0       ?PathArcToFast@ImDrawList@@QEAAXAEBUImVec2@@MHH@Z 0000000140060ee0 f   imgui_draw.obj
 0001:0005ff80       ?PathRect@ImDrawList@@QEAAXAEBUImVec2@@0MH@Z 0000000140060f80 f   imgui_draw.obj
 0001:00060350       ?PopClipRect@ImDrawList@@QEAAXXZ 0000000140061350 f   imgui_draw.obj
 0001:00060390       ?PopTextureID@ImDrawList@@QEAAXXZ 0000000140061390 f   imgui_draw.obj
 0001:000603d0       ?PrimRectUV@ImDrawList@@QEAAXAEBUImVec2@@000I@Z 00000001400613d0 f   imgui_draw.obj
 0001:00060520       ?PrimReserve@ImDrawList@@QEAAXHH@Z 0000000140061520 f   imgui_draw.obj
 0001:00060620       ?PushClipRect@ImDrawList@@QEAAXAEBUImVec2@@0_N@Z 0000000140061620 f   imgui_draw.obj
 0001:00060710       ?PushTextureID@ImDrawList@@QEAAXPEAX@Z 0000000140061710 f   imgui_draw.obj
 0001:00060790       ?RenderArrow@ImGui@@YAXPEAUImDrawList@@UImVec2@@IHM@Z 0000000140061790 f   imgui_draw.obj
 0001:00060990       ?RenderBullet@ImGui@@YAXPEAUImDrawList@@UImVec2@@I@Z 0000000140061990 f   imgui_draw.obj
 0001:00060a20       ?RenderRectFilledRangeH@ImGui@@YAXPEAUImDrawList@@AEBUImRect@@IMMM@Z 0000000140061a20 f   imgui_draw.obj
 0001:00061050       ?RenderText@ImFont@@QEBAXPEAUImDrawList@@MAEBUImVec2@@IAEBUImVec4@@PEBD3M_N@Z 0000000140062050 f   imgui_draw.obj
 0001:00061710       ?SetCircleTessellationMaxError@ImDrawListSharedData@@QEAAXM@Z 0000000140062710 f   imgui_draw.obj
 0001:00061810       ?SetCurrentChannel@ImDrawListSplitter@@QEAAXPEAUImDrawList@@H@Z 0000000140062810 f   imgui_draw.obj
 0001:00061940       ?StyleColorsDark@ImGui@@YAXPEAUImGuiStyle@@@Z 0000000140062940 f   imgui_draw.obj
 0001:00062130       ?_CalcCircleAutoSegmentCount@ImDrawList@@QEBAHM@Z 0000000140063130 f   imgui_draw.obj
 0001:000621c0       ?_ClearFreeMemory@ImDrawList@@QEAAXXZ 00000001400631c0 f   imgui_draw.obj
 0001:00062280       ?_OnChangedClipRect@ImDrawList@@QEAAXXZ 0000000140063280 f   imgui_draw.obj
 0001:00062390       ?_OnChangedTextureID@ImDrawList@@QEAAXXZ 0000000140063390 f   imgui_draw.obj
 0001:00062480       ?_PathArcToFastEx@ImDrawList@@QEAAXAEBUImVec2@@MHHH@Z 0000000140063480 f   imgui_draw.obj
 0001:00062770       ?_PathArcToN@ImDrawList@@QEAAXAEBUImVec2@@MMMH@Z 0000000140063770 f   imgui_draw.obj
 0001:00062940       ?_PopUnusedDrawCmd@ImDrawList@@QEAAXXZ 0000000140063940 f   imgui_draw.obj
 0001:00062980       ?_ResetForNewFrame@ImDrawList@@QEAAXXZ 0000000140063980 f   imgui_draw.obj
 0001:00062ac0       ?push_back@?$ImVector@UImDrawCmd@@@@QEAAXAEBUImDrawCmd@@@Z 0000000140063ac0 f i imgui_draw.obj
 0001:00062b80       ?push_back@?$ImVector@UImFontAtlasCustomRect@@@@QEAAXAEBUImFontAtlasCustomRect@@@Z 0000000140063b80 f i imgui_draw.obj
 0001:00062c30       ?push_back@?$ImVector@UImVec2@@@@QEAAXAEBUImVec2@@@Z 0000000140063c30 f i imgui_draw.obj
 0001:00062ce0       ?reserve@?$ImVector@PEAUImDrawList@@@@QEAAXH@Z 0000000140063ce0 f i imgui_draw.obj
 0001:00062d50       ?reserve@?$ImVector@PEAX@@QEAAXH@Z 0000000140063d50 f i imgui_draw.obj
 0001:00062dc0       ?reserve@?$ImVector@UImVec2@@@@QEAAXH@Z 0000000140063dc0 f i imgui_draw.obj
 0001:00062e30       ?reserve@?$ImVector@UImVec4@@@@QEAAXH@Z 0000000140063e30 f i imgui_draw.obj
 0001:00062ea0       ?reserve_discard@?$ImVector@UImVec2@@@@QEAAXH@Z 0000000140063ea0 f i imgui_draw.obj
 0001:00062ef0       ?resize@?$ImVector@G@@QEAAXHAEBG@Z 0000000140063ef0 f i imgui_draw.obj
 0001:00063040       ?resize@?$ImVector@I@@QEAAXH@Z 0000000140064040 f i imgui_draw.obj
 0001:000630f0       ?resize@?$ImVector@M@@QEAAXHAEBM@Z 00000001400640f0 f i imgui_draw.obj
 0001:00063240       ?resize@?$ImVector@UImDrawCmd@@@@QEAAXH@Z 0000000140064240 f i imgui_draw.obj
 0001:000632f0       ?resize@?$ImVector@UImDrawVert@@@@QEAAXH@Z 00000001400642f0 f i imgui_draw.obj
 0001:000633b0       ?resize@?$ImVector@UImFontGlyph@@@@QEAAXH@Z 00000001400643b0 f i imgui_draw.obj
 0001:00069fa0       ?EndColumns@ImGui@@YAXXZ   000000014006afa0 f   imgui_tables.obj
 0001:0006a440       ?PopColumnsBackground@ImGui@@YAXXZ 000000014006b440 f   imgui_tables.obj
 0001:0006a4f0       ?PushColumnsBackground@ImGui@@YAXXZ 000000014006b4f0 f   imgui_tables.obj
 0001:0006a5b0       ?SetColumnOffset@ImGui@@YAXHM@Z 000000014006b5b0 f   imgui_tables.obj
 0001:0006a6d0       ?TableGcCompactSettings@ImGui@@YAXXZ 000000014006b6d0 f   imgui_tables.obj
 0001:0006a8c0       ?TableGcCompactTransientBuffers@ImGui@@YAXPEAUImGuiTable@@@Z 000000014006b8c0 f   imgui_tables.obj
 0001:0006a990       ?TableGcCompactTransientBuffers@ImGui@@YAXPEAUImGuiTableTempData@@@Z 000000014006b990 f   imgui_tables.obj
 0001:0006a9b0       ?TablePopBackgroundChannel@ImGui@@YAXXZ 000000014006b9b0 f   imgui_tables.obj
 0001:0006aa70       ?TablePushBackgroundChannel@ImGui@@YAXXZ 000000014006ba70 f   imgui_tables.obj
 0001:0006ab40       ?TableSettingsAddSettingsHandler@ImGui@@YAXXZ 000000014006bb40 f   imgui_tables.obj
 0001:0006abd0       ?TableSettingsCreate@ImGui@@YAPEAUImGuiTableSettings@@IH@Z 000000014006bbd0 f   imgui_tables.obj
 0001:0006b530       ??1?$ImVector@G@@QEAA@XZ   000000014006c530 f i imgui_widgets.obj
 0001:0006b550       ?Button@ImGui@@YA_NPEBDAEBUImVec2@@@Z 000000014006c550 f   imgui_widgets.obj
 0001:0006b560       ?ButtonBehavior@ImGui@@YA_NAEBUImRect@@IPEA_N1H@Z 000000014006c560 f   imgui_widgets.obj
 0001:0006bbb0       ?ButtonEx@ImGui@@YA_NPEBDAEBUImVec2@@H@Z 000000014006cbb0 f   imgui_widgets.obj
 0001:0006be30       ?CloseButton@ImGui@@YA_NIAEBUImVec2@@@Z 000000014006ce30 f   imgui_widgets.obj
 0001:0006c130       ?CollapseButton@ImGui@@YA_NIAEBUImVec2@@@Z 000000014006d130 f   imgui_widgets.obj
 0001:0006c310       ?GetWindowScrollbarID@ImGui@@YAIPEAUImGuiWindow@@W4ImGuiAxis@@@Z 000000014006d310 f   imgui_widgets.obj
 0001:0006c330       ?InputText@ImGui@@YA_NPEBDPEAD_KHP6AHPEAUImGuiInputTextCallbackData@@@ZPEAX@Z 000000014006d330 f   imgui_widgets.obj
 0001:0006c380       ?InputTextDeactivateHook@ImGui@@YAXI@Z 000000014006d380 f   imgui_widgets.obj
 0001:0006c3f0       ?InputTextEx@ImGui@@YA_NPEBD0PEADHAEBUImVec2@@HP6AHPEAUImGuiInputTextCallbackData@@@ZPEAX@Z 000000014006d3f0 f   imgui_widgets.obj
 0001:0006f5c0       ?ProgressBar@ImGui@@YAXMAEBUImVec2@@PEBD@Z 00000001400705c0 f   imgui_widgets.obj
 0001:0006fe70       ?Scrollbar@ImGui@@YAXW4ImGuiAxis@@@Z 0000000140070e70 f   imgui_widgets.obj
 0001:00070030       ?ScrollbarEx@ImGui@@YA_NAEBUImRect@@IW4ImGuiAxis@@PEA_J_J3H@Z 0000000140071030 f   imgui_widgets.obj
 0001:00070550       ?Selectable@ImGui@@YA_NPEBD_NHAEBUImVec2@@@Z 0000000140071550 f   imgui_widgets.obj
 0001:00070ae0       ?Separator@ImGui@@YAXXZ    0000000140071ae0 f   imgui_widgets.obj
 0001:00070b30       ?SeparatorEx@ImGui@@YAXHM@Z 0000000140071b30 f   imgui_widgets.obj
 0001:00070de0       ?Spacing@ImGui@@YAXXZ      0000000140071de0 f   imgui_widgets.obj
 0001:00070e30       ?Text@ImGui@@YAXPEBDZZ     0000000140071e30 f   imgui_widgets.obj
 0001:00070ea0       ?TextColored@ImGui@@YAXAEBUImVec4@@PEBDZZ 0000000140071ea0 f   imgui_widgets.obj
 0001:00070f30       ?TextDisabled@ImGui@@YAXPEBDZZ 0000000140071f30 f   imgui_widgets.obj
 0001:00070fd0       ?TextEx@ImGui@@YAXPEBD0H@Z 0000000140071fd0 f   imgui_widgets.obj
 0001:00071420       ?TextUnformatted@ImGui@@YAXPEBD0@Z 0000000140072420 f   imgui_widgets.obj
 0001:00071430       ?TextV@ImGui@@YAXPEBDPEAD@Z 0000000140072430 f   imgui_widgets.obj
 0001:00071490       ?Update@ImGuiMenuColumns@@QEAAXM_N@Z 0000000140072490 f   imgui_widgets.obj
 0001:000730d0       ?ImGui_ImplWin32_Init@@YA_NPEAX@Z 00000001400740d0 f   imgui_impl_win32.obj
 0001:00073270       ?ImGui_ImplWin32_NewFrame@@YAXXZ 0000000140074270 f   imgui_impl_win32.obj
 0001:00073590       ?ImGui_ImplWin32_Shutdown@@YAXXZ 0000000140074590 f   imgui_impl_win32.obj
 0001:000742c0       ?ImGui_ImplWin32_WndProcHandler@@YA_JPEAUHWND__@@I_K_J@Z 00000001400752c0 f   imgui_impl_win32.obj
 0001:00074af0       ?ImGui_ImplDX11_CreateDeviceObjects@@YA_NXZ 0000000140075af0 f   imgui_impl_dx11.obj
 0001:00075060       ?ImGui_ImplDX11_Init@@YA_NPEAUID3D11Device@@PEAUID3D11DeviceContext@@@Z 0000000140076060 f   imgui_impl_dx11.obj
 0001:000751a0       ?ImGui_ImplDX11_InvalidateDeviceObjects@@YAXXZ 00000001400761a0 f   imgui_impl_dx11.obj
 0001:000752c0       ?ImGui_ImplDX11_NewFrame@@YAXXZ 00000001400762c0 f   imgui_impl_dx11.obj
 0001:00075300       ?ImGui_ImplDX11_RenderDrawData@@YAXPEAUImDrawData@@@Z 0000000140076300 f   imgui_impl_dx11.obj
 0001:00075f20       ?ImGui_ImplDX11_Shutdown@@YAXXZ 0000000140076f20 f   imgui_impl_dx11.obj
 0001:00075faf       VMProtectBeginMutation     0000000140076faf f   VMProtectSDK64:VMProtectSDK64.dll
 0001:00075fb5       VMProtectBeginUltra        0000000140076fb5 f   VMProtectSDK64:VMProtectSDK64.dll
 0001:00075fbb       VMProtectEnd               0000000140076fbb f   VMProtectSDK64:VMProtectSDK64.dll
 0001:00075fc1       VMProtectIsDebuggerPresent 0000000140076fc1 f   VMProtectSDK64:VMProtectSDK64.dll
 0001:00075fc7       VMProtectIsVirtualMachinePresent 0000000140076fc7 f   VMProtectSDK64:VMProtectSDK64.dll
 0001:00075fd0       ??0_Init_locks@std@@QEAA@XZ 0000000140076fd0 f   libcpmt:xlock.obj
 0001:00076014       ??0_Lockit@std@@QEAA@H@Z   0000000140077014 f   libcpmt:xlock.obj
 0001:00076050       ??1_Init_locks@std@@QEAA@XZ 0000000140077050 f   libcpmt:xlock.obj
 0001:0007608c       ??1_Lockit@std@@QEAA@XZ    000000014007708c f   libcpmt:xlock.obj
 0001:00076dc0       __std_find_last_of_trivial_pos_2 0000000140077dc0 f   libcpmt:vector_algorithms.obj
 0001:00076dd0       __std_find_trivial_1       0000000140077dd0 f   libcpmt:vector_algorithms.obj
 0001:00076de0       __std_find_trivial_2       0000000140077de0 f   libcpmt:vector_algorithms.obj
 0001:00076df0       __std_search_1             0000000140077df0 f   libcpmt:vector_algorithms.obj
 0001:00076e00       __std_search_2             0000000140077e00 f   libcpmt:vector_algorithms.obj
 0001:00076e08       ??0bad_alloc@std@@QEAA@XZ  0000000140077e08 f i libcpmt:xthrow.obj
 0001:00076e2c       ??0length_error@std@@QEAA@AEBV01@@Z 0000000140077e2c f i libcpmt:xthrow.obj
 0001:00076e68       ??0length_error@std@@QEAA@PEBD@Z 0000000140077e68 f i libcpmt:xthrow.obj
 0001:00076eb0       ??0logic_error@std@@QEAA@AEBV01@@Z 0000000140077eb0 f i libcpmt:xthrow.obj
 0001:00076eec       ??0out_of_range@std@@QEAA@AEBV01@@Z 0000000140077eec f i libcpmt:xthrow.obj
 0001:00076f28       ??0out_of_range@std@@QEAA@PEBD@Z 0000000140077f28 f i libcpmt:xthrow.obj
 0001:00076f70       ??0runtime_error@std@@QEAA@PEBD@Z 0000000140077f70 f i libcpmt:xthrow.obj
 0001:00076fb8       ??1bad_alloc@std@@UEAA@XZ  0000000140077fb8 f i libcpmt:xthrow.obj
 0001:00076fcc       ??1length_error@std@@UEAA@XZ 0000000140077fcc f i libcpmt:xthrow.obj
 0001:00076fe0       ??1out_of_range@std@@UEAA@XZ 0000000140077fe0 f i libcpmt:xthrow.obj
 0001:00076ff4       ??1runtime_error@std@@UEAA@XZ 0000000140077ff4 f i libcpmt:xthrow.obj
 0001:00077008       ??_Elength_error@std@@UEAAPEAXI@Z 0000000140078008 f i libcpmt:xthrow.obj
 0001:00077008       ??_Glength_error@std@@UEAAPEAXI@Z 0000000140078008 f i libcpmt:xthrow.obj
 0001:0007704c       ??_Elogic_error@std@@UEAAPEAXI@Z 000000014007804c f i libcpmt:xthrow.obj
 0001:0007704c       ??_Glogic_error@std@@UEAAPEAXI@Z 000000014007804c f i libcpmt:xthrow.obj
 0001:00077090       ??_Eout_of_range@std@@UEAAPEAXI@Z 0000000140078090 f i libcpmt:xthrow.obj
 0001:00077090       ??_Gout_of_range@std@@UEAAPEAXI@Z 0000000140078090 f i libcpmt:xthrow.obj
 0001:000770d4       ?_Xbad_alloc@std@@YAXXZ    00000001400780d4 f   libcpmt:xthrow.obj
 0001:000770f4       ?_Xlength_error@std@@YAXPEBD@Z 00000001400780f4 f   libcpmt:xthrow.obj
 0001:00077118       ?_Xout_of_range@std@@YAXPEBD@Z 0000000140078118 f   libcpmt:xthrow.obj
 0001:0007713c       ?_Xruntime_error@std@@YAXPEBD@Z 000000014007813c f   libcpmt:xthrow.obj
 0001:00077160       __std_system_error_allocate_message 0000000140078160 f   libcpmt:syserror_import_lib.obj
 0001:00077238       __std_system_error_deallocate_message 0000000140078238 f   libcpmt:syserror_import_lib.obj
 0001:00077240       ?_Syserror_map@std@@YAPEBDH@Z 0000000140078240 f   libcpmt:syserror.obj
 0001:00077268       ?_Winerror_map@std@@YAHH@Z 0000000140078268 f   libcpmt:syserror.obj
 0001:0007728c       __std_fs_code_page         000000014007828c f   libcpmt:filesystem.obj
 0001:000772b4       __std_fs_convert_wide_to_narrow_replace_chars 00000001400782b4 f   libcpmt:filesystem.obj
 0001:00077390       __std_fs_get_stats         0000000140078390 f   libcpmt:filesystem.obj
 0001:000776c0       __std_fs_open_handle       00000001400786c0 f   libcpmt:filesystem.obj
 0001:00077718       ??4?$_Yarn@D@std@@QEAAAEAV01@PEBD@Z 0000000140078718 f i libcpmt:locale0.obj
 0001:00077794       ??_E_Locimp@locale@std@@MEAAPEAXI@Z 0000000140078794 f i libcpmt:locale0.obj
 0001:00077794       ??_G_Locimp@locale@std@@MEAAPEAXI@Z 0000000140078794 f i libcpmt:locale0.obj
 0001:000777f4       ?_Facet_Register@std@@YAXPEAV_Facet_base@1@@Z 00000001400787f4 f   libcpmt:locale0.obj
 0001:00077830       ?_Getgloballocale@locale@std@@CAPEAV_Locimp@12@XZ 0000000140078830 f   libcpmt:locale0.obj
 0001:00077838       ?_Init@locale@std@@CAPEAV_Locimp@12@_N@Z 0000000140078838 f   libcpmt:locale0.obj
 0001:000778d4       ?_Locimp_dtor@_Locimp@locale@std@@CAXPEAV123@@Z 00000001400788d4 f   libcpmt:locale0.obj
 0001:00077950       ?_Locinfo_ctor@_Locinfo@std@@SAXPEAV12@PEBD@Z 0000000140078950 f   libcpmt:locale0.obj
 0001:000779bc       ?_Locinfo_dtor@_Locinfo@std@@SAXPEAV12@@Z 00000001400789bc f   libcpmt:locale0.obj
 0001:000779d8       ?_New_Locimp@_Locimp@locale@std@@CAPEAV123@_N@Z 00000001400789d8 f   libcpmt:locale0.obj
 0001:00077a48       ?_Setgloballocale@locale@std@@CAXPEAX@Z 0000000140078a48 f   libcpmt:locale0.obj
 0001:00077a7c       _Deletegloballocale        0000000140078a7c f   libcpmt:locale0.obj
 0001:00077af0       _Getcvt                    0000000140078af0 f   libcpmt:xwctomb.obj
 0001:00077b98       _Mbrtowc                   0000000140078b98 f   libcpmt:xmbtowc.obj
 0001:00077d34       _Mtxdst                    0000000140078d34 f   libcpmt:xmtx.obj
 0001:00077d3c       _Mtxinit                   0000000140078d3c f   libcpmt:xmtx.obj
 0001:00077d4c       _Mtxlock                   0000000140078d4c f   libcpmt:xmtx.obj
 0001:00077d54       _Mtxunlock                 0000000140078d54 f   libcpmt:xmtx.obj
 0001:00077d5c       ?_Atexit@@YAXP6AXXZ@Z      0000000140078d5c f   libcpmt:iosptrs.obj
 0001:00077d98       ??_M@YAXPEAX_K1P6AX0@Z@Z   0000000140078d98 f   LIBCMT:ehvecdtr.obj
 0001:00077e04       ?__ArrayUnwind@@YAXPEAX_K1P6AX0@Z@Z 0000000140078e04 f   LIBCMT:ehvecdtr.obj
 0001:00077e60       ??2@YAPEAX_K@Z             0000000140078e60 f   LIBCMT:new_scalar.obj
 0001:00077e9c       ??3@YAXPEAX_K@Z            0000000140078e9c f   LIBCMT:delete_scalar_size.obj
 0001:00077ea4       ??_U@YAPEAX_K@Z            0000000140078ea4 f   LIBCMT:new_array.obj
 0001:00077eac       ??_V@YAXPEAX@Z             0000000140078eac f   LIBCMT:delete_array.obj
 0001:00077eb4       __scrt_acquire_startup_lock 0000000140078eb4 f   LIBCMT:utility.obj
 0001:00077ef0       __scrt_initialize_crt      0000000140078ef0 f   LIBCMT:utility.obj
 0001:00077f2c       __scrt_initialize_onexit_tables 0000000140078f2c f   LIBCMT:utility.obj
 0001:00077fb8       __scrt_is_nonwritable_in_current_image 0000000140078fb8 f   LIBCMT:utility.obj
 0001:00078050       __scrt_release_startup_lock 0000000140079050 f   LIBCMT:utility.obj
 0001:00078074       __scrt_uninitialize_crt    0000000140079074 f   LIBCMT:utility.obj
 0001:000780a0       _onexit                    00000001400790a0 f   LIBCMT:utility.obj
 0001:000780dc       atexit                     00000001400790dc f   LIBCMT:utility.obj
 0001:000780f4       __raise_securityfailure    00000001400790f4 f   LIBCMT:gs_report.obj
 0001:00078128       __report_gsfailure         0000000140079128 f   LIBCMT:gs_report.obj
 0001:000781fc       __report_rangecheckfailure 00000001400791fc f   LIBCMT:gs_report.obj
 0001:00078210       __report_securityfailure   0000000140079210 f   LIBCMT:gs_report.obj
 0001:00078394       __GSHandlerCheck           0000000140079394 f   LIBCMT:gshandler.obj
 0001:000783b4       __GSHandlerCheckCommon     00000001400793b4 f   LIBCMT:gshandler.obj
 0001:00078414       __GSHandlerCheck_EH4       0000000140079414 f   LIBCMT:gshandlereh4.obj
 0001:000784b0       __chkstk                   00000001400794b0 f   LIBCMT:chkstk.obj
 0001:000784b0       _alloca_probe              00000001400794b0 f   LIBCMT:chkstk.obj
 0001:00078510       __security_check_cookie    0000000140079510 f   LIBCMT:amdsecgs.obj
 0001:00078530       ??_Etype_info@@UEAAPEAXI@Z 0000000140079530 f i LIBCMT:std_type_info_static.obj
 0001:00078530       ??_Gtype_info@@UEAAPEAXI@Z 0000000140079530 f i LIBCMT:std_type_info_static.obj
 0001:0007855c       _Init_thread_abort         000000014007955c f   LIBCMT:thread_safe_statics.obj
 0001:00078598       _Init_thread_footer        0000000140079598 f   LIBCMT:thread_safe_statics.obj
 0001:00078604       _Init_thread_header        0000000140079604 f   LIBCMT:thread_safe_statics.obj
 0001:00078680       __isa_available_init       0000000140079680 f   LIBCMT:cpu_disp.obj
 0001:00078b70       WinMainCRTStartup          0000000140079b70 f   LIBCMT:exe_winmain.obj
 0001:00078b84       _guard_check_icall_nop     0000000140079b84 f i LIBCMT:guard_support.obj
 0001:00078b88       ?__scrt_throw_std_bad_alloc@@YAXXZ 0000000140079b88 f   LIBCMT:throw_bad_alloc.obj
 0001:00078ba8       ?__scrt_throw_std_bad_array_new_length@@YAXXZ 0000000140079ba8 f   LIBCMT:throw_bad_alloc.obj
 0001:00078bc8       ??3@YAXPEAX@Z              0000000140079bc8 f   LIBCMT:delete_scalar.obj
 0001:00078bd0       _get_startup_argv_mode     0000000140079bd0 f   LIBCMT:argv_mode.obj
 0001:00078bd8       __scrt_is_ucrt_dll_in_use  0000000140079bd8 f   LIBCMT:ucrt_detection.obj
 0001:00078be4       __crt_debugger_hook        0000000140079be4 f   LIBCMT:utility_desktop.obj
 0001:00078bf0       __scrt_fastfail            0000000140079bf0 f   LIBCMT:utility_desktop.obj
 0001:00078d3c       __scrt_get_show_window_mode 0000000140079d3c f   LIBCMT:utility_desktop.obj
 0001:00078d78       __scrt_initialize_mta      0000000140079d78 f   LIBCMT:utility_desktop.obj
 0001:00078d80       __scrt_initialize_winrt    0000000140079d80 f   LIBCMT:utility_desktop.obj
 0001:00078d84       __scrt_is_managed_app      0000000140079d84 f   LIBCMT:utility_desktop.obj
 0001:00078dd8       __scrt_set_unhandled_exception_filter 0000000140079dd8 f   LIBCMT:utility_desktop.obj
 0001:00078de8       __scrt_exe_initialize_mta  0000000140079de8 f   LIBCMT:utility_desktop.obj
 0001:00078de8       __scrt_stub_for_initialize_mta 0000000140079de8 f   LIBCMT:utility_desktop.obj
 0001:00078dec       __scrt_unhandled_exception_filter 0000000140079dec f   LIBCMT:utility_desktop.obj
 0001:00078e50       __security_init_cookie     0000000140079e50 f   LIBCMT:gs_support.obj
 0001:00078f00       _matherr                   0000000140079f00 f   LIBCMT:matherr.obj
 0001:00078f04       _get_startup_commit_mode   0000000140079f04 f   LIBCMT:commit_mode.obj
 0001:00078f08       _get_startup_file_mode     0000000140079f08 f   LIBCMT:file_mode.obj
 0001:00078f10       _get_startup_new_mode      0000000140079f10 f   LIBCMT:new_mode.obj
 0001:00078f14       _get_startup_thread_locale_mode 0000000140079f14 f   LIBCMT:thread_locale.obj
 0001:00078f18       ?__scrt_initialize_type_info@@YAXXZ 0000000140079f18 f   LIBCMT:tncleanup.obj
 0001:00078f28       _should_initialize_environment 0000000140079f28 f   LIBCMT:env_mode.obj
 0001:00078f2c       _initialize_invalid_parameter_handler 0000000140079f2c f   LIBCMT:invalid_parameter_handler.obj
 0001:00078f30       _initialize_denormal_control 0000000140079f30 f   LIBCMT:denormal_control.obj
 0001:00078f34       __scrt_initialize_default_local_stdio_options 0000000140079f34 f   LIBCMT:default_local_stdio_options.obj
 0001:00078f50       __scrt_is_user_matherr_present 0000000140079f50 f   LIBCMT:matherr_detection.obj
 0001:00078f5c       __scrt_get_dyn_tls_init_callback 0000000140079f5c f   LIBCMT:dyn_tls_init.obj
 0001:00078f64       __scrt_get_dyn_tls_dtor_callback 0000000140079f64 f   LIBCMT:dyn_tls_dtor.obj
 0001:00078f6c       _RTC_Initialize            0000000140079f6c f   LIBCMT:initsect.obj
 0001:00078fa8       _RTC_Terminate             0000000140079fa8 f   LIBCMT:initsect.obj
 0001:00078ff0       D3DCompile                 0000000140079ff0 f   d3dcompiler:D3DCOMPILER_47.dll
 0001:00078ff8       _get_purecall_handler      0000000140079ff8 f   libvcruntime:purevirt.obj
 0001:00079004       _purecall                  000000014007a004 f   libvcruntime:purevirt.obj
 0001:00079020       __DestructExceptionObject  000000014007a020 f   libvcruntime:ehhelpers.obj
 0001:00079094       ?_CallMemberFunction0@@YAXQEAX0@Z 000000014007a094 f i libvcruntime:ehhelpers.obj
 0001:00079098       _IsExceptionObjectToBeDestroyed 000000014007a098 f   libvcruntime:ehhelpers.obj
 0001:000790c8       __AdjustPointer            000000014007a0c8 f   libvcruntime:ehhelpers.obj
 0001:000790ec       __FrameUnwindFilter        000000014007a0ec f   libvcruntime:ehhelpers.obj
 0001:00079154       __current_exception        000000014007a154 f   libvcruntime:ehhelpers.obj
 0001:00079168       __current_exception_context 000000014007a168 f   libvcruntime:ehhelpers.obj
 0001:0007917c       __std_terminate            000000014007a17c f   libvcruntime:ehhelpers.obj
 0001:00079188       strrchr                    000000014007a188 f   libvcruntime:strrchr.obj
 0001:000792b8       wcsrchr                    000000014007a2b8 f   libvcruntime:wcsrchr.obj
 0001:00079368       __std_exception_copy       000000014007a368 f   libvcruntime:std_exception.obj
 0001:000793e8       __std_exception_destroy    000000014007a3e8 f   libvcruntime:std_exception.obj
 0001:00079410       _CxxThrowException         000000014007a410 f   libvcruntime:throw.obj
 0001:000794b8       ??$_CallSETranslator@V__FrameHandler3@@@@YAHPEAUEHExceptionRecord@@PEA_KPEAU_CONTEXT@@PEAU_xDISPATCHER_CONTEXT@@PEBU_s_FuncInfo@@K1H@Z 000000014007a4b8 f i libvcruntime:risctrnsctrl.obj
 0001:0007950c       ??$_CallSETranslator@V__FrameHandler4@@@@YAHPEAUEHExceptionRecord@@PEA_KPEAU_CONTEXT@@PEAU_xDISPATCHER_CONTEXT@@PEAUFuncInfo4@FH4@@K1H@Z 000000014007a50c f i libvcruntime:risctrnsctrl.obj
 0001:00079560       ?CatchTryBlock@__FrameHandler3@@SAPEBU_s_TryBlockMapEntry@@PEBU_s_FuncInfo@@H@Z 000000014007a560 f   libvcruntime:risctrnsctrl.obj
 0001:000795c4       ?DecompFuncInfo@FH4@@YA_JPEAEAEAUFuncInfo4@1@_KH_N@Z 000000014007a5c4 f i libvcruntime:risctrnsctrl.obj
 0001:000796f0       ?ExecutionInCatch@__FrameHandler3@@SA_NPEAU_xDISPATCHER_CONTEXT@@PEBU_s_FuncInfo@@@Z 000000014007a6f0 f   libvcruntime:risctrnsctrl.obj
 0001:0007971c       ?ExecutionInCatch@__FrameHandler4@@SA_NPEAU_xDISPATCHER_CONTEXT@@PEAUFuncInfo4@FH4@@@Z 000000014007a71c f   libvcruntime:risctrnsctrl.obj
 0001:00079724       ?FrameUnwindToEmptyState@__FrameHandler3@@SAXPEA_KPEAU_xDISPATCHER_CONTEXT@@PEBU_s_FuncInfo@@@Z 000000014007a724 f   libvcruntime:risctrnsctrl.obj
 0001:00079788       ?FrameUnwindToEmptyState@__FrameHandler4@@SAXPEA_KPEAU_xDISPATCHER_CONTEXT@@PEAUFuncInfo4@FH4@@@Z 000000014007a788 f   libvcruntime:risctrnsctrl.obj
 0001:000797bc       ?GetEstablisherFrame@__FrameHandler3@@SAPEA_KPEA_KPEAU_xDISPATCHER_CONTEXT@@PEBU_s_FuncInfo@@0@Z 000000014007a7bc f   libvcruntime:risctrnsctrl.obj
 0001:000798a4       ?GetEstablisherFrame@__FrameHandler4@@SAPEA_KPEA_KPEAU_xDISPATCHER_CONTEXT@@PEAUFuncInfo4@FH4@@0@Z 000000014007a8a4 f   libvcruntime:risctrnsctrl.obj
 0001:000798c8       ?GetRangeOfTrysToCheck@__FrameHandler3@@SA?AU?$pair@Viterator@TryBlockMap@__FrameHandler3@@V123@@std@@AEAVTryBlockMap@1@HPEAU_xDISPATCHER_CONTEXT@@PEBU_s_FuncInfo@@H@Z 000000014007a8c8 f   libvcruntime:risctrnsctrl.obj
 0001:00079a00       ?GetRangeOfTrysToCheck@__FrameHandler4@@SA?AU?$pair@Viterator@TryBlockMap4@FH4@@V123@@std@@AEAVTryBlockMap4@FH4@@HPEAU_xDISPATCHER_CONTEXT@@PEAUFuncInfo4@5@H@Z 000000014007aa00 f   libvcruntime:risctrnsctrl.obj
 0001:00079b80       ?UnwindNestedFrames@__FrameHandler3@@SAXPEA_KPEAUEHExceptionRecord@@PEAU_CONTEXT@@0PEAXPEBU_s_FuncInfo@@HHPEBU_s_HandlerType@@PEAU_xDISPATCHER_CONTEXT@@E@Z 000000014007ab80 f   libvcruntime:risctrnsctrl.obj
 0001:00079c84       ?UnwindNestedFrames@__FrameHandler4@@SAXPEA_KPEAUEHExceptionRecord@@PEAU_CONTEXT@@0PEAXPEAUFuncInfo4@FH4@@HHPEAUHandlerType4@5@PEAU_xDISPATCHER_CONTEXT@@E@Z 000000014007ac84 f   libvcruntime:risctrnsctrl.obj
 0001:00079da4       ?setBuffer@TryBlockMap4@FH4@@QEAAXViterator@12@@Z 000000014007ada4 f i libvcruntime:risctrnsctrl.obj
 0001:00079f90       _CreateFrameInfo           000000014007af90 f   libvcruntime:risctrnsctrl.obj
 0001:00079fcc       _FindAndUnlinkFrame        000000014007afcc f   libvcruntime:risctrnsctrl.obj
 0001:0007a020       _GetImageBase              000000014007b020 f   libvcruntime:risctrnsctrl.obj
 0001:0007a034       _GetThrowImageBase         000000014007b034 f   libvcruntime:risctrnsctrl.obj
 0001:0007a048       _SetImageBase              000000014007b048 f   libvcruntime:risctrnsctrl.obj
 0001:0007a060       _SetThrowImageBase         000000014007b060 f   libvcruntime:risctrnsctrl.obj
 0001:0007a078       __CxxFrameHandler3         000000014007b078 f   libvcruntime:risctrnsctrl.obj
 0001:0007a100       __CxxFrameHandler4         000000014007b100 f   libvcruntime:risctrnsctrl.obj
 0001:0007a1d0       strstr                     000000014007b1d0 f   libvcruntime:strstr.obj
 0001:0007a3c4       __C_specific_handler       000000014007b3c4 f   libvcruntime:riscchandler.obj
 0001:0007a5dc       __vcrt_initialize          000000014007b5dc f   libvcruntime:initialization.obj
 0001:0007a604       __vcrt_uninitialize        000000014007b604 f   libvcruntime:initialization.obj
 0001:0007a620       __std_type_info_compare    000000014007b620 f   libvcruntime:std_type_info.obj
 0001:0007a638       __vcrt_freefls             000000014007b638 f   libvcruntime:per_thread_data.obj
 0001:0007a658       __vcrt_getptd              000000014007b658 f   libvcruntime:per_thread_data.obj
 0001:0007a674       __vcrt_getptd_noexit       000000014007b674 f   libvcruntime:per_thread_data.obj
 0001:0007a740       __vcrt_initialize_ptd      000000014007b740 f   libvcruntime:per_thread_data.obj
 0001:0007a788       __vcrt_uninitialize_ptd    000000014007b788 f   libvcruntime:per_thread_data.obj
 0001:0007a7b0       ?GetCurrentState@__FrameHandler3@@SAHPEA_KPEAU_xDISPATCHER_CONTEXT@@PEBU_s_FuncInfo@@@Z 000000014007b7b0 f   libvcruntime:ehstate.obj
 0001:0007a7d8       ?GetUnwindTryBlock@__FrameHandler3@@SAHPEA_KPEAU_xDISPATCHER_CONTEXT@@PEBU_s_FuncInfo@@@Z 000000014007b7d8 f   libvcruntime:ehstate.obj
 0001:0007a804       ?SetState@__FrameHandler3@@SAXPEA_KPEBU_s_FuncInfo@@H@Z 000000014007b804 f   libvcruntime:ehstate.obj
 0001:0007a810       ?SetUnwindTryBlock@__FrameHandler3@@SAXPEA_KPEAU_xDISPATCHER_CONTEXT@@PEBU_s_FuncInfo@@H@Z 000000014007b810 f   libvcruntime:ehstate.obj
 0001:0007a84c       ?StateFromControlPc@__FrameHandler3@@SAHPEBU_s_FuncInfo@@PEAU_xDISPATCHER_CONTEXT@@@Z 000000014007b84c f   libvcruntime:ehstate.obj
 0001:0007a854       ?StateFromControlPc@__FrameHandler4@@SAHPEAUFuncInfo4@FH4@@PEAU_xDISPATCHER_CONTEXT@@@Z 000000014007b854 f   libvcruntime:ehstate.obj
 0001:0007a85c       ?StateFromIp@__FrameHandler3@@SAHPEBU_s_FuncInfo@@PEAU_xDISPATCHER_CONTEXT@@_K@Z 000000014007b85c f   libvcruntime:ehstate.obj
 0001:0007a8c4       ?StateFromIp@__FrameHandler4@@SAHPEAUFuncInfo4@FH4@@PEAU_xDISPATCHER_CONTEXT@@_K@Z 000000014007b8c4 f   libvcruntime:ehstate.obj
 0001:0007c068       ??$TypeMatchHelper@V__FrameHandler3@@@@YAHPEBU_s_HandlerType@@PEBU_s_CatchableType@@PEBU_s_ThrowInfo@@@Z 000000014007d068 f i libvcruntime:frame.obj
 0001:0007c188       ??$TypeMatchHelper@V__FrameHandler4@@@@YAHPEAUHandlerType4@FH4@@PEBU_s_CatchableType@@PEBU_s_ThrowInfo@@@Z 000000014007d188 f i libvcruntime:frame.obj
 0001:0007c2c8       ??$__InternalCxxFrameHandler@V__FrameHandler3@@@@YA?AW4_EXCEPTION_DISPOSITION@@PEAUEHExceptionRecord@@PEA_KPEAU_CONTEXT@@PEAU_xDISPATCHER_CONTEXT@@PEBU_s_FuncInfo@@H1E@Z 000000014007d2c8 f i libvcruntime:frame.obj
 0001:0007c4f8       ??$__InternalCxxFrameHandler@V__FrameHandler4@@@@YA?AW4_EXCEPTION_DISPOSITION@@PEAUEHExceptionRecord@@PEA_KPEAU_CONTEXT@@PEAU_xDISPATCHER_CONTEXT@@PEAUFuncInfo4@FH4@@H1E@Z 000000014007d4f8 f i libvcruntime:frame.obj
 0001:0007c7a0       ??$__InternalCxxFrameHandlerWrapper@V__FrameHandler3@@@@YA?AW4_EXCEPTION_DISPOSITION@@PEAUEHExceptionRecord@@PEA_KPEAU_CONTEXT@@PEAU_xDISPATCHER_CONTEXT@@PEBU_s_FuncInfo@@H1E@Z 000000014007d7a0 f i libvcruntime:frame.obj
 0001:0007c7a8       ??$__InternalCxxFrameHandlerWrapper@V__FrameHandler4@@@@YA?AW4_EXCEPTION_DISPOSITION@@PEAUEHExceptionRecord@@PEA_KPEAU_CONTEXT@@PEAU_xDISPATCHER_CONTEXT@@PEAUFuncInfo4@FH4@@H1E@Z 000000014007d7a8 f i libvcruntime:frame.obj
 0001:0007c7f4       ??0HandlerMap4@FH4@@QEAA@PEBUTryBlockMapEntry4@1@_KH@Z 000000014007d7f4 f i libvcruntime:frame.obj
 0001:0007c878       ??0TryBlockMap4@FH4@@QEAA@PEBUFuncInfo4@1@_K@Z 000000014007d878 f i libvcruntime:frame.obj
 0001:0007c95c       ??0bad_exception@std@@QEAA@AEBV01@@Z 000000014007d95c f i libvcruntime:frame.obj
 0001:0007c998       ??0bad_exception@std@@QEAA@XZ 000000014007d998 f i libvcruntime:frame.obj
 0001:0007c9bc       ??1bad_exception@std@@UEAA@XZ 000000014007d9bc f i libvcruntime:frame.obj
 0001:0007c9d0       ??_Ebad_exception@std@@UEAAPEAXI@Z 000000014007d9d0 f i libvcruntime:frame.obj
 0001:0007c9d0       ??_Gbad_exception@std@@UEAAPEAXI@Z 000000014007d9d0 f i libvcruntime:frame.obj
 0001:0007ca14       ?CxxCallCatchBlock@__FrameHandler3@@SAPEAXPEAU_EXCEPTION_RECORD@@@Z 000000014007da14 f   libvcruntime:frame.obj
 0001:0007cc00       ?CxxCallCatchBlock@__FrameHandler4@@SAPEAXPEAU_EXCEPTION_RECORD@@@Z 000000014007dc00 f   libvcruntime:frame.obj
 0001:0007ce40       ?DecompHandler@HandlerMap4@FH4@@AEAAXXZ 000000014007de40 f i libvcruntime:frame.obj
 0001:0007d090       ?FrameUnwindToState@__FrameHandler3@@SAXPEA_KPEAU_xDISPATCHER_CONTEXT@@PEBU_s_FuncInfo@@H@Z 000000014007e090 f   libvcruntime:frame.obj
 0001:0007d21c       ?FrameUnwindToState@__FrameHandler4@@SAXPEA_KPEAU_xDISPATCHER_CONTEXT@@PEAUFuncInfo4@FH4@@H@Z 000000014007e21c f   libvcruntime:frame.obj
 0001:0007d528       ?GetHandlerSearchState@__FrameHandler3@@SAHPEA_KPEAU_xDISPATCHER_CONTEXT@@PEBU_s_FuncInfo@@@Z 000000014007e528 f i libvcruntime:frame.obj
 0001:0007d730       ?ReadEntry@UWMap4@FH4@@AEAAXPEAPEAE@Z 000000014007e730 f i libvcruntime:frame.obj
 0001:0007d7d0       ?_CallMemberFunction1@@YAXQEAX00@Z 000000014007e7d0 f i libvcruntime:frame.obj
 0001:0007d7dc       ?_CallMemberFunction2@@YAXQEAX00H@Z 000000014007e7dc f i libvcruntime:frame.obj
 0001:0007d7ec       ?getStartStop@UWMap4@FH4@@QEAAXHHAEAViterator@12@0@Z 000000014007e7ec f i libvcruntime:frame.obj
 0001:0007d8bc       ?getStateFromIterators@UWMap4@FH4@@SAHAEBViterator@12@H0H0@Z 000000014007e8bc f i libvcruntime:frame.obj
 0001:0007d9a0       _NLG_Notify                000000014007e9a0 f   libvcruntime:notify.obj
 0001:0007d9c0       __NLG_Dispatch2            000000014007e9c0 f   libvcruntime:notify.obj
 0001:0007d9d0       __NLG_Return2              000000014007e9d0 f   libvcruntime:notify.obj
 0001:0007d9d4       __except_validate_context_record 000000014007e9d4 f   libvcruntime:jbcxrval.obj
 0001:0007da0c       __vcrt_initialize_locks    000000014007ea0c f   libvcruntime:locks.obj
 0001:0007da54       __vcrt_uninitialize_locks  000000014007ea54 f   libvcruntime:locks.obj
 0001:0007dbdc       __vcrt_FlsAlloc            000000014007ebdc f   libvcruntime:winapi_downlevel.obj
 0001:0007dc24       __vcrt_FlsFree             000000014007ec24 f   libvcruntime:winapi_downlevel.obj
 0001:0007dc6c       __vcrt_FlsGetValue         000000014007ec6c f   libvcruntime:winapi_downlevel.obj
 0001:0007dcb4       __vcrt_FlsSetValue         000000014007ecb4 f   libvcruntime:winapi_downlevel.obj
 0001:0007dd08       __vcrt_InitializeCriticalSectionEx 000000014007ed08 f   libvcruntime:winapi_downlevel.obj
 0001:0007ddb0       _CallSettingFrame          000000014007edb0 f   libvcruntime:handlers.obj
 0001:0007ddf0       _CallSettingFrame_LookupContinuationIndex 000000014007edf0 f   libvcruntime:handlers.obj
 0001:0007de20       _CallSettingFrame_NotifyContinuationAddr 000000014007ee20 f   libvcruntime:handlers.obj
 0001:0007de50       _CallSettingFrameEncoded   000000014007ee50 f   libvcruntime:handlers.obj
 0001:0007de98       ?get_raw_ptd@__crt_cached_ptd_host@@QEAAPEAU__acrt_ptd@@XZ 000000014007ee98 f i libucrt:invalid_parameter.obj
 0001:0007df00       ?get_raw_ptd_noexit@__crt_cached_ptd_host@@QEAAPEAU__acrt_ptd@@XZ 000000014007ef00 f i libucrt:invalid_parameter.obj
 0001:0007df6c       ?value@?$dual_state_global@P6AXPEB_W00I_K@Z@__crt_state_management@@QEAAAEAP6AXPEB_W00I_K@ZAEAV__crt_cached_ptd_host@@@Z 000000014007ef6c f i libucrt:invalid_parameter.obj
 0001:0007dfb8       __acrt_call_reportfault    000000014007efb8 f   libucrt:invalid_parameter.obj
 0001:0007e128       __acrt_initialize_invalid_parameter_handler 000000014007f128 f   libucrt:invalid_parameter.obj
 0001:0007e130       _invalid_parameter         000000014007f130 f   libucrt:invalid_parameter.obj
 0001:0007e1cc       _invalid_parameter_internal 000000014007f1cc f   libucrt:invalid_parameter.obj
 0001:0007e284       _invalid_parameter_noinfo  000000014007f284 f   libucrt:invalid_parameter.obj
 0001:0007e2a4       _invoke_watson             000000014007f2a4 f   libucrt:invalid_parameter.obj
 0001:0007e2ec       ??0_LocaleUpdate@@QEAA@QEAU__crt_locale_pointers@@@Z 000000014007f2ec f i libucrt:towlower.obj
 0001:0007e388       _towlower_l                000000014007f388 f   libucrt:towlower.obj
 0001:0007e484       towlower                   000000014007f484 f   libucrt:towlower.obj
 0001:0007e490       wcscpy_s                   000000014007f490 f   libucrt:wcscpy_s.obj
 0001:0007e550       __ascii_wcsicmp            000000014007f550 f   libucrt:wcsicmp.obj
 0001:0007e5b0       _wcsicmp                   000000014007f5b0 f   libucrt:wcsicmp.obj
 0001:0007e5e0       _wcsicmp_l                 000000014007f5e0 f   libucrt:wcsicmp.obj
 0001:0007e7b0       strncpy_s                  000000014007f7b0 f   libucrt:strncpy_s.obj
 0001:0007e910       _stricmp                   000000014007f910 f   libucrt:stricmp.obj
 0001:0007e980       _stricmp_l                 000000014007f980 f   libucrt:stricmp.obj
 0001:0007eaa0       strnlen                    000000014007faa0 f   libucrt:strnlen.obj
 0001:0007ec30       wcslen                     000000014007fc30 f   libucrt:strnlen.obj
 0001:0007ed80       wcsnlen                    000000014007fd80 f   libucrt:strnlen.obj
 0001:0007ef90       calloc                     000000014007ff90 f   libucrt:calloc.obj
 0001:0007efa0       free                       000000014007ffa0 f   libucrt:free.obj
 0001:0007efa8       rand                       000000014007ffa8 f   libucrt:rand.obj
 0001:0007efd4       srand                      000000014007ffd4 f   libucrt:rand.obj
 0001:0007efec       ??$is_overflow_condition@_K@__crt_strtox@@YA_NI_K@Z 000000014007ffec f i libucrt:atox.obj
 0001:0007f024       ??$parse_integer@KV?$c_string_character_source@D@__crt_strtox@@$00@__crt_strtox@@YAKAEAV__crt_cached_ptd_host@@V?$c_string_character_source@D@0@H_N@Z 0000000140080024 f i libucrt:atox.obj
 0001:0007f300       ??$parse_integer@KV?$c_string_character_source@_W@__crt_strtox@@$00@__crt_strtox@@YAKAEAV__crt_cached_ptd_host@@V?$c_string_character_source@_W@0@H_N@Z 0000000140080300 f i libucrt:atox.obj
 0001:0007fa9c       ??$parse_integer@_KV?$c_string_character_source@D@__crt_strtox@@$00@__crt_strtox@@YA_KAEAV__crt_cached_ptd_host@@V?$c_string_character_source@D@0@H_N@Z 0000000140080a9c f i libucrt:atox.obj
 0001:0007fd80       ?update_locale_slow@__crt_cached_ptd_host@@AEAAXXZ 0000000140080d80 f i libucrt:atox.obj
 0001:0007fdf8       _ischartype_l              0000000140080df8 f i libucrt:atox.obj
 0001:0007fe70       _wtol                      0000000140080e70 f   libucrt:atox.obj
 0001:0007ff20       atoi                       0000000140080f20 f   libucrt:atox.obj
 0001:000801c8       ??$ensure_buffer_is_big_enough@D@formatting_buffer@__crt_stdio_output@@QEAA_N_KAEAV__crt_cached_ptd_host@@@Z 00000001400811c8 f i libucrt:output.obj
 0001:00080270       ??$ensure_buffer_is_big_enough@_W@formatting_buffer@__crt_stdio_output@@QEAA_N_KAEAV__crt_cached_ptd_host@@@Z 0000000140081270 f i libucrt:output.obj
 0001:0008031c       ??$is_wide_character_specifier@_W@__crt_stdio_output@@YA_N_K_WW4length_modifier@0@@Z 000000014008131c f i libucrt:output.obj
 0001:0008035c       ??$parse_integer@KV?$c_string_character_source@D@__crt_strtox@@$0A@@__crt_strtox@@YAKAEAV__crt_cached_ptd_host@@V?$c_string_character_source@D@0@H_N@Z 000000014008135c f i libucrt:output.obj
 0001:00080610       ??$parse_integer@KV?$c_string_character_source@_W@__crt_strtox@@$0A@@__crt_strtox@@YAKAEAV__crt_cached_ptd_host@@V?$c_string_character_source@_W@0@H_N@Z 0000000140081610 f i libucrt:output.obj
 0001:00080d7c       ??$type_case_integer@$07@?$output_processor@DV?$stream_output_adapter@D@__crt_stdio_output@@V?$standard_base@DV?$stream_output_adapter@D@__crt_stdio_output@@@2@@__crt_stdio_output@@AEAA_N_N@Z 0000000140081d7c f i libucrt:output.obj
 0001:00080f80       ??$type_case_integer@$07@?$output_processor@DV?$string_output_adapter@D@__crt_stdio_output@@V?$standard_base@DV?$string_output_adapter@D@__crt_stdio_output@@@2@@__crt_stdio_output@@AEAA_N_N@Z 0000000140081f80 f i libucrt:output.obj
 0001:00081184       ??$type_case_integer@$07@?$output_processor@_WV?$string_output_adapter@_W@__crt_stdio_output@@V?$format_validation_base@_WV?$string_output_adapter@_W@__crt_stdio_output@@@2@@__crt_stdio_output@@AEAA_N_N@Z 0000000140082184 f i libucrt:output.obj
 0001:00081390       ??$type_case_integer@$09@?$output_processor@DV?$stream_output_adapter@D@__crt_stdio_output@@V?$standard_base@DV?$stream_output_adapter@D@__crt_stdio_output@@@2@@__crt_stdio_output@@AEAA_N_N@Z 0000000140082390 f i libucrt:output.obj
 0001:00081594       ??$type_case_integer@$09@?$output_processor@DV?$string_output_adapter@D@__crt_stdio_output@@V?$standard_base@DV?$string_output_adapter@D@__crt_stdio_output@@@2@@__crt_stdio_output@@AEAA_N_N@Z 0000000140082594 f i libucrt:output.obj
 0001:00081798       ??$type_case_integer@$09@?$output_processor@_WV?$string_output_adapter@_W@__crt_stdio_output@@V?$format_validation_base@_WV?$string_output_adapter@_W@__crt_stdio_output@@@2@@__crt_stdio_output@@AEAA_N_N@Z 0000000140082798 f i libucrt:output.obj
 0001:000819a4       ??$type_case_integer@$0BA@@?$output_processor@DV?$stream_output_adapter@D@__crt_stdio_output@@V?$standard_base@DV?$stream_output_adapter@D@__crt_stdio_output@@@2@@__crt_stdio_output@@AEAA_N_N@Z 00000001400829a4 f i libucrt:output.obj
 0001:00081ba8       ??$type_case_integer@$0BA@@?$output_processor@DV?$string_output_adapter@D@__crt_stdio_output@@V?$standard_base@DV?$string_output_adapter@D@__crt_stdio_output@@@2@@__crt_stdio_output@@AEAA_N_N@Z 0000000140082ba8 f i libucrt:output.obj
 0001:00081dac       ??$type_case_integer@$0BA@@?$output_processor@_WV?$string_output_adapter@_W@__crt_stdio_output@@V?$format_validation_base@_WV?$string_output_adapter@_W@__crt_stdio_output@@@2@@__crt_stdio_output@@AEAA_N_N@Z 0000000140082dac f i libucrt:output.obj
 0001:00081fb8       ??$type_case_integer_parse_into_buffer@I$07@?$output_processor@DV?$stream_output_adapter@D@__crt_stdio_output@@V?$standard_base@DV?$stream_output_adapter@D@__crt_stdio_output@@@2@@__crt_stdio_output@@AEAAXI_N@Z 0000000140082fb8 f i libucrt:output.obj
 0001:00082028       ??$type_case_integer_parse_into_buffer@I$07@?$output_processor@DV?$string_output_adapter@D@__crt_stdio_output@@V?$standard_base@DV?$string_output_adapter@D@__crt_stdio_output@@@2@@__crt_stdio_output@@AEAAXI_N@Z 0000000140083028 f i libucrt:output.obj
 0001:00082098       ??$type_case_integer_parse_into_buffer@I$07@?$output_processor@_WV?$string_output_adapter@_W@__crt_stdio_output@@V?$format_validation_base@_WV?$string_output_adapter@_W@__crt_stdio_output@@@2@@__crt_stdio_output@@AEAAXI_N@Z 0000000140083098 f i libucrt:output.obj
 0001:0008211c       ??$type_case_integer_parse_into_buffer@I$09@?$output_processor@DV?$stream_output_adapter@D@__crt_stdio_output@@V?$standard_base@DV?$stream_output_adapter@D@__crt_stdio_output@@@2@@__crt_stdio_output@@AEAAXI_N@Z 000000014008311c f i libucrt:output.obj
 0001:000821c8       ??$type_case_integer_parse_into_buffer@I$09@?$output_processor@DV?$string_output_adapter@D@__crt_stdio_output@@V?$standard_base@DV?$string_output_adapter@D@__crt_stdio_output@@@2@@__crt_stdio_output@@AEAAXI_N@Z 00000001400831c8 f i libucrt:output.obj
 0001:00082274       ??$type_case_integer_parse_into_buffer@I$09@?$output_processor@_WV?$string_output_adapter@_W@__crt_stdio_output@@V?$format_validation_base@_WV?$string_output_adapter@_W@__crt_stdio_output@@@2@@__crt_stdio_output@@AEAAXI_N@Z 0000000140083274 f i libucrt:output.obj
 0001:00082334       ??$type_case_integer_parse_into_buffer@I$0BA@@?$output_processor@DV?$stream_output_adapter@D@__crt_stdio_output@@V?$standard_base@DV?$stream_output_adapter@D@__crt_stdio_output@@@2@@__crt_stdio_output@@AEAAXI_N@Z 0000000140083334 f i libucrt:output.obj
 0001:000823b8       ??$type_case_integer_parse_into_buffer@I$0BA@@?$output_processor@DV?$string_output_adapter@D@__crt_stdio_output@@V?$standard_base@DV?$string_output_adapter@D@__crt_stdio_output@@@2@@__crt_stdio_output@@AEAAXI_N@Z 00000001400833b8 f i libucrt:output.obj
 0001:0008243c       ??$type_case_integer_parse_into_buffer@I$0BA@@?$output_processor@_WV?$string_output_adapter@_W@__crt_stdio_output@@V?$format_validation_base@_WV?$string_output_adapter@_W@__crt_stdio_output@@@2@@__crt_stdio_output@@AEAAXI_N@Z 000000014008343c f i libucrt:output.obj
 0001:000824dc       ??$type_case_integer_parse_into_buffer@_K$07@?$output_processor@DV?$stream_output_adapter@D@__crt_stdio_output@@V?$standard_base@DV?$stream_output_adapter@D@__crt_stdio_output@@@2@@__crt_stdio_output@@AEAAX_K_N@Z 00000001400834dc f i libucrt:output.obj
 0001:0008254c       ??$type_case_integer_parse_into_buffer@_K$07@?$output_processor@DV?$string_output_adapter@D@__crt_stdio_output@@V?$standard_base@DV?$string_output_adapter@D@__crt_stdio_output@@@2@@__crt_stdio_output@@AEAAX_K_N@Z 000000014008354c f i libucrt:output.obj
 0001:000825bc       ??$type_case_integer_parse_into_buffer@_K$07@?$output_processor@_WV?$string_output_adapter@_W@__crt_stdio_output@@V?$format_validation_base@_WV?$string_output_adapter@_W@__crt_stdio_output@@@2@@__crt_stdio_output@@AEAAX_K_N@Z 00000001400835bc f i libucrt:output.obj
 0001:00082644       ??$type_case_integer_parse_into_buffer@_K$09@?$output_processor@DV?$stream_output_adapter@D@__crt_stdio_output@@V?$standard_base@DV?$stream_output_adapter@D@__crt_stdio_output@@@2@@__crt_stdio_output@@AEAAX_K_N@Z 0000000140083644 f i libucrt:output.obj
 0001:000826f4       ??$type_case_integer_parse_into_buffer@_K$09@?$output_processor@DV?$string_output_adapter@D@__crt_stdio_output@@V?$standard_base@DV?$string_output_adapter@D@__crt_stdio_output@@@2@@__crt_stdio_output@@AEAAX_K_N@Z 00000001400836f4 f i libucrt:output.obj
 0001:000827a4       ??$type_case_integer_parse_into_buffer@_K$09@?$output_processor@_WV?$string_output_adapter@_W@__crt_stdio_output@@V?$format_validation_base@_WV?$string_output_adapter@_W@__crt_stdio_output@@@2@@__crt_stdio_output@@AEAAX_K_N@Z 00000001400837a4 f i libucrt:output.obj
 0001:00082868       ??$type_case_integer_parse_into_buffer@_K$0BA@@?$output_processor@DV?$stream_output_adapter@D@__crt_stdio_output@@V?$standard_base@DV?$stream_output_adapter@D@__crt_stdio_output@@@2@@__crt_stdio_output@@AEAAX_K_N@Z 0000000140083868 f i libucrt:output.obj
 0001:000828ec       ??$type_case_integer_parse_into_buffer@_K$0BA@@?$output_processor@DV?$string_output_adapter@D@__crt_stdio_output@@V?$standard_base@DV?$string_output_adapter@D@__crt_stdio_output@@@2@@__crt_stdio_output@@AEAAX_K_N@Z 00000001400838ec f i libucrt:output.obj
 0001:00082970       ??$type_case_integer_parse_into_buffer@_K$0BA@@?$output_processor@_WV?$string_output_adapter@_W@__crt_stdio_output@@V?$format_validation_base@_WV?$string_output_adapter@_W@__crt_stdio_output@@@2@@__crt_stdio_output@@AEAAX_K_N@Z 0000000140083970 f i libucrt:output.obj
 0001:00082b2c       ?crop_zeroes@__crt_stdio_output@@YAXPEADQEAU__crt_locale_pointers@@@Z 0000000140083b2c f i libucrt:output.obj
 0001:00082b98       ?parse_int_from_format_string@?$output_processor@DV?$stream_output_adapter@D@__crt_stdio_output@@V?$standard_base@DV?$stream_output_adapter@D@__crt_stdio_output@@@2@@__crt_stdio_output@@AEAA_NQEAH@Z 0000000140083b98 f i libucrt:output.obj
 0001:00082c28       ?parse_int_from_format_string@?$output_processor@DV?$string_output_adapter@D@__crt_stdio_output@@V?$standard_base@DV?$string_output_adapter@D@__crt_stdio_output@@@2@@__crt_stdio_output@@AEAA_NQEAH@Z 0000000140083c28 f i libucrt:output.obj
 0001:00082cb8       ?parse_int_from_format_string@?$output_processor@_WV?$string_output_adapter@_W@__crt_stdio_output@@V?$format_validation_base@_WV?$string_output_adapter@_W@__crt_stdio_output@@@2@@__crt_stdio_output@@AEAA_NQEAH@Z 0000000140083cb8 f i libucrt:output.obj
 0001:00082d48       ?process@?$output_processor@DV?$stream_output_adapter@D@__crt_stdio_output@@V?$standard_base@DV?$stream_output_adapter@D@__crt_stdio_output@@@2@@__crt_stdio_output@@QEAAHXZ 0000000140083d48 f i libucrt:output.obj
 0001:000830cc       ?process@?$output_processor@DV?$string_output_adapter@D@__crt_stdio_output@@V?$standard_base@DV?$string_output_adapter@D@__crt_stdio_output@@@2@@__crt_stdio_output@@QEAAHXZ 00000001400840cc f i libucrt:output.obj
 0001:0008343c       ?process@?$output_processor@_WV?$string_output_adapter@_W@__crt_stdio_output@@V?$format_validation_base@_WV?$string_output_adapter@_W@__crt_stdio_output@@@2@@__crt_stdio_output@@QEAAHXZ 000000014008443c f i libucrt:output.obj
 0001:000836f8       ?state_case_size@?$output_processor@DV?$stream_output_adapter@D@__crt_stdio_output@@V?$standard_base@DV?$stream_output_adapter@D@__crt_stdio_output@@@2@@__crt_stdio_output@@AEAA_NXZ 00000001400846f8 f i libucrt:output.obj
 0001:00083880       ?state_case_size@?$output_processor@DV?$string_output_adapter@D@__crt_stdio_output@@V?$standard_base@DV?$string_output_adapter@D@__crt_stdio_output@@@2@@__crt_stdio_output@@AEAA_NXZ 0000000140084880 f i libucrt:output.obj
 0001:00083a08       ?state_case_size@?$output_processor@_WV?$string_output_adapter@_W@__crt_stdio_output@@V?$format_validation_base@_WV?$string_output_adapter@_W@__crt_stdio_output@@@2@@__crt_stdio_output@@AEAA_NXZ 0000000140084a08 f i libucrt:output.obj
 0001:00083bb8       ?state_case_type@?$output_processor@DV?$stream_output_adapter@D@__crt_stdio_output@@V?$standard_base@DV?$stream_output_adapter@D@__crt_stdio_output@@@2@@__crt_stdio_output@@AEAA_NXZ 0000000140084bb8 f i libucrt:output.obj
 0001:000840f0       ?state_case_type@?$output_processor@DV?$string_output_adapter@D@__crt_stdio_output@@V?$standard_base@DV?$string_output_adapter@D@__crt_stdio_output@@@2@@__crt_stdio_output@@AEAA_NXZ 00000001400850f0 f i libucrt:output.obj
 0001:00084560       ?state_case_type@?$output_processor@_WV?$string_output_adapter@_W@__crt_stdio_output@@V?$format_validation_base@_WV?$string_output_adapter@_W@__crt_stdio_output@@@2@@__crt_stdio_output@@AEAA_NXZ 0000000140085560 f i libucrt:output.obj
 0001:00084ad8       ?type_case_Z@?$output_processor@DV?$stream_output_adapter@D@__crt_stdio_output@@V?$standard_base@DV?$stream_output_adapter@D@__crt_stdio_output@@@2@@__crt_stdio_output@@AEAA_NXZ 0000000140085ad8 f i libucrt:output.obj
 0001:00084b54       ?type_case_Z@?$output_processor@DV?$string_output_adapter@D@__crt_stdio_output@@V?$standard_base@DV?$string_output_adapter@D@__crt_stdio_output@@@2@@__crt_stdio_output@@AEAA_NXZ 0000000140085b54 f i libucrt:output.obj
 0001:00084bd0       ?type_case_Z@?$output_processor@_WV?$string_output_adapter@_W@__crt_stdio_output@@V?$format_validation_base@_WV?$string_output_adapter@_W@__crt_stdio_output@@@2@@__crt_stdio_output@@AEAA_NXZ 0000000140085bd0 f i libucrt:output.obj
 0001:00084c44       ?type_case_a@?$output_processor@DV?$stream_output_adapter@D@__crt_stdio_output@@V?$standard_base@DV?$stream_output_adapter@D@__crt_stdio_output@@@2@@__crt_stdio_output@@AEAA_NXZ 0000000140085c44 f i libucrt:output.obj
 0001:00084ea0       ?type_case_a@?$output_processor@DV?$string_output_adapter@D@__crt_stdio_output@@V?$standard_base@DV?$string_output_adapter@D@__crt_stdio_output@@@2@@__crt_stdio_output@@AEAA_NXZ 0000000140085ea0 f i libucrt:output.obj
 0001:000850fc       ?type_case_a@?$output_processor@_WV?$string_output_adapter@_W@__crt_stdio_output@@V?$format_validation_base@_WV?$string_output_adapter@_W@__crt_stdio_output@@@2@@__crt_stdio_output@@AEAA_NXZ 00000001400860fc f i libucrt:output.obj
 0001:00085378       ?type_case_c_tchar@?$output_processor@DV?$stream_output_adapter@D@__crt_stdio_output@@V?$standard_base@DV?$stream_output_adapter@D@__crt_stdio_output@@@2@@__crt_stdio_output@@AEAA_ND@Z 0000000140086378 f i libucrt:output.obj
 0001:0008544c       ?type_case_c_tchar@?$output_processor@DV?$string_output_adapter@D@__crt_stdio_output@@V?$standard_base@DV?$string_output_adapter@D@__crt_stdio_output@@@2@@__crt_stdio_output@@AEAA_ND@Z 000000014008644c f i libucrt:output.obj
 0001:00085520       ?type_case_c_tchar@?$output_processor@_WV?$string_output_adapter@_W@__crt_stdio_output@@V?$format_validation_base@_WV?$string_output_adapter@_W@__crt_stdio_output@@@2@@__crt_stdio_output@@AEAA_N_W@Z 0000000140086520 f i libucrt:output.obj
 0001:000855e4       ?type_case_n@?$output_processor@DV?$stream_output_adapter@D@__crt_stdio_output@@V?$standard_base@DV?$stream_output_adapter@D@__crt_stdio_output@@@2@@__crt_stdio_output@@AEAA_NXZ 00000001400865e4 f i libucrt:output.obj
 0001:0008569c       ?type_case_n@?$output_processor@DV?$string_output_adapter@D@__crt_stdio_output@@V?$standard_base@DV?$string_output_adapter@D@__crt_stdio_output@@@2@@__crt_stdio_output@@AEAA_NXZ 000000014008669c f i libucrt:output.obj
 0001:00085754       ?type_case_n@?$output_processor@_WV?$string_output_adapter@_W@__crt_stdio_output@@V?$format_validation_base@_WV?$string_output_adapter@_W@__crt_stdio_output@@@2@@__crt_stdio_output@@AEAA_NXZ 0000000140086754 f i libucrt:output.obj
 0001:0008580c       ?type_case_s@?$output_processor@DV?$stream_output_adapter@D@__crt_stdio_output@@V?$standard_base@DV?$stream_output_adapter@D@__crt_stdio_output@@@2@@__crt_stdio_output@@AEAA_NXZ 000000014008680c f i libucrt:output.obj
 0001:000858a8       ?type_case_s@?$output_processor@DV?$string_output_adapter@D@__crt_stdio_output@@V?$standard_base@DV?$string_output_adapter@D@__crt_stdio_output@@@2@@__crt_stdio_output@@AEAA_NXZ 00000001400868a8 f i libucrt:output.obj
 0001:00085944       ?type_case_s@?$output_processor@_WV?$string_output_adapter@_W@__crt_stdio_output@@V?$format_validation_base@_WV?$string_output_adapter@_W@__crt_stdio_output@@@2@@__crt_stdio_output@@AEAA_NXZ 0000000140086944 f i libucrt:output.obj
 0001:000859e0       ?type_case_s_compute_narrow_string_length@?$output_processor@_WV?$string_output_adapter@_W@__crt_stdio_output@@V?$format_validation_base@_WV?$string_output_adapter@_W@__crt_stdio_output@@@2@@__crt_stdio_output@@AEAAHH_W@Z 00000001400869e0 f i libucrt:output.obj
 0001:00085aa0       ?validate_stream_is_ansi_if_required@?$__acrt_stdio_char_traits@D@@SA_NQEAU_iobuf@@@Z 0000000140086aa0 f i libucrt:output.obj
 0001:00085b3c       ?write_string@?$string_output_adapter@D@__crt_stdio_output@@QEBAXQEBDHQEAHAEAV__crt_cached_ptd_host@@@Z 0000000140086b3c f i libucrt:output.obj
 0001:00085be0       ?write_string@?$string_output_adapter@_W@__crt_stdio_output@@QEBAXQEB_WHQEAHAEAV__crt_cached_ptd_host@@@Z 0000000140086be0 f i libucrt:output.obj
 0001:00085c88       ?write_string_impl@?$output_adapter_common@DV?$stream_output_adapter@D@__crt_stdio_output@@@__crt_stdio_output@@IEBAXQEBDHQEAHAEAV__crt_cached_ptd_host@@@Z 0000000140086c88 f i libucrt:output.obj
 0001:00085d58       __stdio_common_vfprintf    0000000140086d58 f   libucrt:output.obj
 0001:00085e7c       __stdio_common_vsprintf    0000000140086e7c f   libucrt:output.obj
 0001:000860d0       __stdio_common_vswprintf_s 00000001400870d0 f   libucrt:output.obj
 0001:0008636c       _wfopen                    000000014008736c f   libucrt:fopen.obj
 0001:00086378       fopen_s                    0000000140087378 f   libucrt:fopen.obj
 0001:000864f4       fclose                     00000001400874f4 f   libucrt:fclose.obj
 0001:000867ac       __acrt_stdio_flush_nolock  00000001400877ac f   libucrt:fflush.obj
 0001:00086838       _fflush_nolock             0000000140087838 f   libucrt:fflush.obj
 0001:0008690c       _flushall                  000000014008790c f   libucrt:fflush.obj
 0001:00086914       fflush                     0000000140087914 f   libucrt:fflush.obj
 0001:0008697c       ??$parse_floating_point@V?$input_adapter_character_source@V?$string_input_adapter@D@__crt_stdio_input@@@__crt_strtox@@M@__crt_strtox@@YA?AW4SLD_STATUS@@QEAU__crt_locale_pointers@@V?$input_adapter_character_source@V?$string_input_adapter@D@__crt_stdio_input@@@0@QEAM@Z 000000014008797c f i libucrt:input.obj
 0001:00086a24       ??$parse_floating_point@V?$input_adapter_character_source@V?$string_input_adapter@D@__crt_stdio_input@@@__crt_strtox@@N@__crt_strtox@@YA?AW4SLD_STATUS@@QEAU__crt_locale_pointers@@V?$input_adapter_character_source@V?$string_input_adapter@D@__crt_stdio_input@@@0@QEAN@Z 0000000140087a24 f i libucrt:input.obj
 0001:00086acc       ??$parse_floating_point_from_source@V?$input_adapter_character_source@V?$string_input_adapter@D@__crt_stdio_input@@@__crt_strtox@@@__crt_strtox@@YA?AW4floating_point_parse_result@0@QEAU__crt_locale_pointers@@AEAV?$input_adapter_character_source@V?$string_input_adapter@D@__crt_stdio_input@@@0@AEAUfloating_point_string@0@@Z 0000000140087acc f i libucrt:input.obj
 0001:00087290       ??$parse_floating_point_possible_infinity@DV?$input_adapter_character_source@V?$string_input_adapter@D@__crt_stdio_input@@@__crt_strtox@@_K@__crt_strtox@@YA?AW4floating_point_parse_result@0@AEADAEAV?$input_adapter_character_source@V?$string_input_adapter@D@__crt_stdio_input@@@0@_K@Z 0000000140088290 f i libucrt:input.obj
 0001:00087440       ??$parse_floating_point_possible_nan@DV?$input_adapter_character_source@V?$string_input_adapter@D@__crt_stdio_input@@@__crt_strtox@@_K@__crt_strtox@@YA?AW4floating_point_parse_result@0@AEADAEAV?$input_adapter_character_source@V?$string_input_adapter@D@__crt_stdio_input@@@0@_K@Z 0000000140088440 f i libucrt:input.obj
 0001:000876a4       ??$parse_floating_point_possible_nan_is_ind@DV?$input_adapter_character_source@V?$string_input_adapter@D@__crt_stdio_input@@@__crt_strtox@@@__crt_strtox@@YA_NAEADAEAV?$input_adapter_character_source@V?$string_input_adapter@D@__crt_stdio_input@@@0@@Z 00000001400886a4 f i libucrt:input.obj
 0001:00087720       ??$parse_floating_point_possible_nan_is_snan@DV?$input_adapter_character_source@V?$string_input_adapter@D@__crt_stdio_input@@@__crt_strtox@@@__crt_strtox@@YA_NAEADAEAV?$input_adapter_character_source@V?$string_input_adapter@D@__crt_stdio_input@@@0@@Z 0000000140088720 f i libucrt:input.obj
 0001:0008779c       ??$parse_floating_point_write_result@M@__crt_strtox@@YA?AW4SLD_STATUS@@W4floating_point_parse_result@0@AEBUfloating_point_string@0@QEAM@Z 000000014008879c f i libucrt:input.obj
 0001:00087904       ??$parse_floating_point_write_result@N@__crt_strtox@@YA?AW4SLD_STATUS@@W4floating_point_parse_result@0@AEBUfloating_point_string@0@QEAN@Z 0000000140088904 f i libucrt:input.obj
 0001:00087adc       ??$parse_integer@_KV?$input_adapter_character_source@V?$string_input_adapter@D@__crt_stdio_input@@@__crt_strtox@@$00@__crt_strtox@@YA_KAEAV__crt_cached_ptd_host@@V?$input_adapter_character_source@V?$string_input_adapter@D@__crt_stdio_input@@@0@H_N@Z 0000000140088adc f i libucrt:input.obj
 0001:00087f10       ??$parse_integer@_KV?$input_adapter_character_source@V?$string_input_adapter@D@__crt_stdio_input@@@__crt_strtox@@@__crt_strtox@@YA_KQEAU__crt_locale_pointers@@V?$input_adapter_character_source@V?$string_input_adapter@D@__crt_stdio_input@@@0@H_N@Z 0000000140088f10 f i libucrt:input.obj
 0001:00088010       ??$process_floating_point_specifier_t@M@?$input_processor@DV?$string_input_adapter@D@__crt_stdio_input@@@__crt_stdio_input@@AEAA_NXZ 0000000140089010 f i libucrt:input.obj
 0001:000880b4       ??$process_floating_point_specifier_t@N@?$input_processor@DV?$string_input_adapter@D@__crt_stdio_input@@@__crt_stdio_input@@AEAA_NXZ 00000001400890b4 f i libucrt:input.obj
 0001:0008815c       ??$process_string_specifier_tchar@D@?$input_processor@DV?$string_input_adapter@D@__crt_stdio_input@@@__crt_stdio_input@@AEAA_NW4conversion_mode@1@D@Z 000000014008915c f i libucrt:input.obj
 0001:00088300       ??$process_string_specifier_tchar@_W@?$input_processor@DV?$string_input_adapter@D@__crt_stdio_input@@@__crt_stdio_input@@AEAA_NW4conversion_mode@1@_W@Z 0000000140089300 f i libucrt:input.obj
 0001:000884e0       ??$skip_whitespace@Vstring_input_adapter@__crt_stdio_input@@D@__crt_stdio_input@@YAHAEAV?$string_input_adapter@D@0@QEAU__crt_locale_pointers@@@Z 00000001400894e0 f i libucrt:input.obj
 0001:00088534       ??R<lambda_1db4d925c2db10274e92824f631ccf5d>@@QEBA@XZ 0000000140089534 f i libucrt:input.obj
 0001:00088598       ??R<lambda_bdd123a27a08a14f93fbf44b617d0736>@@QEBA@XZ 0000000140089598 f i libucrt:input.obj
 0001:000885fc       ??R<lambda_ee7c83d9f0cd4f1299194e0a8d424b67>@@QEBA@XZ 00000001400895fc f i libucrt:input.obj
 0001:00088660       ?advance@?$format_string_parser@D@__crt_stdio_input@@QEAA_NXZ 0000000140089660 f i libucrt:input.obj
 0001:00088828       ?as_double@floating_point_value@__crt_strtox@@QEBAAEANXZ 0000000140089828 f i libucrt:input.obj
 0001:00088864       ?as_float@floating_point_value@__crt_strtox@@QEBAAEAMXZ 0000000140089864 f i libucrt:input.obj
 0001:000888a0       ?assemble_floating_point_value@__crt_strtox@@YA?AW4SLD_STATUS@@_KH_N1AEBVfloating_point_value@1@@Z 00000001400898a0 f i libucrt:input.obj
 0001:00088c58       ?assemble_floating_point_value_from_big_integer@__crt_strtox@@YA?AW4SLD_STATUS@@AEBUbig_integer@1@I_N1AEBVfloating_point_value@1@@Z 0000000140089c58 f i libucrt:input.obj
 0001:00088db8       ?convert_decimal_string_to_floating_type_common@__crt_strtox@@YA?AW4SLD_STATUS@@AEBUfloating_point_string@1@AEBVfloating_point_value@1@@Z 0000000140089db8 f i libucrt:input.obj
 0001:0008aab8       ?convert_hexadecimal_string_to_floating_type_common@__crt_strtox@@YA?AW4SLD_STATUS@@AEBUfloating_point_string@1@AEBVfloating_point_value@1@@Z 000000014008bab8 f i libucrt:input.obj
 0001:0008ab70       ?divide@__crt_strtox@@YA_KAEAUbig_integer@1@AEBU21@@Z 000000014008bb70 f i libucrt:input.obj
 0001:0008affc       ?length@?$format_string_parser@D@__crt_stdio_input@@QEBA_KXZ 000000014008bffc f i libucrt:input.obj
 0001:0008b0b0       ?process@?$input_processor@DV?$string_input_adapter@D@__crt_stdio_input@@@__crt_stdio_input@@QEAAHXZ 000000014008c0b0 f i libucrt:input.obj
 0001:0008b1a4       ?process_conversion_specifier@?$input_processor@DV?$string_input_adapter@D@__crt_stdio_input@@@__crt_stdio_input@@AEAA_NXZ 000000014008c1a4 f i libucrt:input.obj
 0001:0008b2c4       ?process_floating_point_specifier@?$input_processor@DV?$string_input_adapter@D@__crt_stdio_input@@@__crt_stdio_input@@AEAA_NXZ 000000014008c2c4 f i libucrt:input.obj
 0001:0008b334       ?process_integer_specifier@?$input_processor@DV?$string_input_adapter@D@__crt_stdio_input@@@__crt_stdio_input@@AEAA_NI_N@Z 000000014008c334 f i libucrt:input.obj
 0001:0008b3ec       ?process_literal_character_tchar@?$input_processor@DV?$string_input_adapter@D@__crt_stdio_input@@@__crt_stdio_input@@AEAA_ND@Z 000000014008c3ec f i libucrt:input.obj
 0001:0008b474       ?process_state@?$input_processor@DV?$string_input_adapter@D@__crt_stdio_input@@@__crt_stdio_input@@AEAA_NXZ 000000014008c474 f i libucrt:input.obj
 0001:0008b52c       ?process_string_specifier@?$input_processor@DV?$string_input_adapter@D@__crt_stdio_input@@@__crt_stdio_input@@AEAA_NW4conversion_mode@2@@Z 000000014008c52c f i libucrt:input.obj
 0001:0008b5b8       ?scan_conversion_specifier@?$format_string_parser@D@__crt_stdio_input@@AEAA_NXZ 000000014008c5b8 f i libucrt:input.obj
 0001:0008b784       ?scan_optional_field_width@?$format_string_parser@D@__crt_stdio_input@@AEAA_NXZ 000000014008c784 f i libucrt:input.obj
 0001:0008b824       ?scan_optional_length_modifier@?$format_string_parser@D@__crt_stdio_input@@AEAAXXZ 000000014008c824 f i libucrt:input.obj
 0001:0008b934       ?scan_scanset_range@?$format_string_parser@D@__crt_stdio_input@@AEAA_NXZ 000000014008c934 f i libucrt:input.obj
 0001:0008bacc       ?write_character@?$input_processor@DV?$string_input_adapter@D@__crt_stdio_input@@@__crt_stdio_input@@AEAA_NQEFA_W_KAEAPEFA_WAEA_KD@Z 000000014008cacc f i libucrt:input.obj
 0001:0008bb64       ?write_integer@?$input_processor@DV?$string_input_adapter@D@__crt_stdio_input@@@__crt_stdio_input@@AEAA_N_K@Z 000000014008cb64 f i libucrt:input.obj
 0001:0008bbe0       __stdio_common_vsscanf     000000014008cbe0 f   libucrt:input.obj
 0001:0008bd90       _dclass                    000000014008cd90 f i libucrt:nan.obj
 0001:0008bda0       _dsign                     000000014008cda0 f i libucrt:nan.obj
 0001:0008bdb0       _ldclass                   000000014008cdb0 f i libucrt:nanl.obj
 0001:0008bdc0       _ldsign                    000000014008cdc0 f i libucrt:nanl.obj
 0001:0008bdd0       _fdclass                   000000014008cdd0 f i libucrt:nanf.obj
 0001:0008bde0       _fdsign                    000000014008cde0 f i libucrt:nanf.obj
 0001:0008bde8       localeconv                 000000014008cde8 f   libucrt:localeconv.obj
 0001:0008be20       __acrt_initialize_stdio    000000014008ce20 f   libucrt:_file.obj
 0001:0008bf40       __acrt_iob_func            000000014008cf40 f   libucrt:_file.obj
 0001:0008bf54       __acrt_uninitialize_stdio  000000014008cf54 f   libucrt:_file.obj
 0001:0008bfb0       _lock_file                 000000014008cfb0 f   libucrt:_file.obj
 0001:0008bfbc       _unlock_file               000000014008cfbc f   libucrt:_file.obj
 0001:0008bfc8       _fread_nolock_s            000000014008cfc8 f   libucrt:fread.obj
 0001:0008c234       fread                      000000014008d234 f   libucrt:fread.obj
 0001:0008c254       fread_s                    000000014008d254 f   libucrt:fread.obj
 0001:0008c580       fseek                      000000014008d580 f   libucrt:fseek.obj
 0001:0008cb38       _ftelli64_nolock_internal  000000014008db38 f   libucrt:ftell.obj
 0001:0008cb40       ftell                      000000014008db40 f   libucrt:ftell.obj
 0001:0008cc98       _fwrite_internal           000000014008dc98 f   libucrt:fwrite.obj
 0001:0008cd34       _fwrite_nolock_internal    000000014008dd34 f   libucrt:fwrite.obj
 0001:0008cf48       fwrite                     000000014008df48 f   libucrt:fwrite.obj
 0001:0008cff0       malloc                     000000014008dff0 f   libucrt:malloc.obj
 0001:0008d000       qsort                      000000014008e000 f   libucrt:qsort.obj
 0001:0008d3a0       roundf                     000000014008e3a0 f   libucrt:round.obj
 0001:0008d3f0       cosf_sse2                  000000014008e3f0 f   libucrt:cosf.obj
 0001:0008d690       cosf                       000000014008e690 f   libucrt:cosf.obj
 0001:0008d8b0       fmodf                      000000014008e8b0 f   libucrt:fmodf.obj
 0001:0008dc10       sqrtf                      000000014008ec10 f   libucrt:sqrtf.obj
 0001:0008dcb0       acosf                      000000014008ecb0 f   libucrt:acosf.obj
 0001:0008def0       ceilf                      000000014008eef0 f   libucrt:ceilf.obj
 0001:0008df90       sinf_sse2                  000000014008ef90 f   libucrt:sinf.obj
 0001:0008e300       sinf                       000000014008f300 f   libucrt:sinf.obj
 0001:0008e650       __acrt_initialize_locks    000000014008f650 f   libucrt:locks.obj
 0001:0008e698       __acrt_lock                000000014008f698 f   libucrt:locks.obj
 0001:0008e6b4       __acrt_uninitialize_locks  000000014008f6b4 f   libucrt:locks.obj
 0001:0008e6ec       __acrt_unlock              000000014008f6ec f   libucrt:locks.obj
 0001:0008e708       _lock_locales              000000014008f708 f   libucrt:locks.obj
 0001:0008e724       _unlock_locales            000000014008f724 f   libucrt:locks.obj
 0001:0008e734       ___lc_codepage_func        000000014008f734 f   libucrt:initctype.obj
 0001:0008e764       ___lc_locale_name_func     000000014008f764 f   libucrt:initctype.obj
 0001:0008e798       ___mb_cur_max_func         000000014008f798 f   libucrt:initctype.obj
 0001:0008e7c8       __acrt_locale_initialize_ctype 000000014008f7c8 f   libucrt:initctype.obj
 0001:0008ee0c       abort                      000000014008fe0c f   libucrt:abort.obj
 0001:0008f144       setlocale                  0000000140090144 f   libucrt:setlocale.obj
 0001:0008f190       __acrt_errno_from_os_error 0000000140090190 f   libucrt:errno.obj
 0001:0008f260       __acrt_errno_map_os_error  0000000140090260 f   libucrt:errno.obj
 0001:0008f288       __acrt_errno_map_os_error_ptd 0000000140090288 f   libucrt:errno.obj
 0001:0008f2ac       __doserrno                 00000001400902ac f   libucrt:errno.obj
 0001:0008f2d0       _errno                     00000001400902d0 f   libucrt:errno.obj
 0001:0008f2f4       __pctype_func              00000001400902f4 f   libucrt:ctype.obj
 0001:0008f330       realloc                    0000000140090330 f   libucrt:realloc.obj
 0001:0008f340       isspace                    0000000140090340 f   libucrt:_ctype.obj
 0001:0008f3e8       ??$__acrt_convert_wcs_mbs_cp@D_WV<lambda_7c9dea7b4ca7285d2cdb541a38da6275>@@U__crt_win32_buffer_internal_dynamic_resizing@@@@YAHQEBDAEAV?$__crt_win32_buffer@_WU__crt_win32_buffer_internal_dynamic_resizing@@@@AEBV<lambda_7c9dea7b4ca7285d2cdb541a38da6275>@@I@Z 00000001400903e8 f i libucrt:strftime.obj
 0001:0008f588       ??$__acrt_convert_wcs_mbs_cp@_WDV<lambda_f788ae46380686e8b737efdd8c720d07>@@U__crt_win32_buffer_no_resizing@@@@YAHQEB_WAEAV?$__crt_win32_buffer@DU__crt_win32_buffer_no_resizing@@@@AEBV<lambda_f788ae46380686e8b737efdd8c720d07>@@I@Z 0000000140090588 f i libucrt:strftime.obj
 0001:0008f6b0       __strncnt                  00000001400906b0 f   libucrt:strncnt.obj
 0001:0008f6c8       terminate                  00000001400906c8 f   libucrt:terminate.obj
 0001:0008f6f0       _callnewh                  00000001400906f0 f   libucrt:new_handler.obj
 0001:0008f730       __acrt_initialize_new_handler 0000000140090730 f   libucrt:new_handler.obj
 0001:0008f740       _query_new_handler         0000000140090740 f   libucrt:new_handler.obj
 0001:0008f780       _set_new_handler           0000000140090780 f   libucrt:new_handler.obj
 0001:0008f7e0       ?_set_new_handler@@YAP6AH_K@ZH@Z 00000001400907e0 f   libucrt:new_handler.obj
 0001:0008f7ec       _seh_filter_exe            00000001400907ec f   libucrt:exception_filter.obj
 0001:0008fbc8       __acrt_initialize_thread_local_exit_callback 0000000140090bc8 f   libucrt:exit.obj
 0001:0008fbd0       _c_exit                    0000000140090bd0 f   libucrt:exit.obj
 0001:0008fbe0       _cexit                     0000000140090be0 f   libucrt:exit.obj
 0001:0008fbf0       _exit                      0000000140090bf0 f   libucrt:exit.obj
 0001:0008fbfc       _register_thread_local_exe_atexit_callback 0000000140090bfc f   libucrt:exit.obj
 0001:0008fc38       exit                       0000000140090c38 f   libucrt:exit.obj
 0001:0008fe04       __acrt_allocate_buffer_for_argv 0000000140090e04 f   libucrt:argv_parsing.obj
 0001:0008fe64       _configure_narrow_argv     0000000140090e64 f   libucrt:argv_parsing.obj
 0001:0009022c       __dcrt_uninitialize_environments_nolock 000000014009122c f   libucrt:environment_initialization.obj
 0001:00090270       _initialize_narrow_environment 0000000140091270 f   libucrt:environment_initialization.obj
 0001:000905b8       _crt_atexit                00000001400915b8 f   libucrt:onexit.obj
 0001:000905c8       _execute_onexit_table      00000001400915c8 f   libucrt:onexit.obj
 0001:0009060c       _initialize_onexit_table   000000014009160c f   libucrt:onexit.obj
 0001:00090634       _register_onexit_function  0000000140091634 f   libucrt:onexit.obj
 0001:000907bc       __acrt_initialize          00000001400917bc f   libucrt:initialization.obj
 0001:000907d0       __acrt_uninitialize        00000001400917d0 f   libucrt:initialization.obj
 0001:00090808       _query_app_type            0000000140091808 f   libucrt:report_runtime_error.obj
 0001:00090810       _set_app_type              0000000140091810 f   libucrt:report_runtime_error.obj
 0001:00090820       __acrt_has_user_matherr    0000000140091820 f   libucrt:matherr.obj
 0001:00090840       __acrt_initialize_user_matherr 0000000140091840 f   libucrt:matherr.obj
 0001:00090850       __acrt_invoke_user_matherr 0000000140091850 f   libucrt:matherr.obj
 0001:00090880       __setusermatherr           0000000140091880 f   libucrt:matherr.obj
 0001:000908a4       _get_narrow_winmain_command_line 00000001400918a4 f   libucrt:argv_winmain.obj
 0001:00090918       _initterm                  0000000140091918 f   libucrt:initterm.obj
 0001:00090950       _initterm_e                0000000140091950 f   libucrt:initterm.obj
 0001:0009098c       _get_fmode                 000000014009198c f   libucrt:setmode.obj
 0001:000909bc       _set_fmode                 00000001400919bc f   libucrt:setmode.obj
 0001:000909fc       _setmode_nolock            00000001400919fc f   libucrt:setmode.obj
 0001:00090d4c       ?commit_locale_name@_expandlocale_locale_name_cache@@QEAAXQEB_W_K@Z 0000000140091d4c f i libucrt:wsetlocale.obj
 0001:00090dc4       __acrt_copy_locale_name    0000000140091dc4 f   libucrt:wsetlocale.obj
 0001:00090e48       __acrt_set_locale_changed  0000000140091e48 f   libucrt:wsetlocale.obj
 0001:00090e54       __acrt_uninitialize_locale 0000000140091e54 f   libucrt:wsetlocale.obj
 0001:00090e84       __lc_lctowcs               0000000140091e84 f   libucrt:wsetlocale.obj
 0001:00090f28       __lc_wcstolc               0000000140091f28 f   libucrt:wsetlocale.obj
 0001:0009108c       _configthreadlocale        000000014009208c f   libucrt:wsetlocale.obj
 0001:0009163c       _wcscats                   000000014009263c f   libucrt:wsetlocale.obj
 0001:000916a4       _wsetlocale                00000001400926a4 f   libucrt:wsetlocale.obj
 0001:00092400       _query_new_mode            0000000140093400 f   libucrt:new_mode.obj
 0001:00092410       _set_new_mode              0000000140093410 f   libucrt:new_mode.obj
 0001:0009243c       __p__commode               000000014009343c f   libucrt:ncommode.obj
 0001:00092450       strcpy_s                   0000000140093450 f   libucrt:strcpy_s.obj
 0001:000924d0       wcsncmp                    00000001400934d0 f   libucrt:wcsncmp.obj
 0001:00092814       ?internal_get_ptd_head_slow@@YAPEAU__acrt_ptd@@XZ 0000000140093814 f   libucrt:per_thread_data.obj
 0001:00092934       __acrt_getptd              0000000140093934 f   libucrt:per_thread_data.obj
 0001:00092950       __acrt_getptd_head         0000000140093950 f   libucrt:per_thread_data.obj
 0001:00092994       __acrt_getptd_noexit       0000000140093994 f   libucrt:per_thread_data.obj
 0001:00092a24       __acrt_getptd_noexit_explicit 0000000140093a24 f   libucrt:per_thread_data.obj
 0001:00092a80       __acrt_initialize_ptd      0000000140093a80 f   libucrt:per_thread_data.obj
 0001:00092ac4       __acrt_uninitialize_ptd    0000000140093ac4 f   libucrt:per_thread_data.obj
 0001:00092af0       __acrt_LCMapStringW        0000000140093af0 f   libucrt:lcmapstringw.obj
 0001:00092b78       __acrt_update_locale_info  0000000140093b78 f   libucrt:locale_update.obj
 0001:00092bac       __acrt_update_locale_info_explicit 0000000140093bac f   libucrt:locale_update.obj
 0001:00092be4       __acrt_update_multibyte_info 0000000140093be4 f   libucrt:locale_update.obj
 0001:00092c18       __acrt_update_multibyte_info_explicit 0000000140093c18 f   libucrt:locale_update.obj
 0001:00092c50       _calloc_base               0000000140093c50 f   libucrt:calloc_base.obj
 0001:00092cd0       _free_base                 0000000140093cd0 f   libucrt:free_base.obj
 0001:00092d28       iswctype                   0000000140093d28 f   libucrt:iswctype.obj
 0001:00092d94       _isctype_l                 0000000140093d94 f   libucrt:isctype.obj
 0001:00092ea0       _malloc_base               0000000140093ea0 f   libucrt:malloc_base.obj
 0001:00093a10       __acrt_fp_format           0000000140094a10 f   libucrt:cvt.obj
 0001:00093cf8       _wctomb_internal           0000000140094cf8 f   libucrt:wctomb.obj
 0001:00093ea8       _mbtowc_internal           0000000140094ea8 f   libucrt:mbtowc.obj
 0001:00094020       _mbtowc_l                  0000000140095020 f   libucrt:mbtowc.obj
 0001:000940c4       ?__mblen_utf8@__crt_mbstring@@YAHPEBD@Z 00000001400950c4 f   libucrt:mbrtoc32.obj
 0001:000940fc       ?__mbrtoc32_utf8@__crt_mbstring@@YA_KPEA_UPEBD_KPEAU_Mbstatet@@AEAV__crt_cached_ptd_host@@@Z 00000001400950fc f   libucrt:mbrtoc32.obj
 0001:000942bc       ?__c16rtomb_utf8@__crt_mbstring@@YA_KPEAD_SPEAU_Mbstatet@@AEAV__crt_cached_ptd_host@@@Z 00000001400952bc f   libucrt:c16rtomb.obj
 0001:00094360       ?__mbrtowc_utf8@__crt_mbstring@@YA_KPEA_WPEBD_KPEAU_Mbstatet@@AEAV__crt_cached_ptd_host@@@Z 0000000140095360 f   libucrt:mbrtowc.obj
 0001:000943a8       ?__mbsrtowcs_utf8@__crt_mbstring@@YA_KPEA_WPEAPEBD_KPEAU_Mbstatet@@AEAV__crt_cached_ptd_host@@@Z 00000001400953a8 f   libucrt:mbrtowc.obj
 0001:00094560       _fileno                    0000000140095560 f   libucrt:fileno.obj
 0001:00094588       _get_printf_count_output   0000000140095588 f   libucrt:printf_count_output.obj
 0001:000945a0       _fputc_nolock_internal     00000001400955a0 f   libucrt:fputc.obj
 0001:000945b8       __acrt_should_use_temporary_buffer 00000001400955b8 f   libucrt:_sftbuf.obj
 0001:00094604       __acrt_stdio_begin_temporary_buffering_nolock 0000000140095604 f   libucrt:_sftbuf.obj
 0001:000946cc       __acrt_stdio_end_temporary_buffering_nolock 00000001400956cc f   libucrt:_sftbuf.obj
 0001:00094914       __acrt_initialize_lowio    0000000140095914 f   libucrt:ioinit.obj
 0001:00094950       __acrt_uninitialize_lowio  0000000140095950 f   libucrt:ioinit.obj
 0001:00094990       ?__acrt_stdio_allocate_stream@@YA?AV__crt_stdio_stream@@XZ 0000000140095990 f   libucrt:stream.obj
 0001:000949e8       ?__acrt_stdio_free_stream@@YAXV__crt_stdio_stream@@@Z 00000001400959e8 f   libucrt:stream.obj
 0001:00094af0       ??$__acrt_stdio_parse_mode@D@@YA?AU__acrt_stdio_stream_mode@@QEBD@Z 0000000140095af0 f i libucrt:openfile.obj
 0001:00094db4       ??$__acrt_stdio_parse_mode@_W@@YA?AU__acrt_stdio_stream_mode@@QEB_W@Z 0000000140095db4 f i libucrt:openfile.obj
 0001:000950b8       _openfile                  00000001400960b8 f   libucrt:openfile.obj
 0001:00095154       _wopenfile                 0000000140096154 f   libucrt:openfile.obj
 0001:00095268       _close_internal            0000000140096268 f   libucrt:close.obj
 0001:0009532c       _close_nolock              000000014009632c f   libucrt:close.obj
 0001:000953c4       _close_nolock_internal     00000001400963c4 f   libucrt:close.obj
 0001:00095494       __acrt_stdio_free_buffer_nolock 0000000140096494 f   libucrt:_freebuf.obj
 0001:00095564       _commit                    0000000140096564 f   libucrt:commit.obj
 0001:00095e24       _write                     0000000140096e24 f   libucrt:write.obj
 0001:00095ebc       _write_internal            0000000140096ebc f   libucrt:write.obj
 0001:00095fdc       _write_nolock              0000000140096fdc f   libucrt:write.obj
 0001:0009630c       strtoull                   000000014009730c f   libucrt:strtox.obj
 0001:000963c0       fegetround                 00000001400973c0 f   libucrt:fegetround.obj
 0001:000963e0       _dtest_inline              00000001400973e0 f i libucrt:_test.obj
 0001:00096440       _fdtest_inline             0000000140097440 f i libucrt:_test.obj
 0001:00096480       _ldtest_inline             0000000140097480 f i libucrt:_test.obj
 0001:00096738       __acrt_AppPolicyGetProcessTerminationMethodInternal 0000000140097738 f   libucrt:winapi_thunks.obj
 0001:00096794       __acrt_AreFileApisANSI     0000000140097794 f   libucrt:winapi_thunks.obj
 0001:000967e0       __acrt_EnumSystemLocalesEx 00000001400977e0 f   libucrt:winapi_thunks.obj
 0001:00096884       __acrt_FlsAlloc            0000000140097884 f   libucrt:winapi_thunks.obj
 0001:0009688c       __acrt_FlsFree             000000014009788c f   libucrt:winapi_thunks.obj
 0001:00096894       __acrt_FlsGetValue         0000000140097894 f   libucrt:winapi_thunks.obj
 0001:0009689c       __acrt_FlsGetValue2        000000014009789c f   libucrt:winapi_thunks.obj
 0001:000968a8       __acrt_FlsSetValue         00000001400978a8 f   libucrt:winapi_thunks.obj
 0001:000968b0       __acrt_GetLocaleInfoEx     00000001400978b0 f   libucrt:winapi_thunks.obj
 0001:00096944       __acrt_GetUserDefaultLocaleName 0000000140097944 f   libucrt:winapi_thunks.obj
 0001:000969b4       __acrt_InitializeCriticalSectionEx 00000001400979b4 f   libucrt:winapi_thunks.obj
 0001:000969bc       __acrt_IsValidLocaleName   00000001400979bc f   libucrt:winapi_thunks.obj
 0001:00096a24       __acrt_LCIDToLocaleName    0000000140097a24 f   libucrt:winapi_thunks.obj
 0001:00096aac       __acrt_LCMapStringEx       0000000140097aac f   libucrt:winapi_thunks.obj
 0001:00096ba0       __acrt_LocaleNameToLCID    0000000140097ba0 f   libucrt:winapi_thunks.obj
 0001:00096c04       __acrt_can_use_vista_locale_apis 0000000140097c04 f   libucrt:winapi_thunks.obj
 0001:00096c18       __acrt_eagerly_load_locale_apis 0000000140097c18 f   libucrt:winapi_thunks.obj
 0001:00096dc0       __acrt_initialize_winapi_thunks 0000000140097dc0 f   libucrt:winapi_thunks.obj
 0001:00096df0       __acrt_tls2_supported      0000000140097df0 f   libucrt:winapi_thunks.obj
 0001:00096e34       __acrt_uninitialize_winapi_thunks 0000000140097e34 f   libucrt:winapi_thunks.obj
 0001:00096e78       _fcloseall                 0000000140097e78 f   libucrt:closeall.obj
 0001:00097458       _read                      0000000140098458 f   libucrt:read.obj
 0001:00097578       _read_nolock               0000000140098578 f   libucrt:read.obj
 0001:000979d8       __acrt_stdio_refill_and_read_narrow_nolock 00000001400989d8 f   libucrt:_filbuf.obj
 0001:00097d14       _lseeki64                  0000000140098d14 f   libucrt:lseek.obj
 0001:00097db0       _lseeki64_internal         0000000140098db0 f   libucrt:lseek.obj
 0001:00097db8       _lseeki64_nolock           0000000140098db8 f   libucrt:lseek.obj
 0001:00097e54       _lseeki64_nolock_internal  0000000140098e54 f   libucrt:lseek.obj
 0001:00097fdc       __acrt_stdio_flush_and_write_narrow_nolock 0000000140098fdc f   libucrt:_flsbuf.obj
 0001:000980a8       _guard_check_icall         00000001400990a8 f i libucrt:checkcfg.obj
 0001:000980c0       __remainder_piby2d2f_forAsm 00000001400990c0 f   libucrt:remainder_piby2f_forasm.obj
 0001:00098210       __remainder_piby2_fma3     0000000140099210 f   libucrt:remainder_piby2_forfma3.obj
 0001:00098400       __remainder_piby2_fma3_bdl 0000000140099400 f   libucrt:remainder_piby2_forfma3.obj
 0001:00098480       _cosf_special              0000000140099480 f   libucrt:sincos_special.obj
 0001:00098510       _sinf_special              0000000140099510 f   libucrt:sincos_special.obj
 0001:000985a0       _clrfp                     00000001400995a0 f   libucrt:fpctrl.obj
 0001:000985c0       _ctrlfp                    00000001400995c0 f   libucrt:fpctrl.obj
 0001:00098640       _get_fpcsr                 0000000140099640 f   libucrt:fpctrl.obj
 0001:00098650       _get_fpsr                  0000000140099650 f i libucrt:fpctrl.obj
 0001:00098660       _set_fpcsr                 0000000140099660 f   libucrt:fpctrl.obj
 0001:00098670       _set_fpsr                  0000000140099670 f i libucrt:fpctrl.obj
 0001:00098680       _set_statfp                0000000140099680 f   libucrt:fpctrl.obj
 0001:000986a0       _statfp                    00000001400996a0 f   libucrt:fpctrl.obj
 0001:000986b0       __acrt_initialize_fma3     00000001400996b0 f   libucrt:fma3_available.obj
 0001:00098880       _handle_error              0000000140099880 f   libucrt:libm_error.obj
 0001:000989c0       _handle_errorf             00000001400999c0 f   libucrt:libm_error.obj
 0001:00098b00       _handle_nan                0000000140099b00 f   libucrt:libm_error.obj
 0001:00098b20       _handle_nanf               0000000140099b20 f   libucrt:libm_error.obj
 0001:00098b30       acosf_fma                  0000000140099b30 f   libucrt:acosf.obj
 0001:00098d30       ceil_sse41                 0000000140099d30 f   libucrt:floorceil_sse41.obj
 0001:00098d40       ceilf_sse41                0000000140099d40 f   libucrt:floorceil_sse41.obj
 0001:00098d50       __remainder_piby2d2f_forC  0000000140099d50 f   libucrt:remainder_piby2f_forc.obj
 0001:00098ee0       _log10_special             0000000140099ee0 f   libucrt:log_special.obj
 0001:0009911c       __acrt_GetLocaleInfoA      000000014009a11c f   libucrt:getlocaleinfoa.obj
 0001:000992e4       __acrt_GetStringTypeA      000000014009a2e4 f   libucrt:getstringtypea.obj
 0001:000997a8       __acrt_LCMapStringA        000000014009a7a8 f   libucrt:lcmapstringa.obj
 0001:00099888       __acrt_get_sigabrt_handler 000000014009a888 f   libucrt:signal.obj
 0001:000998b8       __acrt_initialize_signal_handlers 000000014009a8b8 f   libucrt:signal.obj
 0001:000998d8       raise                      000000014009a8d8 f   libucrt:signal.obj
 0001:00099e4c       mbstowcs_s                 000000014009ae4c f   libucrt:mbstowcs.obj
 0001:0009a348       _wcstombs_s_l              000000014009b348 f   libucrt:wcstombs.obj
 0001:0009a400       _raise_exc                 000000014009b400 f   libucrt:fpexcept.obj
 0001:0009a430       _raise_exc_ex              000000014009b430 f   libucrt:fpexcept.obj
 0001:0009a740       _raise_excf                000000014009b740 f   libucrt:fpexcept.obj
 0001:0009a770       _set_errno_from_matherr    000000014009b770 f   libucrt:fpexcept.obj
 0001:0009a7b0       _realloc_base              000000014009b7b0 f   libucrt:realloc_base.obj
 0001:0009a82c       __acrt_MultiByteToWideChar 000000014009b82c f   libucrt:multibytetowidechar.obj
 0001:0009a8bc       __acrt_WideCharToMultiByte 000000014009b8bc f   libucrt:widechartomultibyte.obj
 0001:0009a99c       __acrt_initialize_timeset  000000014009b99c f   libucrt:timeset.obj
 0001:0009a9ec       __acrt_app_verifier_enabled 000000014009b9ec f   libucrt:peb_access.obj
 0001:0009aa08       __acrt_is_secure_process   000000014009ba08 f   libucrt:peb_access.obj
 0001:0009aa20       __acrt_get_process_end_policy 000000014009ba20 f   libucrt:win_policies.obj
 0001:0009aa64       ??$__acrt_convert_wcs_mbs_cp@_WDV<lambda_d8593a27d1aa8c02be35c86a17d324c4>@@U__crt_win32_buffer_internal_dynamic_resizing@@@@YAHQEB_WAEAV?$__crt_win32_buffer@DU__crt_win32_buffer_internal_dynamic_resizing@@@@AEBV<lambda_d8593a27d1aa8c02be35c86a17d324c4>@@I@Z 000000014009ba64 f i libucrt:argv_wildcards.obj
 0001:0009b330       __acrt_expand_narrow_argv_wildcards 000000014009c330 f   libucrt:argv_wildcards.obj
 0001:0009b338       __acrt_GetModuleFileNameA  000000014009c338 f   libucrt:getmodulefilenamea.obj
 0001:0009bc64       __acrt_initialize_multibyte 000000014009cc64 f   libucrt:mbctype.obj
 0001:0009bcc4       __acrt_update_thread_multibyte_data 000000014009ccc4 f   libucrt:mbctype.obj
 0001:0009bce0       _setmbcp_nolock            000000014009cce0 f   libucrt:mbctype.obj
 0001:0009c01c       _ismbblead                 000000014009d01c f   libucrt:ismbbyte.obj
 0001:0009c030       __acrt_initialize_command_line 000000014009d030 f   libucrt:argv_data.obj
 0001:0009c058       __acrt_uninitialize_command_line 000000014009d058 f   libucrt:argv_data.obj
 0001:0009c05c       __dcrt_get_narrow_environment_from_os 000000014009d05c f   libucrt:get_environment_from_os.obj
 0001:0009c170       _recalloc_base             000000014009d170 f   libucrt:recalloc.obj
 0001:0009c210       _recalloc                  000000014009d210 f   libucrt:recalloc.obj
 0001:0009c220       _get_heap_handle           000000014009d220 f   libucrt:heap_handle.obj
 0001:0009c230       __acrt_initialize_heap     000000014009d230 f   libucrt:heap_handle.obj
 0001:0009c260       __acrt_uninitialize_heap   000000014009d260 f   libucrt:heap_handle.obj
 0001:0009c280       __acrt_getheap             000000014009d280 f   libucrt:heap_handle.obj
 0001:0009c288       __acrt_execute_initializers 000000014009d288 f   libucrt:shared_initialization.obj
 0001:0009c308       __acrt_execute_uninitializers 000000014009d308 f   libucrt:shared_initialization.obj
 0001:0009c350       wcscat_s                   000000014009d350 f   libucrt:wcscat_s.obj
 0001:0009c3e0       wcsncpy_s                  000000014009d3e0 f   libucrt:wcsncpy_s.obj
 0001:0009c524       __acrt_lowio_create_handle_array 000000014009d524 f   libucrt:osfinfo.obj
 0001:0009c5cc       __acrt_lowio_destroy_handle_array 000000014009d5cc f   libucrt:osfinfo.obj
 0001:0009c61c       __acrt_lowio_ensure_fh_exists 000000014009d61c f   libucrt:osfinfo.obj
 0001:0009c6c4       __acrt_lowio_lock_fh       000000014009d6c4 f   libucrt:osfinfo.obj
 0001:0009c6ec       __acrt_lowio_set_os_handle 000000014009d6ec f   libucrt:osfinfo.obj
 0001:0009c7ac       __acrt_lowio_unlock_fh     000000014009d7ac f   libucrt:osfinfo.obj
 0001:0009c7d4       _alloc_osfhnd              000000014009d7d4 f   libucrt:osfinfo.obj
 0001:0009c914       _free_osfhnd               000000014009d914 f   libucrt:osfinfo.obj
 0001:0009c9d0       _get_osfhandle             000000014009d9d0 f   libucrt:osfinfo.obj
 0001:0009ca48       __acrt_initialize_fmode    000000014009da48 f   libucrt:txtmode.obj
 0001:0009ca60       __acrt_locale_free_monetary 000000014009da60 f   libucrt:initmon.obj
 0001:0009cb6c       __acrt_locale_initialize_monetary 000000014009db6c f   libucrt:initmon.obj
 0001:0009d088       __acrt_locale_free_numeric 000000014009e088 f   libucrt:initnum.obj
 0001:0009d0f4       __acrt_locale_initialize_numeric 000000014009e0f4 f   libucrt:initnum.obj
 0001:0009d750       __acrt_locale_free_time    000000014009e750 f   libucrt:inittime.obj
 0001:0009d858       __acrt_locale_initialize_time 000000014009e858 f   libucrt:inittime.obj
 0001:0009d900       wcsncat_s                  000000014009e900 f   libucrt:wcsncat_s.obj
 0001:0009da40       wcscspn                    000000014009ea40 f   libucrt:wcscspn.obj
 0001:0009daa0       wcspbrk                    000000014009eaa0 f   libucrt:wcspbrk.obj
 0001:0009daf8       __acrt_add_locale_ref      000000014009eaf8 f   libucrt:locale_refcounting.obj
 0001:0009db84       __acrt_free_locale         000000014009eb84 f   libucrt:locale_refcounting.obj
 0001:0009dcfc       __acrt_locale_add_lc_time_reference 000000014009ecfc f   libucrt:locale_refcounting.obj
 0001:0009dd24       __acrt_locale_free_lc_time_if_unreferenced 000000014009ed24 f   libucrt:locale_refcounting.obj
 0001:0009dd5c       __acrt_locale_release_lc_time_reference 000000014009ed5c f   libucrt:locale_refcounting.obj
 0001:0009dd84       __acrt_release_locale_ref  000000014009ed84 f   libucrt:locale_refcounting.obj
 0001:0009de2c       __acrt_update_thread_locale_data 000000014009ee2c f   libucrt:locale_refcounting.obj
 0001:0009de9c       _updatetlocinfoEx_nolock   000000014009ee9c f   libucrt:locale_refcounting.obj
 0001:0009e6bc       __acrt_get_qualified_locale 000000014009f6bc f   libucrt:get_qualified_locale.obj
 0001:0009f11c       __acrt_get_qualified_locale_downlevel 00000001400a011c f   libucrt:getqloc_downlevel.obj
 0001:0009f39c       __acrt_GetStringTypeW      00000001400a039c f   libucrt:getstringtypew.obj
 0001:0009f474       __acrt_fp_strflt_to_string 00000001400a0474 f   libucrt:_fptostr.obj
 0001:0009f584       __acrt_fltout              00000001400a0584 f   libucrt:cfout.obj
 0001:000a088c       ?__c32rtomb_utf8@__crt_mbstring@@YA_KPEAD_UPEAU_Mbstatet@@AEAV__crt_cached_ptd_host@@@Z 00000001400a188c f   libucrt:c32rtomb.obj
 0001:000a0930       ?reset_and_return@__crt_mbstring@@YA_K_KPEAU_Mbstatet@@@Z 00000001400a1930 f   libucrt:common_utf8.obj
 0001:000a0938       ?return_illegal_sequence@__crt_mbstring@@YA_KPEAU_Mbstatet@@AEAV__crt_cached_ptd_host@@@Z 00000001400a1938 f   libucrt:common_utf8.obj
 0001:000a094c       _isatty                    00000001400a194c f   libucrt:isatty.obj
 0001:000a09e0       __ascii_wcsnicmp           00000001400a19e0 f   libucrt:wcsnicmp.obj
 0001:000a0a50       _wcsnicmp                  00000001400a1a50 f   libucrt:wcsnicmp.obj
 0001:000a0a80       _wcsnicmp_l                00000001400a1a80 f   libucrt:wcsnicmp.obj
 0001:000a0ca0       _strnicmp                  00000001400a1ca0 f   libucrt:strnicmp.obj
 0001:000a0d30       _strnicmp_l                00000001400a1d30 f   libucrt:strnicmp.obj
 0001:000a156c       _sopen_nolock              00000001400a256c f   libucrt:open.obj
 0001:000a1688       _sopen_s                   00000001400a2688 f   libucrt:open.obj
 0001:000a16bc       _wsopen_nolock             00000001400a26bc f   libucrt:open.obj
 0001:000a1ad0       _wsopen_s                  00000001400a2ad0 f   libucrt:open.obj
 0001:000a1b04       _putwch_nolock             00000001400a2b04 f   libucrt:putwch.obj
 0001:000a1b44       __acrt_stdio_allocate_buffer_nolock 00000001400a2b44 f   libucrt:_getbuf.obj
 0001:000a1bb0       __acrt_fenv_get_common_round_control 00000001400a2bb0 f   libucrt:_fenvutils.obj
 0001:000a1bc0       __acrt_fenv_get_control    00000001400a2bc0 f   libucrt:_fenvutils.obj
 0001:000a1ca0       __acrt_fenv_get_status     00000001400a2ca0 f   libucrt:_fenvutils.obj
 0001:000a1d00       __acrt_fenv_set_control    00000001400a2d00 f   libucrt:_fenvutils.obj
 0001:000a1e30       __acrt_fenv_set_status     00000001400a2e30 f   libucrt:_fenvutils.obj
 0001:000a1ea4       __acrt_DownlevelLCIDToLocaleName 00000001400a2ea4 f   libucrt:lcidtoname_downlevel.obj
 0001:000a1f8c       __acrt_DownlevelLocaleNameToLCID 00000001400a2f8c f   libucrt:lcidtoname_downlevel.obj
 0001:000a2040       _handle_nanf_fma           00000001400a3040 f   libucrt:libm_error.obj
 0001:000a204c       ?__wcsrtombs_utf8@__crt_mbstring@@YA_KPEADPEAPEB_W_KPEAU_Mbstatet@@AEAV__crt_cached_ptd_host@@@Z 00000001400a304c f   libucrt:wcrtomb.obj
 0001:000a2240       strpbrk                    00000001400a3240 f   libucrt:strpbrk.obj
 0001:000a25f8       _mbsdec                    00000001400a35f8 f   libucrt:mbsdec.obj
 0001:000a2600       _mbsdec_l                  00000001400a3600 f   libucrt:mbsdec.obj
 0001:000a26b0       _msize_base                00000001400a36b0 f   libucrt:msize.obj
 0001:000a26f0       _msize                     00000001400a36f0 f   libucrt:msize.obj
 0001:000a2838       _itow_s                    00000001400a3838 f   libucrt:xtoa.obj
 0001:000a2860       wcscmp                     00000001400a3860 f   libucrt:wcscmpc.obj
 0001:000a28a0       _controlfp_s               00000001400a38a0 f   libucrt:contrlfp.obj
 0001:000a2910       fegetenv                   00000001400a3910 f   libucrt:fegetenv.obj
 0001:000a2930       fesetenv                   00000001400a3930 f   libucrt:fesetenv.obj
 0001:000a29a0       feholdexcept               00000001400a39a0 f   libucrt:feholdexcept.obj
 0001:000a2a00       ceil                       00000001400a3a00 f   libucrt:ceil.obj
 0001:000a2ad0       log10                      00000001400a3ad0 f   libucrt:log10.obj
 0001:000a307c       _chsize_nolock             00000001400a407c f   libucrt:chsize.obj
 0001:000a3114       _chsize_nolock_internal    00000001400a4114 f   libucrt:chsize.obj
 0001:000a32a4       __dcrt_lowio_ensure_console_output_initialized 00000001400a42a4 f   libucrt:initcon.obj
 0001:000a32f8       __dcrt_terminate_console_output 00000001400a42f8 f   libucrt:initcon.obj
 0001:000a3314       __dcrt_write_console       00000001400a4314 f   libucrt:initcon.obj
 0001:000a33e0       _clearfp                   00000001400a43e0 f   libucrt:ieee.obj
 0001:000a3450       _control87                 00000001400a4450 f   libucrt:ieee.obj
 0001:000a3700       _FindPESection             00000001400a4700 f   LIBCMT:pesect.obj
 0001:000a3750       _IsNonwritableInCurrentImage 00000001400a4750 f   LIBCMT:pesect.obj
 0001:000a37a0       _ValidateImageBase         00000001400a47a0 f   LIBCMT:pesect.obj
 0001:000a37cc       __GSHandlerCheck_SEH       00000001400a47cc f   LIBCMT:gshandlerseh.obj
 0001:000a3854       __GSHandlerCheck_EH        00000001400a4854 f   LIBCMT:gshandlereh.obj
 0001:000a38d4       __C_specific_handler_noexcept 00000001400a48d4 f   libvcruntime:chandler_noexcept.obj
 0001:000a3920       wcschr                     00000001400a4920 f   libvcruntime:wcschr.obj
 0001:000a39b0       _guard_dispatch_icall_nop  00000001400a49b0 f   LIBCMT:guard_dispatch.obj
 0001:000a39d0       _guard_xfg_dispatch_icall_nop 00000001400a49d0 f   LIBCMT:guard_xfg_dispatch.obj
 0001:000a39f0       _guard_dispatch_icall      00000001400a49f0 f   libucrt:dispatchcfg.obj
 0001:000a39f0       _guard_dispatch_icall_$fo_default$ 00000001400a49f0     libucrt:dispatchcfg.obj
 0001:000a3a10       memchr                     00000001400a4a10 f   libvcruntime:memchr.obj
 0001:000a3ab0       memcmp                     00000001400a4ab0 f   libvcruntime:memcmp.obj
 0001:000a3ba0       memcpy_repmovs             00000001400a4ba0 f   libvcruntime:memcpy.obj
 0001:000a3bb0       memcpy                     00000001400a4bb0 f   libvcruntime:memcpy.obj
 0001:000a3bb0       memcpy_$fo_default$        00000001400a4bb0     libvcruntime:memcpy.obj
 0001:000a3bb0       memmove                    00000001400a4bb0 f   libvcruntime:memcpy.obj
 0001:000a4240       memset_repstos             00000001400a5240 f   libvcruntime:memset.obj
 0001:000a4250       memset                     00000001400a5250 f   libvcruntime:memset.obj
 0001:000a45f0       strcmp                     00000001400a55f0 f   libucrt:strcmp.obj
 0001:000a4670       strlen                     00000001400a5670 f   libucrt:strlen.obj
 0001:000a4730       strncpy                    00000001400a5730 f   libucrt:strncpy.obj
 0001:000a48b0       strncmp                    00000001400a58b0 f   libucrt:strncmp.obj
 0002:00000000       __imp_GetCurrentHwProfileA 00000001400a9000     advapi32:ADVAPI32.dll
 0002:00000008       \177ADVAPI32_NULL_THUNK_DATA 00000001400a9008     advapi32:ADVAPI32.dll
 0002:00000010       __imp_D3DCompile           00000001400a9010     d3dcompiler:D3DCOMPILER_47.dll
 0002:00000018       \177D3DCOMPILER_47_NULL_THUNK_DATA 00000001400a9018     d3dcompiler:D3DCOMPILER_47.dll
 0002:00000020       __imp_FreeEnvironmentStringsW 00000001400a9020     kernel32:KERNEL32.dll
 0002:00000028       __imp_GetEnvironmentStringsW 00000001400a9028     kernel32:KERNEL32.dll
 0002:00000030       __imp_GetEnvironmentVariableW 00000001400a9030     kernel32:KERNEL32.dll
 0002:00000038       __imp_CreateDirectoryW     00000001400a9038     kernel32:KERNEL32.dll
 0002:00000040       __imp_CreateFileW          00000001400a9040     kernel32:KERNEL32.dll
 0002:00000048       __imp_DeleteFileW          00000001400a9048     kernel32:KERNEL32.dll
 0002:00000050       __imp_FlushFileBuffers     00000001400a9050     kernel32:KERNEL32.dll
 0002:00000058       __imp_GetFileAttributesW   00000001400a9058     kernel32:KERNEL32.dll
 0002:00000060       __imp_GetFileSizeEx        00000001400a9060     kernel32:KERNEL32.dll
 0002:00000068       __imp_GetFullPathNameW     00000001400a9068     kernel32:KERNEL32.dll
 0002:00000070       __imp_SetFileAttributesW   00000001400a9070     kernel32:KERNEL32.dll
 0002:00000078       __imp_SetFilePointerEx     00000001400a9078     kernel32:KERNEL32.dll
 0002:00000080       __imp_WriteFile            00000001400a9080     kernel32:KERNEL32.dll
 0002:00000088       __imp_GetTempPathW         00000001400a9088     kernel32:KERNEL32.dll
 0002:00000090       __imp_CloseHandle          00000001400a9090     kernel32:KERNEL32.dll
 0002:00000098       __imp_GetLastError         00000001400a9098     kernel32:KERNEL32.dll
 0002:000000a0       __imp_DeviceIoControl      00000001400a90a0     kernel32:KERNEL32.dll
 0002:000000a8       __imp_Sleep                00000001400a90a8     kernel32:KERNEL32.dll
 0002:000000b0       __imp_GetCurrentProcess    00000001400a90b0     kernel32:KERNEL32.dll
 0002:000000b8       __imp_GetCurrentProcessId  00000001400a90b8     kernel32:KERNEL32.dll
 0002:000000c0       __imp_TerminateProcess     00000001400a90c0     kernel32:KERNEL32.dll
 0002:000000c8       __imp_CreateThread         00000001400a90c8     kernel32:KERNEL32.dll
 0002:000000d0       __imp_CreateProcessW       00000001400a90d0     kernel32:KERNEL32.dll
 0002:000000d8       __imp_GetSystemTime        00000001400a90d8     kernel32:KERNEL32.dll
 0002:000000e0       __imp_GetSystemTimeAsFileTime 00000001400a90e0     kernel32:KERNEL32.dll
 0002:000000e8       __imp_GetLocalTime         00000001400a90e8     kernel32:KERNEL32.dll
 0002:000000f0       __imp_GetTickCount         00000001400a90f0     kernel32:KERNEL32.dll
 0002:000000f8       __imp_GetTickCount64       00000001400a90f8     kernel32:KERNEL32.dll
 0002:00000100       __imp_GetSystemDirectoryW  00000001400a9100     kernel32:KERNEL32.dll
 0002:00000108       __imp_GetWindowsDirectoryW 00000001400a9108     kernel32:KERNEL32.dll
 0002:00000110       __imp_CreateFileMappingW   00000001400a9110     kernel32:KERNEL32.dll
 0002:00000118       __imp_MapViewOfFile        00000001400a9118     kernel32:KERNEL32.dll
 0002:00000120       __imp_UnmapViewOfFile      00000001400a9120     kernel32:KERNEL32.dll
 0002:00000128       __imp_GetModuleFileNameW   00000001400a9128     kernel32:KERNEL32.dll
 0002:00000130       __imp_GetModuleHandleA     00000001400a9130     kernel32:KERNEL32.dll
 0002:00000138       __imp_GetModuleHandleW     00000001400a9138     kernel32:KERNEL32.dll
 0002:00000140       __imp_GetProcAddress       00000001400a9140     kernel32:KERNEL32.dll
 0002:00000148       __imp_LoadResource         00000001400a9148     kernel32:KERNEL32.dll
 0002:00000150       __imp_LockResource         00000001400a9150     kernel32:KERNEL32.dll
 0002:00000158       __imp_SizeofResource       00000001400a9158     kernel32:KERNEL32.dll
 0002:00000160       __imp_FindResourceW        00000001400a9160     kernel32:KERNEL32.dll
 0002:00000168       __imp_LoadLibraryA         00000001400a9168     kernel32:KERNEL32.dll
 0002:00000170       __imp_LoadLibraryW         00000001400a9170     kernel32:KERNEL32.dll
 0002:00000178       __imp_LocalFree            00000001400a9178     kernel32:KERNEL32.dll
 0002:00000180       __imp_FormatMessageW       00000001400a9180     kernel32:KERNEL32.dll
 0002:00000188       __imp_CopyFileW            00000001400a9188     kernel32:KERNEL32.dll
 0002:00000190       __imp_MoveFileExW          00000001400a9190     kernel32:KERNEL32.dll
 0002:00000198       __imp_SystemTimeToFileTime 00000001400a9198     kernel32:KERNEL32.dll
 0002:000001a0       __imp_MultiByteToWideChar  00000001400a91a0     kernel32:KERNEL32.dll
 0002:000001a8       __imp_WideCharToMultiByte  00000001400a91a8     kernel32:KERNEL32.dll
 0002:000001b0       __imp_GlobalUnlock         00000001400a91b0     kernel32:KERNEL32.dll
 0002:000001b8       __imp_GlobalLock           00000001400a91b8     kernel32:KERNEL32.dll
 0002:000001c0       __imp_GlobalFree           00000001400a91c0     kernel32:KERNEL32.dll
 0002:000001c8       __imp_QueryPerformanceCounter 00000001400a91c8     kernel32:KERNEL32.dll
 0002:000001d0       __imp_QueryPerformanceFrequency 00000001400a91d0     kernel32:KERNEL32.dll
 0002:000001d8       __imp_HeapSize             00000001400a91d8     kernel32:KERNEL32.dll
 0002:000001e0       __imp_GetLocaleInfoA       00000001400a91e0     kernel32:KERNEL32.dll
 0002:000001e8       __imp_GetCommandLineW      00000001400a91e8     kernel32:KERNEL32.dll
 0002:000001f0       __imp_GetCommandLineA      00000001400a91f0     kernel32:KERNEL32.dll
 0002:000001f8       __imp_GetOEMCP             00000001400a91f8     kernel32:KERNEL32.dll
 0002:00000200       __imp_GetACP               00000001400a9200     kernel32:KERNEL32.dll
 0002:00000208       __imp_IsValidCodePage      00000001400a9208     kernel32:KERNEL32.dll
 0002:00000210       __imp_HeapReAlloc          00000001400a9210     kernel32:KERNEL32.dll
 0002:00000218       __imp_ReadConsoleW         00000001400a9218     kernel32:KERNEL32.dll
 0002:00000220       __imp_EnumSystemLocalesW   00000001400a9220     kernel32:KERNEL32.dll
 0002:00000228       __imp_GetUserDefaultLCID   00000001400a9228     kernel32:KERNEL32.dll
 0002:00000230       __imp_IsValidLocale        00000001400a9230     kernel32:KERNEL32.dll
 0002:00000238       __imp_GetLocaleInfoW       00000001400a9238     kernel32:KERNEL32.dll
 0002:00000240       __imp_LCMapStringW         00000001400a9240     kernel32:KERNEL32.dll
 0002:00000248       __imp_VirtualProtect       00000001400a9248     kernel32:KERNEL32.dll
 0002:00000250       __imp_FlsFree              00000001400a9250     kernel32:KERNEL32.dll
 0002:00000258       __imp_FlsSetValue          00000001400a9258     kernel32:KERNEL32.dll
 0002:00000260       __imp_FlsGetValue          00000001400a9260     kernel32:KERNEL32.dll
 0002:00000268       __imp_FlsAlloc             00000001400a9268     kernel32:KERNEL32.dll
 0002:00000270       __imp_GetConsoleMode       00000001400a9270     kernel32:KERNEL32.dll
 0002:00000278       __imp_GetConsoleOutputCP   00000001400a9278     kernel32:KERNEL32.dll
 0002:00000280       __imp_GetFileType          00000001400a9280     kernel32:KERNEL32.dll
 0002:00000288       __imp_HeapFree             00000001400a9288     kernel32:KERNEL32.dll
 0002:00000290       __imp_HeapAlloc            00000001400a9290     kernel32:KERNEL32.dll
 0002:00000298       __imp_GetStdHandle         00000001400a9298     kernel32:KERNEL32.dll
 0002:000002a0       __imp_GetModuleHandleExW   00000001400a92a0     kernel32:KERNEL32.dll
 0002:000002a8       __imp_ExitProcess          00000001400a92a8     kernel32:KERNEL32.dll
 0002:000002b0       __imp_ReadFile             00000001400a92b0     kernel32:KERNEL32.dll
 0002:000002b8       __imp_LoadLibraryExW       00000001400a92b8     kernel32:KERNEL32.dll
 0002:000002c0       __imp_TlsFree              00000001400a92c0     kernel32:KERNEL32.dll
 0002:000002c8       __imp_TlsSetValue          00000001400a92c8     kernel32:KERNEL32.dll
 0002:000002d0       __imp_TlsGetValue          00000001400a92d0     kernel32:KERNEL32.dll
 0002:000002d8       __imp_TlsAlloc             00000001400a92d8     kernel32:KERNEL32.dll
 0002:000002e0       __imp_InitializeCriticalSectionAndSpinCount 00000001400a92e0     kernel32:KERNEL32.dll
 0002:000002e8       __imp_SetLastError         00000001400a92e8     kernel32:KERNEL32.dll
 0002:000002f0       __imp_RtlUnwindEx          00000001400a92f0     kernel32:KERNEL32.dll
 0002:000002f8       __imp_GetProcessHeap       00000001400a92f8     kernel32:KERNEL32.dll
 0002:00000300       __imp_GlobalAlloc          00000001400a9300     kernel32:KERNEL32.dll
 0002:00000308       __imp_SetStdHandle         00000001400a9308     kernel32:KERNEL32.dll
 0002:00000310       __imp_SetEndOfFile         00000001400a9310     kernel32:KERNEL32.dll
 0002:00000318       __imp_RaiseException       00000001400a9318     kernel32:KERNEL32.dll
 0002:00000320       __imp_RtlPcToFileHeader    00000001400a9320     kernel32:KERNEL32.dll
 0002:00000328       __imp_InitializeSListHead  00000001400a9328     kernel32:KERNEL32.dll
 0002:00000330       __imp_GetCurrentThreadId   00000001400a9330     kernel32:KERNEL32.dll
 0002:00000338       __imp_GetStartupInfoW      00000001400a9338     kernel32:KERNEL32.dll
 0002:00000340       __imp_IsDebuggerPresent    00000001400a9340     kernel32:KERNEL32.dll
 0002:00000348       __imp_SleepConditionVariableSRW 00000001400a9348     kernel32:KERNEL32.dll
 0002:00000350       __imp_WakeAllConditionVariable 00000001400a9350     kernel32:KERNEL32.dll
 0002:00000358       __imp_AcquireSRWLockExclusive 00000001400a9358     kernel32:KERNEL32.dll
 0002:00000360       __imp_ReleaseSRWLockExclusive 00000001400a9360     kernel32:KERNEL32.dll
 0002:00000368       __imp_IsProcessorFeaturePresent 00000001400a9368     kernel32:KERNEL32.dll
 0002:00000370       __imp_SetUnhandledExceptionFilter 00000001400a9370     kernel32:KERNEL32.dll
 0002:00000378       __imp_UnhandledExceptionFilter 00000001400a9378     kernel32:KERNEL32.dll
 0002:00000380       __imp_WriteConsoleW        00000001400a9380     kernel32:KERNEL32.dll
 0002:00000388       __imp_FreeLibrary          00000001400a9388     kernel32:KERNEL32.dll
 0002:00000390       __imp_FormatMessageA       00000001400a9390     kernel32:KERNEL32.dll
 0002:00000398       __imp_GetLocaleInfoEx      00000001400a9398     kernel32:KERNEL32.dll
 0002:000003a0       __imp_FindClose            00000001400a93a0     kernel32:KERNEL32.dll
 0002:000003a8       __imp_FindFirstFileW       00000001400a93a8     kernel32:KERNEL32.dll
 0002:000003b0       __imp_FindFirstFileExW     00000001400a93b0     kernel32:KERNEL32.dll
 0002:000003b8       __imp_FindNextFileW        00000001400a93b8     kernel32:KERNEL32.dll
 0002:000003c0       __imp_GetFileAttributesExW 00000001400a93c0     kernel32:KERNEL32.dll
 0002:000003c8       __imp_AreFileApisANSI      00000001400a93c8     kernel32:KERNEL32.dll
 0002:000003d0       __imp_GetFileInformationByHandleEx 00000001400a93d0     kernel32:KERNEL32.dll
 0002:000003d8       __imp_EnterCriticalSection 00000001400a93d8     kernel32:KERNEL32.dll
 0002:000003e0       __imp_LeaveCriticalSection 00000001400a93e0     kernel32:KERNEL32.dll
 0002:000003e8       __imp_InitializeCriticalSectionEx 00000001400a93e8     kernel32:KERNEL32.dll
 0002:000003f0       __imp_DeleteCriticalSection 00000001400a93f0     kernel32:KERNEL32.dll
 0002:000003f8       __imp_EncodePointer        00000001400a93f8     kernel32:KERNEL32.dll
 0002:00000400       __imp_DecodePointer        00000001400a9400     kernel32:KERNEL32.dll
 0002:00000408       __imp_GetStringTypeW       00000001400a9408     kernel32:KERNEL32.dll
 0002:00000410       __imp_GetCPInfo            00000001400a9410     kernel32:KERNEL32.dll
 0002:00000418       __imp_RtlCaptureContext    00000001400a9418     kernel32:KERNEL32.dll
 0002:00000420       __imp_RtlLookupFunctionEntry 00000001400a9420     kernel32:KERNEL32.dll
 0002:00000428       __imp_RtlVirtualUnwind     00000001400a9428     kernel32:KERNEL32.dll
 0002:00000430       \177KERNEL32_NULL_THUNK_DATA 00000001400a9430     kernel32:KERNEL32.dll
 0002:00000438       __imp_ShellExecuteW        00000001400a9438     shell32:SHELL32.dll
 0002:00000440       \177SHELL32_NULL_THUNK_DATA 00000001400a9440     shell32:SHELL32.dll
 0002:00000448       __imp_CreateWindowExW      00000001400a9448     user32:USER32.dll
 0002:00000450       __imp_DestroyWindow        00000001400a9450     user32:USER32.dll
 0002:00000458       __imp_RegisterClassExW     00000001400a9458     user32:USER32.dll
 0002:00000460       __imp_UnregisterClassW     00000001400a9460     user32:USER32.dll
 0002:00000468       __imp_TranslateMessage     00000001400a9468     user32:USER32.dll
 0002:00000470       __imp_DispatchMessageW     00000001400a9470     user32:USER32.dll
 0002:00000478       __imp_PeekMessageW         00000001400a9478     user32:USER32.dll
 0002:00000480       __imp_DefWindowProcW       00000001400a9480     user32:USER32.dll
 0002:00000488       __imp_wsprintfA            00000001400a9488     user32:USER32.dll
 0002:00000490       __imp_EmptyClipboard       00000001400a9490     user32:USER32.dll
 0002:00000498       __imp_ShowWindow           00000001400a9498     user32:USER32.dll
 0002:000004a0       __imp_ScreenToClient       00000001400a94a0     user32:USER32.dll
 0002:000004a8       __imp_ClientToScreen       00000001400a94a8     user32:USER32.dll
 0002:000004b0       __imp_GetCursorPos         00000001400a94b0     user32:USER32.dll
 0002:000004b8       __imp_SetCursor            00000001400a94b8     user32:USER32.dll
 0002:000004c0       __imp_SetCursorPos         00000001400a94c0     user32:USER32.dll
 0002:000004c8       __imp_GetClientRect        00000001400a94c8     user32:USER32.dll
 0002:000004d0       __imp_GetForegroundWindow  00000001400a94d0     user32:USER32.dll
 0002:000004d8       __imp_IsWindowUnicode      00000001400a94d8     user32:USER32.dll
 0002:000004e0       __imp_ReleaseCapture       00000001400a94e0     user32:USER32.dll
 0002:000004e8       __imp_SetCapture           00000001400a94e8     user32:USER32.dll
 0002:000004f0       __imp_GetCapture           00000001400a94f0     user32:USER32.dll
 0002:000004f8       __imp_GetKeyState          00000001400a94f8     user32:USER32.dll
 0002:00000500       __imp_GetMessageExtraInfo  00000001400a9500     user32:USER32.dll
 0002:00000508       __imp_TrackMouseEvent      00000001400a9508     user32:USER32.dll
 0002:00000510       __imp_GetKeyboardLayout    00000001400a9510     user32:USER32.dll
 0002:00000518       __imp_SetWindowPos         00000001400a9518     user32:USER32.dll
 0002:00000520       __imp_GetClipboardData     00000001400a9520     user32:USER32.dll
 0002:00000528       __imp_SetClipboardData     00000001400a9528     user32:USER32.dll
 0002:00000530       __imp_CloseClipboard       00000001400a9530     user32:USER32.dll
 0002:00000538       __imp_OpenClipboard        00000001400a9538     user32:USER32.dll
 0002:00000540       __imp_LoadCursorW          00000001400a9540     user32:USER32.dll
 0002:00000548       __imp_MessageBoxW          00000001400a9548     user32:USER32.dll
 0002:00000550       __imp_GetWindowRect        00000001400a9550     user32:USER32.dll
 0002:00000558       __imp_UpdateWindow         00000001400a9558     user32:USER32.dll
 0002:00000560       __imp_GetSystemMetrics     00000001400a9560     user32:USER32.dll
 0002:00000568       __imp_PostQuitMessage      00000001400a9568     user32:USER32.dll
 0002:00000570       \177USER32_NULL_THUNK_DATA 00000001400a9570     user32:USER32.dll
 0002:00000578       __imp_VMProtectIsDebuggerPresent 00000001400a9578     VMProtectSDK64:VMProtectSDK64.dll
 0002:00000580       __imp_VMProtectEnd         00000001400a9580     VMProtectSDK64:VMProtectSDK64.dll
 0002:00000588       __imp_VMProtectBeginUltra  00000001400a9588     VMProtectSDK64:VMProtectSDK64.dll
 0002:00000590       __imp_VMProtectIsVirtualMachinePresent 00000001400a9590     VMProtectSDK64:VMProtectSDK64.dll
 0002:00000598       __imp_VMProtectBeginMutation 00000001400a9598     VMProtectSDK64:VMProtectSDK64.dll
 0002:000005a0       \177VMProtectSDK64_NULL_THUNK_DATA 00000001400a95a0     VMProtectSDK64:VMProtectSDK64.dll
 0002:000005a8       __imp_WinHttpCloseHandle   00000001400a95a8     winhttp:WINHTTP.dll
 0002:000005b0       __imp_WinHttpConnect       00000001400a95b0     winhttp:WINHTTP.dll
 0002:000005b8       __imp_WinHttpReadData      00000001400a95b8     winhttp:WINHTTP.dll
 0002:000005c0       __imp_WinHttpQueryDataAvailable 00000001400a95c0     winhttp:WINHTTP.dll
 0002:000005c8       __imp_WinHttpSetOption     00000001400a95c8     winhttp:WINHTTP.dll
 0002:000005d0       __imp_WinHttpQueryHeaders  00000001400a95d0     winhttp:WINHTTP.dll
 0002:000005d8       __imp_WinHttpReceiveResponse 00000001400a95d8     winhttp:WINHTTP.dll
 0002:000005e0       __imp_WinHttpOpen          00000001400a95e0     winhttp:WINHTTP.dll
 0002:000005e8       __imp_WinHttpSendRequest   00000001400a95e8     winhttp:WINHTTP.dll
 0002:000005f0       __imp_WinHttpOpenRequest   00000001400a95f0     winhttp:WINHTTP.dll
 0002:000005f8       \177WINHTTP_NULL_THUNK_DATA 00000001400a95f8     winhttp:WINHTTP.dll
 0002:00000600       __guard_check_icall_fptr   00000001400a9600     LIBCMT:guard_support.obj
 0002:00000608       __guard_xfg_check_icall_fptr 00000001400a9608     LIBCMT:guard_support.obj
 0002:00000610       __guard_dispatch_icall_fptr 00000001400a9610     LIBCMT:guard_support.obj
 0002:00000618       __guard_xfg_dispatch_icall_fptr 00000001400a9618     LIBCMT:guard_support.obj
 0002:00000620       __guard_xfg_table_dispatch_icall_fptr 00000001400a9620     LIBCMT:guard_support.obj
 0002:00000628       __castguard_check_failure_os_handled_fptr 00000001400a9628     LIBCMT:guard_support.obj
 0002:00000630       __guard_memcpy_fptr        00000001400a9630     libvcruntime:softmemtag.obj
 0002:00000638       __xc_a                     00000001400a9638     LIBCMT:initializers.obj
 0002:000006a8       __xc_z                     00000001400a96a8     LIBCMT:initializers.obj
 0002:000006b0       __xi_a                     00000001400a96b0     LIBCMT:initializers.obj
 0002:000006c8       __acrt_stdio_initializer   00000001400a96c8     libucrt:stdio_initializer.obj
 0002:000006d0       __acrt_tran_fma3_initializer 00000001400a96d0     libucrt:fma3_initializer.obj
 0002:000006d8       __acrt_timeset_initializer 00000001400a96d8     libucrt:timeset_initializer.obj
 0002:000006e0       __acrt_multibyte_initializer 00000001400a96e0     libucrt:multibyte_initializer.obj
 0002:000006e8       __acrt_fmode_initializer   00000001400a96e8     libucrt:fmode_initializer.obj
 0002:000006f0       __xi_z                     00000001400a96f0     LIBCMT:initializers.obj
 0002:000006f8       __xl_a                     00000001400a96f8     LIBCMT:tlssup.obj
 0002:00000700       __xl_z                     00000001400a9700     LIBCMT:tlssup.obj
 0002:00000708       __xp_a                     00000001400a9708     LIBCMT:initializers.obj
 0002:00000710       __acrt_locale_terminator   00000001400a9710     libucrt:locale_initializer.obj
 0002:00000718       __dcrt_console_output_terminator 00000001400a9718     libucrt:console_output_initializer.obj
 0002:00000720       __acrt_stdio_terminator    00000001400a9720     libucrt:stdio_initializer.obj
 0002:00000728       __xp_z                     00000001400a9728     LIBCMT:initializers.obj
 0002:00000730       __xt_a                     00000001400a9730     LIBCMT:initializers.obj
 0002:00000738       __xt_z                     00000001400a9738     LIBCMT:initializers.obj
 0002:00000808       ??_7exception@std@@6B@     00000001400a9808     main.obj
 0002:00000818       ??_C@_0BC@EOODALEL@Unknown?5exception@ 00000001400a9818     main.obj
 0002:00000838       ??_7bad_alloc@std@@6B@     00000001400a9838     main.obj
 0002:00000850       ??_7bad_array_new_length@std@@6B@ 00000001400a9850     main.obj
 0002:00000860       ??_C@_0BF@KINCDENJ@bad?5array?5new?5length@ 00000001400a9860     main.obj
 0002:00000878       ??_C@_0BA@JFNIOLAK@string?5too?5long@ 00000001400a9878     main.obj
 0002:00000890       ??_7bad_cast@std@@6B@      00000001400a9890     main.obj
 0002:000008a0       ??_C@_08EPJLHIJG@bad?5cast@ 00000001400a98a0     main.obj
 0002:000008b8       ??_7runtime_error@std@@6B@ 00000001400a98b8     main.obj
 0002:000008d0       ??_7_System_error@std@@6B@ 00000001400a98d0     main.obj
 0002:000008e0       ??_C@_02LMMGGCAJ@?3?5@     00000001400a98e0     main.obj
 0002:000008f0       ??_7system_error@std@@6B@  00000001400a98f0     main.obj
 0002:00000908       ??_7_Generic_error_category@std@@6B@ 00000001400a9908     main.obj
 0002:00000938       ??_C@_07DCLBNMLN@generic@  00000001400a9938     main.obj
 0002:00000948       ??_7_System_error_category@std@@6B@ 00000001400a9948     main.obj
 0002:00000978       ??_C@_06FHFOAHML@system@   00000001400a9978     main.obj
 0002:00000980       ?_Unknown_error@?6??message@_System_error_category@std@@UEBA?AV?$basic_string@DU?$char_traits@D@std@@V?$allocator@D@2@@3@H@Z@4QBDB 00000001400a9980     main.obj
 0002:00000990       ?_Grapheme_Break_property_data@std@@3U?$_Unicode_property_data@W4_Grapheme_Break_property_values@std@@$0FFL@$0A@@1@B 00000001400a9990     main.obj
 0002:000029c0       ?_Extended_Pictographic_property_data@std@@3U?$_Unicode_property_data@W4_Extended_Pictographic_property_values@std@@$0EO@$00@1@B 00000001400ab9c0     main.obj
 0002:00002ba0       ?_Width_estimate_intervals_v2@std@@3QB_UB 00000001400abba0     main.obj
 0002:00002ed0       ??_7_Facet_base@std@@6B@   00000001400abed0     main.obj
 0002:00002ee8       ??_C@_0BA@ELKIONDK@bad?5locale?5name@ 00000001400abee8     main.obj
 0002:00002ef8       ??_C@_05LAPONLG@false@     00000001400abef8     main.obj
 0002:00002f00       ??_C@_04LOAJBDKD@true@     00000001400abf00     main.obj
 0002:00002f05       ??_C@_00CNPNBAHC@@         00000001400abf05     main.obj
 0002:00002f10       ??_7format_error@std@@6B@  00000001400abf10     main.obj
 0002:00002f20       ??$__DIGIT_TABLE@D@std@@3QBDB 00000001400abf20     main.obj
 0002:00002ff0       ?__POW10_OFFSET@std@@3QBGB 00000001400abff0     main.obj
 0002:00003070       ?__POW10_OFFSET_2@std@@3QBGB 00000001400ac070     main.obj
 0002:00003100       ?__MIN_BLOCK_2@std@@3QBEB  00000001400ac100     main.obj
 0002:00003150       ?__FLOAT_POW5_INV_SPLIT@std@@3QB_KB 00000001400ac150     main.obj
 0002:00003250       ?__FLOAT_POW5_SPLIT@std@@3QB_KB 00000001400ac250     main.obj
 0002:000033c8       ?_Charconv_digits@std@@3QBDB 00000001400ac3c8     main.obj
 0002:000033f8       ??_7filesystem_error@filesystem@std@@6B@ 00000001400ac3f8     main.obj
 0002:00003408       ??_C@_03NONCDIOG@?3?5?$CC@ 00000001400ac408     main.obj
 0002:0000340c       ??_C@_04PHMHGEMA@?$CC?0?5?$CC@ 00000001400ac40c     main.obj
 0002:00003414       ??_C@_06OGCODMJI@exists@   00000001400ac414     main.obj
 0002:0000341c       ??_C@_06DJIHEMFI@status@   00000001400ac41c     main.obj
 0002:00003428       ?_o@?1???R<lambda_1>@?1??get@k32@lazy@@YAAEAUapi_t@34@XZ@QEBAPEB_WXZ@4U?$ObfWStr@$0DKNOKPOO@$0N@@detail@obf@@B 00000001400ac428     main.obj
 0002:00003448       ?_o@?1???R<lambda_3>@?1??get@k32@lazy@@YAAEAUapi_t@34@XZ@QEBAPEBDXZ@4U?$ObfStr@$0DKPBPIGH@$0M@@detail@obf@@B 00000001400ac448     main.obj
 0002:00003458       ?_o@?1???R<lambda_4>@?1??get@k32@lazy@@YAAEAUapi_t@34@XZ@QEBAPEBDXZ@4U?$ObfStr@$0DLAENCOA@$0BD@@detail@obf@@B 00000001400ac458     main.obj
 0002:00003470       ?_o@?1???R<lambda_5>@?1??get@k32@lazy@@YAAEAUapi_t@34@XZ@QEBAPEBDXZ@4U?$ObfStr@$0DLBGCLBJ@$0O@@detail@obf@@B 00000001400ac470     main.obj
 0002:00003480       ?_o@?1???R<lambda_6>@?1??get@k32@lazy@@YAAEAUapi_t@34@XZ@QEBAPEBDXZ@4U?$ObfStr@$0DLCJAFJC@$0BA@@detail@obf@@B 00000001400ac480     main.obj
 0002:00003490       ?_o@?1???R<lambda_7>@?1??get@k32@lazy@@YAAEAUapi_t@34@XZ@QEBAPEBDXZ@4U?$ObfStr@$0DLDMFOAL@$0BA@@detail@obf@@B 00000001400ac490     main.obj
 0002:000034a0       ?_o@?1???R<lambda_8>@?1??get@k32@lazy@@YAAEAUapi_t@34@XZ@QEBAPEBDXZ@4U?$ObfStr@$0DLEPKIIE@$0BC@@detail@obf@@B 00000001400ac4a0     main.obj
 0002:000034b8       ?_o@?1???R<lambda_9>@?1??get@k32@lazy@@YAAEAUapi_t@34@XZ@QEBAPEBDXZ@4U?$ObfStr@$0DLGCIBDN@$0BE@@detail@obf@@B 00000001400ac4b8     main.obj
 0002:000034d0       ?_o@?1???R<lambda_10>@?1??get@k32@lazy@@YAAEAUapi_t@34@XZ@QEBAPEBDXZ@4U?$ObfStr@$0DLHFNLLG@$0BC@@detail@obf@@B 00000001400ac4d0     main.obj
 0002:000034e8       ?_o@?1???R<lambda_11>@?1??get@k32@lazy@@YAAEAUapi_t@34@XZ@QEBAPEBDXZ@4U?$ObfStr@$0DLIHDECP@$0P@@detail@obf@@B 00000001400ac4e8     main.obj
 0002:000034f8       ?_o@?1???R<lambda_12>@?1??get@k32@lazy@@YAAEAUapi_t@34@XZ@QEBAPEBDXZ@4U?$ObfStr@$0DLJKAOKI@$0BF@@detail@obf@@B 00000001400ac4f8     main.obj
 0002:00003510       ?_o@?1???R<lambda_13>@?1??get@k32@lazy@@YAAEAUapi_t@34@XZ@QEBAPEBDXZ@4U?$ObfStr@$0DLKNGHCB@$0BM@@detail@obf@@B 00000001400ac510     main.obj
 0002:00003530       ?_o@?1???R<lambda_14>@?1??get@k32@lazy@@YAAEAUapi_t@34@XZ@QEBAPEBDXZ@4U?$ObfStr@$0DLMALAFK@$0BE@@detail@obf@@B 00000001400ac530     main.obj
 0002:00003548       ?_o@?1???R<lambda_15>@?1??get@k32@lazy@@YAAEAUapi_t@34@XZ@QEBAPEBDXZ@4U?$ObfStr@$0DLNDIKND@$0BE@@detail@obf@@B 00000001400ac548     main.obj
 0002:00003560       ?_o@?1???R<lambda_16>@?1??get@k32@lazy@@YAAEAUapi_t@34@XZ@QEBAPEBDXZ@4U?$ObfStr@$0DLOGODEM@$0P@@detail@obf@@B 00000001400ac560     main.obj
 0002:00003570       ?_o@?1???R<lambda_17>@?1??get@k32@lazy@@YAAEAUapi_t@34@XZ@QEBAPEBDXZ@4U?$ObfStr@$0DLPIDNMF@$0P@@detail@obf@@B 00000001400ac570     main.obj
 0002:00003580       ?_o@?1???R<lambda_18>@?1??get@k32@lazy@@YAAEAUapi_t@34@XZ@QEBAPEBDXZ@4U?$ObfStr@$0DMALBGHO@$0BA@@detail@obf@@B 00000001400ac580     main.obj
 0002:00003590       ?_o@?1???R<lambda_19>@?1??get@k32@lazy@@YAAEAUapi_t@34@XZ@QEBAPEBDXZ@4U?$ObfStr@$0DMBOGAPH@$0N@@detail@obf@@B 00000001400ac590     main.obj
 0002:000035a0       ?_o@?1???R<lambda_20>@?1??get@k32@lazy@@YAAEAUapi_t@34@XZ@QEBAPEBDXZ@4U?$ObfStr@$0DMDBLJHA@$0P@@detail@obf@@B 00000001400ac5a0     main.obj
 0002:000035b0       ?_o@?1???R<lambda_21>@?1??get@k32@lazy@@YAAEAUapi_t@34@XZ@QEBAPEBDXZ@4U?$ObfStr@$0DMEEJDOJ@$09@detail@obf@@B 00000001400ac5b0     main.obj
 0002:000035bc       ?_o@?1???R<lambda_22>@?1??get@k32@lazy@@YAAEAUapi_t@34@XZ@QEBAPEBDXZ@4U?$ObfStr@$0DMFHOMGC@$06@detail@obf@@B 00000001400ac5bc     main.obj
 0002:000035c8       ?_o@?1???R<lambda_23>@?1??get@k32@lazy@@YAAEAUapi_t@34@XZ@QEBAPEBDXZ@4U?$ObfStr@$0DMGKMGJL@$08@detail@obf@@B 00000001400ac5c8     main.obj
 0002:000035d8       ?_o@?1???R<lambda_24>@?1??get@k32@lazy@@YAAEAUapi_t@34@XZ@QEBAPEBDXZ@4U?$ObfStr@$0DMHMBPBE@$0BA@@detail@obf@@B 00000001400ac5d8     main.obj
 0002:000035e8       ?_o@?1???R<lambda_25>@?1??get@k32@lazy@@YAAEAUapi_t@34@XZ@QEBAPEBDXZ@4U?$ObfStr@$0DMIPGJIN@$0O@@detail@obf@@B 00000001400ac5e8     main.obj
 0002:000035f8       ?_o@?1???R<lambda_26>@?1??get@k32@lazy@@YAAEAUapi_t@34@XZ@QEBAPEBDXZ@4U?$ObfStr@$0DMKCECAG@$0BD@@detail@obf@@B 00000001400ac5f8     main.obj
 0002:00003610       ?_o@?1???R<lambda_27>@?1??get@k32@lazy@@YAAEAUapi_t@34@XZ@QEBAPEBDXZ@4U?$ObfStr@$0DMLFJMLP@$0BD@@detail@obf@@B 00000001400ac610     main.obj
 0002:00003628       ?_o@?1???R<lambda_28>@?1??get@k32@lazy@@YAAEAUapi_t@34@XZ@QEBAPEBDXZ@4U?$ObfStr@$0DMMIPFDI@$0BI@@detail@obf@@B 00000001400ac628     main.obj
 0002:00003640       ?_o@?1???R<lambda_29>@?1??get@k32@lazy@@YAAEAUapi_t@34@XZ@QEBAPEBDXZ@4U?$ObfStr@$0DMNLMPLB@$0BH@@detail@obf@@B 00000001400ac640     main.obj
 0002:00003658       ?_o@?1???R<lambda_30>@?1??get@k32@lazy@@YAAEAUapi_t@34@XZ@QEBAPEBDXZ@4U?$ObfStr@$0DMONBICK@$0BI@@detail@obf@@B 00000001400ac658     main.obj
 0002:00003670       ?_o@?1???R<lambda_31>@?1??get@k32@lazy@@YAAEAUapi_t@34@XZ@QEBAPEBDXZ@4U?$ObfStr@$0DNAAHCKD@$0BA@@detail@obf@@B 00000001400ac670     main.obj
 0002:00003680       ?_o@?1???R<lambda_32>@?1??get@k32@lazy@@YAAEAUapi_t@34@XZ@QEBAPEBDXZ@4U?$ObfStr@$0DNBDELNM@$0BA@@detail@obf@@B 00000001400ac680     main.obj
 0002:00003690       ?_o@?1???R<lambda_33>@?1??get@k32@lazy@@YAAEAUapi_t@34@XZ@QEBAPEBDXZ@4U?$ObfStr@$0DNCGKEFF@$0N@@detail@obf@@B 00000001400ac690     main.obj
 0002:000036a0       ?_o@?1???R<lambda_34>@?1??get@k32@lazy@@YAAEAUapi_t@34@XZ@QEBAPEBDXZ@4U?$ObfStr@$0DNDJPOMO@$0BD@@detail@obf@@B 00000001400ac6a0     main.obj
 0002:000036b8       ?_o@?1???R<lambda_35>@?1??get@k32@lazy@@YAAEAUapi_t@34@XZ@QEBAPEBDXZ@4U?$ObfStr@$0DNEMNHEH@$0BF@@detail@obf@@B 00000001400ac6b8     main.obj
 0002:000036d0       ?_o@?1???R<lambda_36>@?1??get@k32@lazy@@YAAEAUapi_t@34@XZ@QEBAPEBDXZ@4U?$ObfStr@$0DNFOCBMA@$0BD@@detail@obf@@B 00000001400ac6d0     main.obj
 0002:000036e8       ?_o@?1???R<lambda_37>@?1??get@k32@lazy@@YAAEAUapi_t@34@XZ@QEBAPEBDXZ@4U?$ObfStr@$0DNHBHKHJ@$0M@@detail@obf@@B 00000001400ac6e8     main.obj
 0002:000036f8       ?_o@?1???R<lambda_38>@?1??get@k32@lazy@@YAAEAUapi_t@34@XZ@QEBAPEBDXZ@4U?$ObfStr@$0DNIEFEPC@$0M@@detail@obf@@B 00000001400ac6f8     main.obj
 0002:00003708       ?_o@?1???R<lambda_39>@?1??get@k32@lazy@@YAAEAUapi_t@34@XZ@QEBAPEBDXZ@4U?$ObfStr@$0DNJHKNGL@$09@detail@obf@@B 00000001400ac708     main.obj
 0002:00003718       ?_o@?1???R<lambda_40>@?1??get@k32@lazy@@YAAEAUapi_t@34@XZ@QEBAPEBDXZ@4U?$ObfStr@$0DNKKIHOE@$08@detail@obf@@B 00000001400ac718     main.obj
 0002:00003728       ?_o@?1???R<lambda_41>@?1??get@k32@lazy@@YAAEAUapi_t@34@XZ@QEBAPEBDXZ@4U?$ObfStr@$0DNLNNABN@$0BB@@detail@obf@@B 00000001400ac728     main.obj
 0002:00003740       ?_o@?1???R<lambda_42>@?1??get@k32@lazy@@YAAEAUapi_t@34@XZ@QEBAPEBDXZ@4U?$ObfStr@$0DNMPCKJG@$0N@@detail@obf@@B 00000001400ac740     main.obj
 0002:00003750       ?_o@?1???R<lambda_43>@?1??get@k32@lazy@@YAAEAUapi_t@34@XZ@QEBAPEBDXZ@4U?$ObfStr@$0DNOCADAP@$0O@@detail@obf@@B 00000001400ac750     main.obj
 0002:00003760       ?_o@?1???R<lambda_44>@?1??get@k32@lazy@@YAAEAUapi_t@34@XZ@QEBAPEBDXZ@4U?$ObfStr@$0DNPFFNII@$0M@@detail@obf@@B 00000001400ac760     main.obj
 0002:00003770       ?_o@?1???R<lambda_45>@?1??get@k32@lazy@@YAAEAUapi_t@34@XZ@QEBAPEBDXZ@4U?$ObfStr@$0DOAILGAB@$0BB@@detail@obf@@B 00000001400ac770     main.obj
 0002:00003788       ?_o@?1???R<lambda_46>@?1??get@k32@lazy@@YAAEAUapi_t@34@XZ@QEBAPEBDXZ@4U?$ObfStr@$0DOBLIALK@$0BN@@detail@obf@@B 00000001400ac788     main.obj
 0002:000037a8       ?_o@?1???R<lambda_47>@?1??get@k32@lazy@@YAAEAUapi_t@34@XZ@QEBAPEBDXZ@4U?$ObfStr@$0DOCONJDD@$0BA@@detail@obf@@B 00000001400ac7a8     main.obj
 0002:000037b8       ?_o@?1???R<lambda_48>@?1??get@k32@lazy@@YAAEAUapi_t@34@XZ@QEBAPEBDXZ@4U?$ObfStr@$0DOEADDKM@$0BB@@detail@obf@@B 00000001400ac7b8     main.obj
 0002:000037d0       ?_o@?1???R<lambda_49>@?1??get@k32@lazy@@YAAEAUapi_t@34@XZ@QEBAPEBDXZ@4U?$ObfStr@$0DOFDAMCF@$0BB@@detail@obf@@B 00000001400ac7d0     main.obj
 0002:000037e8       ?_o@?1???R<lambda_50>@?1??get@k32@lazy@@YAAEAUapi_t@34@XZ@QEBAPEBDXZ@4U?$ObfStr@$0DOGGGFFO@$0BD@@detail@obf@@B 00000001400ac7e8     main.obj
 0002:00003800       ?_o@?1???R<lambda_51>@?1??get@k32@lazy@@YAAEAUapi_t@34@XZ@QEBAPEBDXZ@4U?$ObfStr@$0DOHJLPNH@$0P@@detail@obf@@B 00000001400ac800     main.obj
 0002:00003810       ?_o@?1???R<lambda_52>@?1??get@k32@lazy@@YAAEAUapi_t@34@XZ@QEBAPEBDXZ@4U?$ObfStr@$0DOIMIIFA@$0BB@@detail@obf@@B 00000001400ac810     main.obj
 0002:00003828       ?_o@?1???R<lambda_53>@?1??get@k32@lazy@@YAAEAUapi_t@34@XZ@QEBAPEBDXZ@4U?$ObfStr@$0DOJPOCMJ@$0O@@detail@obf@@B 00000001400ac828     main.obj
 0002:00003838       ?_o@?1???R<lambda_54>@?1??get@k32@lazy@@YAAEAUapi_t@34@XZ@QEBAPEBDXZ@4U?$ObfStr@$0DOLBDLEC@$09@detail@obf@@B 00000001400ac838     main.obj
 0002:00003848       ?_o@?1???R<lambda_55>@?1??get@k32@lazy@@YAAEAUapi_t@34@XZ@QEBAPEBDXZ@4U?$ObfStr@$0DOMEBFPL@$0BB@@detail@obf@@B 00000001400ac848     main.obj
 0002:00003860       ?_o@?1???R<lambda_56>@?1??get@k32@lazy@@YAAEAUapi_t@34@XZ@QEBAPEBDXZ@4U?$ObfStr@$0DONHGOHE@$0BB@@detail@obf@@B 00000001400ac860     main.obj
 0002:00003878       ?_o@?1???R<lambda_57>@?1??get@k32@lazy@@YAAEAUapi_t@34@XZ@QEBAPEBDXZ@4U?$ObfStr@$0DOOKLION@$0BD@@detail@obf@@B 00000001400ac878     main.obj
 0002:00003890       ?_o@?1???R<lambda_58>@?1??get@k32@lazy@@YAAEAUapi_t@34@XZ@QEBAPEBDXZ@4U?$ObfStr@$0DOPNJBGG@$0N@@detail@obf@@B 00000001400ac890     main.obj
 0002:000038a0       ?_o@?1???R<lambda_59>@?1??get@k32@lazy@@YAAEAUapi_t@34@XZ@QEBAPEBDXZ@4U?$ObfStr@$0DPBAOLJP@$0N@@detail@obf@@B 00000001400ac8a0     main.obj
 0002:000038b0       ?_o@?1???R<lambda_60>@?1??get@k32@lazy@@YAAEAUapi_t@34@XZ@QEBAPEBDXZ@4U?$ObfStr@$0DPCDMEBI@$0P@@detail@obf@@B 00000001400ac8b0     main.obj
 0002:000038c0       ?_o@?1???R<lambda_61>@?1??get@k32@lazy@@YAAEAUapi_t@34@XZ@QEBAPEBDXZ@4U?$ObfStr@$0DPDFBOJB@$0M@@detail@obf@@B 00000001400ac8c0     main.obj
 0002:000038d0       ?_o@?1???R<lambda_62>@?1??get@k32@lazy@@YAAEAUapi_t@34@XZ@QEBAPEBDXZ@4U?$ObfStr@$0DPEIHHAK@$0P@@detail@obf@@B 00000001400ac8d0     main.obj
 0002:000038e0       ?_o@?1???R<lambda_63>@?1??get@k32@lazy@@YAAEAUapi_t@34@XZ@QEBAPEBDXZ@4U?$ObfStr@$0DPFLEBID@$0O@@detail@obf@@B 00000001400ac8e0     main.obj
 0002:000038f0       ?_o@?1???R<lambda_64>@?1??get@k32@lazy@@YAAEAUapi_t@34@XZ@QEBAPEBDXZ@4U?$ObfStr@$0DPGOJKDM@$0N@@detail@obf@@B 00000001400ac8f0     main.obj
 0002:00003900       ?_o@?1???R<lambda_65>@?1??get@k32@lazy@@YAAEAUapi_t@34@XZ@QEBAPEBDXZ@4U?$ObfStr@$0DPIBPELF@$0N@@detail@obf@@B 00000001400ac900     main.obj
 0002:00003910       ?_o@?1???R<lambda_66>@?1??get@k32@lazy@@YAAEAUapi_t@34@XZ@QEBAPEBDXZ@4U?$ObfStr@$0DPJEMNCO@$0P@@detail@obf@@B 00000001400ac910     main.obj
 0002:00003920       ?_o@?1???R<lambda_67>@?1??get@k32@lazy@@YAAEAUapi_t@34@XZ@QEBAPEBDXZ@4U?$ObfStr@$0DPKGCHKH@$09@detail@obf@@B 00000001400ac920     main.obj
 0002:00003930       ?_o@?1???R<lambda_68>@?1??get@k32@lazy@@YAAEAUapi_t@34@XZ@QEBAPEBDXZ@4U?$ObfStr@$0DPLJHACA@$0M@@detail@obf@@B 00000001400ac930     main.obj
 0002:00003940       ?_o@?1???R<lambda_69>@?1??get@k32@lazy@@YAAEAUapi_t@34@XZ@QEBAPEBDXZ@4U?$ObfStr@$0DPMMEJFJ@$0L@@detail@obf@@B 00000001400ac940     main.obj
 0002:00003950       ?_o@?1???R<lambda_70>@?1??get@k32@lazy@@YAAEAUapi_t@34@XZ@QEBAPEBDXZ@4U?$ObfStr@$0DPNPKDNC@$0L@@detail@obf@@B 00000001400ac950     main.obj
 0002:00003960       ?_o@?1???R<lambda_71>@?1??get@k32@lazy@@YAAEAUapi_t@34@XZ@QEBAPEBDXZ@4U?$ObfStr@$0DPPCPMEL@$0N@@detail@obf@@B 00000001400ac960     main.obj
 0002:00003970       ?_o@?1???R<lambda_72>@?1??get@k32@lazy@@YAAEAUapi_t@34@XZ@QEBAPEBDXZ@4U?$ObfStr@$0EAAFNGME@$0P@@detail@obf@@B 00000001400ac970     main.obj
 0002:00003980       ?_o@?1???R<lambda_73>@?1??get@k32@lazy@@YAAEAUapi_t@34@XZ@QEBAPEBDXZ@4U?$ObfStr@$0EABHCPHN@$09@detail@obf@@B 00000001400ac980     main.obj
 0002:00003990       ?_o@?1???R<lambda_74>@?1??get@k32@lazy@@YAAEAUapi_t@34@XZ@QEBAPEBDXZ@4U?$ObfStr@$0EACKHJPG@$0M@@detail@obf@@B 00000001400ac990     main.obj
 0002:000039a0       ?_o@?1???R<lambda_75>@?1??get@k32@lazy@@YAAEAUapi_t@34@XZ@QEBAPEBDXZ@4U?$ObfStr@$0EADNFCGP@$08@detail@obf@@B 00000001400ac9a0     main.obj
 0002:000039b0       ?_o@?1???R<lambda_76>@?1??get@k32@lazy@@YAAEAUapi_t@34@XZ@QEBAPEBDXZ@4U?$ObfStr@$0EAFAKMOI@$08@detail@obf@@B 00000001400ac9b0     main.obj
 0002:000039c0       ?_o@?1???R<lambda_77>@?1??get@k32@lazy@@YAAEAUapi_t@34@XZ@QEBAPEBDXZ@4U?$ObfStr@$0EAGDIFGB@$0P@@detail@obf@@B 00000001400ac9c0     main.obj
 0002:000039d0       ?_o@?1???R<lambda_78>@?1??get@k32@lazy@@YAAEAUapi_t@34@XZ@QEBAPEBDXZ@4U?$ObfStr@$0EAHGNPJK@$05@detail@obf@@B 00000001400ac9d0     main.obj
 0002:000039d8       ?_o@?1???R<lambda_79>@?1??get@k32@lazy@@YAAEAUapi_t@34@XZ@QEBAPEBDXZ@4U?$ObfStr@$0EAIICIBD@$0N@@detail@obf@@B 00000001400ac9d8     main.obj
 0002:000039e8       ?_o@?1???R<lambda_80>@?1??get@k32@lazy@@YAAEAUapi_t@34@XZ@QEBAPEBDXZ@4U?$ObfStr@$0EAJLACIM@$0BD@@detail@obf@@B 00000001400ac9e8     main.obj
 0002:00003a00       ?_o@?1???R<lambda_81>@?1??get@k32@lazy@@YAAEAUapi_t@34@XZ@QEBAPEBDXZ@4U?$ObfStr@$0EAKOFLAF@$08@detail@obf@@B 00000001400aca00     main.obj
 0002:00003a10       ?_o@?1???R<lambda_82>@?1??get@k32@lazy@@YAAEAUapi_t@34@XZ@QEBAPEBDXZ@4U?$ObfStr@$0EAMBLFLO@$0M@@detail@obf@@B 00000001400aca10     main.obj
 0002:00003a20       ?_o@?1???R<lambda_83>@?1??get@k32@lazy@@YAAEAUapi_t@34@XZ@QEBAPEBDXZ@4U?$ObfStr@$0EANEIODH@$0M@@detail@obf@@B 00000001400aca20     main.obj
 0002:00003a30       ?_o@?1???R<lambda_84>@?1??get@k32@lazy@@YAAEAUapi_t@34@XZ@QEBAPEBDXZ@4U?$ObfStr@$0EAOHNILA@$07@detail@obf@@B 00000001400aca30     main.obj
 0002:00003a38       ?_o@?1???R<lambda_85>@?1??get@k32@lazy@@YAAEAUapi_t@34@XZ@QEBAPEBDXZ@4U?$ObfStr@$0EAPJDBCJ@$08@detail@obf@@B 00000001400aca38     main.obj
 0002:00003a48       ?_o@?1???R<lambda_86>@?1??get@k32@lazy@@YAAEAUapi_t@34@XZ@QEBAPEBDXZ@4U?$ObfStr@$0EBAMALKC@$0M@@detail@obf@@B 00000001400aca48     main.obj
 0002:00003a58       ?_o@?1???R<lambda_87>@?1??get@k32@lazy@@YAAEAUapi_t@34@XZ@QEBAPEBDXZ@4U?$ObfStr@$0EBBPGENL@$0M@@detail@obf@@B 00000001400aca58     main.obj
 0002:00003a68       ?_o@?1???R<lambda_88>@?1??get@k32@lazy@@YAAEAUapi_t@34@XZ@QEBAPEBDXZ@4U?$ObfStr@$0EBDCLNFE@$07@detail@obf@@B 00000001400aca68     main.obj
 0002:00003a70       ?_o@?1???R<lambda_89>@?1??get@k32@lazy@@YAAEAUapi_t@34@XZ@QEBAPEBDXZ@4U?$ObfStr@$0EBEFJHMN@$0CG@@detail@obf@@B 00000001400aca70     main.obj
 0002:00003a98       ?_o@?1???R<lambda_90>@?1??get@k32@lazy@@YAAEAUapi_t@34@XZ@QEBAPEBDXZ@4U?$ObfStr@$0EBFIOAEG@$0BM@@detail@obf@@B 00000001400aca98     main.obj
 0002:00003ab8       ?_o@?1???R<lambda_91>@?1??get@k32@lazy@@YAAEAUapi_t@34@XZ@QEBAPEBDXZ@4U?$ObfStr@$0EBGKDKPP@$0BF@@detail@obf@@B 00000001400acab8     main.obj
 0002:00003ad0       ?_o@?1???R<lambda_92>@?1??get@k32@lazy@@YAAEAUapi_t@34@XZ@QEBAPEBDXZ@4U?$ObfStr@$0EBHNBDHI@$0BF@@detail@obf@@B 00000001400acad0     main.obj
 0002:00003ae8       ?_o@?1???R<lambda_93>@?1??get@k32@lazy@@YAAEAUapi_t@34@XZ@QEBAPEBDXZ@4U?$ObfStr@$0EBJAGNPB@$0BG@@detail@obf@@B 00000001400acae8     main.obj
 0002:00003b00       ?_o@?1???R<lambda_94>@?1??get@k32@lazy@@YAAEAUapi_t@34@XZ@QEBAPEBDXZ@4U?$ObfStr@$0EBKDEGGK@$0BE@@detail@obf@@B 00000001400acb00     main.obj
 0002:00003b18       ?_o@?1???R<lambda_95>@?1??get@k32@lazy@@YAAEAUapi_t@34@XZ@QEBAPEBDXZ@4U?$ObfStr@$0EBLGJAOD@$0BK@@detail@obf@@B 00000001400acb18     main.obj
 0002:00003b38       ?_o@?1???R<lambda_96>@?1??get@k32@lazy@@YAAEAUapi_t@34@XZ@QEBAPEBDXZ@4U?$ObfStr@$0EBMJOJBM@$0BJ@@detail@obf@@B 00000001400acb38     main.obj
 0002:00003b58       ?_o@?1???R<lambda_97>@?1??get@k32@lazy@@YAAEAUapi_t@34@XZ@QEBAPEBDXZ@4U?$ObfStr@$0EBNMMDJF@$0BI@@detail@obf@@B 00000001400acb58     main.obj
 0002:00003b70       ?_o@?1???R<lambda_98>@?1??get@k32@lazy@@YAAEAUapi_t@34@XZ@QEBAPEBDXZ@4U?$ObfStr@$0EBOOBMAO@$0BI@@detail@obf@@B 00000001400acb70     main.obj
 0002:00003b88       ?_o@?1???R<lambda_99>@?1??get@k32@lazy@@YAAEAUapi_t@34@XZ@QEBAPEBDXZ@4U?$ObfStr@$0ECABHGIH@$0N@@detail@obf@@B 00000001400acb88     main.obj
 0002:00003b98       ?_o@?1???R<lambda_100>@?1??get@k32@lazy@@YAAEAUapi_t@34@XZ@QEBAPEBDXZ@4U?$ObfStr@$0ECBEEPAA@$0N@@detail@obf@@B 00000001400acb98     main.obj
 0002:00003ba8       ?_o@?1???R<lambda_101>@?1??get@k32@lazy@@YAAEAUapi_t@34@XZ@QEBAPEBDXZ@4U?$ObfStr@$0ECCHJJLJ@$0P@@detail@obf@@B 00000001400acba8     main.obj
 0002:00003bb8       ?_o@?1???R<lambda_102>@?1??get@k32@lazy@@YAAEAUapi_t@34@XZ@QEBAPEBDXZ@4U?$ObfStr@$0ECDKPCDC@$0P@@detail@obf@@B 00000001400acbb8     main.obj
 0002:00003bc8       ?_o@?1???R<lambda_103>@?1??get@k32@lazy@@YAAEAUapi_t@34@XZ@QEBAPEBDXZ@4U?$ObfStr@$0ECENMMKL@$0P@@detail@obf@@B 00000001400acbc8     main.obj
 0002:00003bd8       ?_o@?1???R<lambda_104>@?1??get@k32@lazy@@YAAEAUapi_t@34@XZ@QEBAPEBDXZ@4U?$ObfStr@$0ECFPCFCE@$0BJ@@detail@obf@@B 00000001400acbd8     main.obj
 0002:00003bf8       ?_o@?1???R<lambda_105>@?1??get@k32@lazy@@YAAEAUapi_t@34@XZ@QEBAPEBDXZ@4U?$ObfStr@$0ECHCHOFN@$0BM@@detail@obf@@B 00000001400acbf8     main.obj
 0002:00003c18       ?_o@?1???R<lambda_106>@?1??get@k32@lazy@@YAAEAUapi_t@34@XZ@QEBAPEBDXZ@4U?$ObfStr@$0ECIFEING@$0BC@@detail@obf@@B 00000001400acc18     main.obj
 0002:00003c30       ?_o@?1???R<lambda_107>@?1??get@k32@lazy@@YAAEAUapi_t@34@XZ@QEBAPEBDXZ@4U?$ObfStr@$0ECJIKBEP@$0M@@detail@obf@@B 00000001400acc30     main.obj
 0002:00003c40       ?_o@?1???R<lambda_108>@?1??get@k32@lazy@@YAAEAUapi_t@34@XZ@QEBAPEBDXZ@4U?$ObfStr@$0ECKLPLMI@$0BC@@detail@obf@@B 00000001400acc40     main.obj
 0002:00003c58       ?_o@?1???R<lambda_109>@?1??get@k32@lazy@@YAAEAUapi_t@34@XZ@QEBAPEBDXZ@4U?$ObfStr@$0ECLONEEB@$0BH@@detail@obf@@B 00000001400acc58     main.obj
 0002:00003c70       ?_o@?1???R<lambda_110>@?1??get@k32@lazy@@YAAEAUapi_t@34@XZ@QEBAPEBDXZ@4U?$ObfStr@$0ECNACOPK@$0BB@@detail@obf@@B 00000001400acc70     main.obj
 0002:00003c88       ?_o@?1???R<lambda_111>@?1??get@k32@lazy@@YAAEAUapi_t@34@XZ@QEBAPEBDXZ@4U?$ObfStr@$0ECODAHHD@$0M@@detail@obf@@B 00000001400acc88     main.obj
 0002:00003c98       ?_o@?1???R<lambda_112>@?1??get@k32@lazy@@YAAEAUapi_t@34@XZ@QEBAPEBDXZ@4U?$ObfStr@$0ECPGFBOM@$0BB@@detail@obf@@B 00000001400acc98     main.obj
 0002:00003cb0       ?_o@?1???R<lambda_113>@?1??get@k32@lazy@@YAAEAUapi_t@34@XZ@QEBAPEBDXZ@4U?$ObfStr@$0EDAJKKGF@$0BK@@detail@obf@@B 00000001400accb0     main.obj
 0002:00003cd0       ?_o@?1???R<lambda_114>@?1??get@k32@lazy@@YAAEAUapi_t@34@XZ@QEBAPEBDXZ@4U?$ObfStr@$0EDBMIEJO@$0N@@detail@obf@@B 00000001400accd0     main.obj
 0002:00003ce0       ?_o@?1???R<lambda_115>@?1??get@k32@lazy@@YAAEAUapi_t@34@XZ@QEBAPEBDXZ@4U?$ObfStr@$0EDCPNNBH@$0BI@@detail@obf@@B 00000001400acce0     main.obj
 0002:00003cf8       ?_o@?1???R<lambda_116>@?1??get@k32@lazy@@YAAEAUapi_t@34@XZ@QEBAPEBDXZ@4U?$ObfStr@$0EDEBDHJA@$0BI@@detail@obf@@B 00000001400accf8     main.obj
 0002:00003d10       ?_o@?1???R<lambda_117>@?1??get@k32@lazy@@YAAEAUapi_t@34@XZ@QEBAPEBDXZ@4U?$ObfStr@$0EDFEAAAJ@$0BK@@detail@obf@@B 00000001400acd10     main.obj
 0002:00003d30       ?_o@?1???R<lambda_118>@?1??get@k32@lazy@@YAAEAUapi_t@34@XZ@QEBAPEBDXZ@4U?$ObfStr@$0EDGHFKIC@$0BE@@detail@obf@@B 00000001400acd30     main.obj
 0002:00003d48       ?_o@?1???R<lambda_119>@?1??get@k32@lazy@@YAAEAUapi_t@34@XZ@QEBAPEBDXZ@4U?$ObfStr@$0EDHKLDDL@$0BF@@detail@obf@@B 00000001400acd48     main.obj
 0002:00003d60       ?_o@?1???R<lambda_120>@?1??get@k32@lazy@@YAAEAUapi_t@34@XZ@QEBAPEBDXZ@4U?$ObfStr@$0EDININLE@$0BA@@detail@obf@@B 00000001400acd60     main.obj
 0002:00003d70       ?_o@?1???R<lambda_121>@?1??get@k32@lazy@@YAAEAUapi_t@34@XZ@QEBAPEBDXZ@4U?$ObfStr@$0EDKAOGCN@$0BE@@detail@obf@@B 00000001400acd70     main.obj
 0002:00003d88       ?_o@?1???R<lambda_122>@?1??get@k32@lazy@@YAAEAUapi_t@34@XZ@QEBAPEBDXZ@4U?$ObfStr@$0EDLCDAKG@$0O@@detail@obf@@B 00000001400acd88     main.obj
 0002:00003d98       ?_o@?1???R<lambda_123>@?1??get@k32@lazy@@YAAEAUapi_t@34@XZ@QEBAPEBDXZ@4U?$ObfStr@$0EDMFAJNP@$0O@@detail@obf@@B 00000001400acd98     main.obj
 0002:00003da8       ?_o@?1???R<lambda_124>@?1??get@k32@lazy@@YAAEAUapi_t@34@XZ@QEBAPEBDXZ@4U?$ObfStr@$0EDNIGCFI@$0N@@detail@obf@@B 00000001400acda8     main.obj
 0002:00003db8       ?_o@?1???R<lambda_125>@?1??get@k32@lazy@@YAAEAUapi_t@34@XZ@QEBAPEBDXZ@4U?$ObfStr@$0EDOLLMNB@$0N@@detail@obf@@B 00000001400acdb8     main.obj
 0002:00003dc8       ?_o@?1???R<lambda_126>@?1??get@k32@lazy@@YAAEAUapi_t@34@XZ@QEBAPEBDXZ@4U?$ObfStr@$0EDPOJFEK@$0O@@detail@obf@@B 00000001400acdc8     main.obj
 0002:00003dd8       ?_o@?1???R<lambda_127>@?1??get@k32@lazy@@YAAEAUapi_t@34@XZ@QEBAPEBDXZ@4U?$ObfStr@$0EEBBOPMD@$0N@@detail@obf@@B 00000001400acdd8     main.obj
 0002:00003de8       ?_o@?1???R<lambda_128>@?1??get@k32@lazy@@YAAEAUapi_t@34@XZ@QEBAPEBDXZ@4U?$ObfStr@$0EECDDIHM@$0P@@detail@obf@@B 00000001400acde8     main.obj
 0002:00003df8       ?_o@?1???R<lambda_129>@?1??get@k32@lazy@@YAAEAUapi_t@34@XZ@QEBAPEBDXZ@4U?$ObfStr@$0EEDGBCPF@$0BD@@detail@obf@@B 00000001400acdf8     main.obj
 0002:00003e10       ?_o@?1???R<lambda_1>@?1??get@dbghelp_@lazy@@YAAEAUapi_t@34@XZ@QEBAPEB_WXZ@4U?$ObfWStr@$0EEEJGLGO@$0M@@detail@obf@@B 00000001400ace10     main.obj
 0002:00003e28       ?_o@?1???R<lambda_3>@?1??get@dbghelp_@lazy@@YAAEAUapi_t@34@XZ@QEBAPEBDXZ@4U?$ObfStr@$0EEFMEFOH@$0P@@detail@obf@@B 00000001400ace28     main.obj
 0002:00003e38       ?_o@?1???R<lambda_4>@?1??get@dbghelp_@lazy@@YAAEAUapi_t@34@XZ@QEBAPEBDXZ@4U?$ObfStr@$0EEGPJOGA@$0BB@@detail@obf@@B 00000001400ace38     main.obj
 0002:00003e50       ?_o@?1???R<lambda_5>@?1??get@dbghelp_@lazy@@YAAEAUapi_t@34@XZ@QEBAPEBDXZ@4U?$ObfStr@$0EEICOIJJ@$0N@@detail@obf@@B 00000001400ace50     main.obj
 0002:00003e60       ?_o@?1???R<lambda_6>@?1??get@dbghelp_@lazy@@YAAEAUapi_t@34@XZ@QEBAPEBDXZ@4U?$ObfStr@$0EEJFMBBC@$0BC@@detail@obf@@B 00000001400ace60     main.obj
 0002:00003e78       ?_o@?1???R<lambda_7>@?1??get@dbghelp_@lazy@@YAAEAUapi_t@34@XZ@QEBAPEBDXZ@4U?$ObfStr@$0EEKHBLIL@$0L@@detail@obf@@B 00000001400ace78     main.obj
 0002:00003e88       ?_o@?1???R<lambda_8>@?1??get@dbghelp_@lazy@@YAAEAUapi_t@34@XZ@QEBAPEBDXZ@4U?$ObfStr@$0EELKHEAE@$0O@@detail@obf@@B 00000001400ace88     main.obj
 0002:00003e98       ?_o@?1???R<lambda_9>@?1??get@dbghelp_@lazy@@YAAEAUapi_t@34@XZ@QEBAPEBDXZ@4U?$ObfStr@$0EEMNEOLN@$0O@@detail@obf@@B 00000001400ace98     main.obj
 0002:00003ea8       ?_o@?1???R<lambda_1>@?1??get@winhttp_@lazy@@YAAEAUapi_t@34@XZ@QEBAPEB_WXZ@4U?$ObfWStr@$0EEOAKHDG@$0M@@detail@obf@@B 00000001400acea8     main.obj
 0002:00003ec0       ?_o@?1???R<lambda_3>@?1??get@winhttp_@lazy@@YAAEAUapi_t@34@XZ@QEBAPEBDXZ@4U?$ObfStr@$0EEPDPBKP@$0BA@@detail@obf@@B 00000001400acec0     main.obj
 0002:00003ed0       ?_o@?1???R<lambda_4>@?1??get@winhttp_@lazy@@YAAEAUapi_t@34@XZ@QEBAPEBDXZ@4U?$ObfStr@$0EFAGMKCI@$0M@@detail@obf@@B 00000001400aced0     main.obj
 0002:00003ee0       ?_o@?1???R<lambda_5>@?1??get@winhttp_@lazy@@YAAEAUapi_t@34@XZ@QEBAPEBDXZ@4U?$ObfStr@$0EFBICEKB@$0BD@@detail@obf@@B 00000001400acee0     main.obj
 0002:00003ef8       ?_o@?1???R<lambda_6>@?1??get@winhttp_@lazy@@YAAEAUapi_t@34@XZ@QEBAPEBDXZ@4U?$ObfStr@$0EFCLHNNK@$0P@@detail@obf@@B 00000001400acef8     main.obj
 0002:00003f08       ?_o@?1???R<lambda_7>@?1??get@winhttp_@lazy@@YAAEAUapi_t@34@XZ@QEBAPEBDXZ@4U?$ObfStr@$0EFDOFGFD@$0BD@@detail@obf@@B 00000001400acf08     main.obj
 0002:00003f20       ?_o@?1???R<lambda_8>@?1??get@winhttp_@lazy@@YAAEAUapi_t@34@XZ@QEBAPEBDXZ@4U?$ObfStr@$0EFFBKAMM@$0BD@@detail@obf@@B 00000001400acf20     main.obj
 0002:00003f38       ?_o@?1???R<lambda_9>@?1??get@winhttp_@lazy@@YAAEAUapi_t@34@XZ@QEBAPEBDXZ@4U?$ObfStr@$0EFGEPJEF@$0BH@@detail@obf@@B 00000001400acf38     main.obj
 0002:00003f50       ?_o@?1???R<lambda_10>@?1??get@winhttp_@lazy@@YAAEAUapi_t@34@XZ@QEBAPEBDXZ@4U?$ObfStr@$0EFHHNDPO@$0BE@@detail@obf@@B 00000001400acf50     main.obj
 0002:00003f68       ?_o@?1???R<lambda_11>@?1??get@winhttp_@lazy@@YAAEAUapi_t@34@XZ@QEBAPEBDXZ@4U?$ObfStr@$0EFIJCMHH@$0BA@@detail@obf@@B 00000001400acf68     main.obj
 0002:00003f78       ?_o@?1???R<lambda_12>@?1??get@winhttp_@lazy@@YAAEAUapi_t@34@XZ@QEBAPEBDXZ@4U?$ObfStr@$0EFJMAGPA@$0BD@@detail@obf@@B 00000001400acf78     main.obj
 0002:00003f90       ?_o@?1???R<lambda_1>@?1??get@advapi32_@lazy@@YAAEAUapi_t@34@XZ@QEBAPEB_WXZ@4U?$ObfWStr@$0EFKPFPGJ@$0N@@detail@obf@@B 00000001400acf90     main.obj
 0002:00003fb0       ?_o@?1???R<lambda_3>@?1??get@advapi32_@lazy@@YAAEAUapi_t@34@XZ@QEBAPEBDXZ@4U?$ObfStr@$0EFMCKJOC@$0BA@@detail@obf@@B 00000001400acfb0     main.obj
 0002:00003fc0       ?_o@?1???R<lambda_4>@?1??get@advapi32_@lazy@@YAAEAUapi_t@34@XZ@QEBAPEBDXZ@4U?$ObfStr@$0EFNFICBL@$0O@@detail@obf@@B 00000001400acfc0     main.obj
 0002:00003fd0       ?_o@?1???R<lambda_5>@?1??get@advapi32_@lazy@@YAAEAUapi_t@34@XZ@QEBAPEBDXZ@4U?$ObfStr@$0EFOINMJE@$0BB@@detail@obf@@B 00000001400acfd0     main.obj
 0002:00003fe8       ?_o@?1???R<lambda_6>@?1??get@advapi32_@lazy@@YAAEAUapi_t@34@XZ@QEBAPEBDXZ@4U?$ObfStr@$0EFPKDFAN@$0P@@detail@obf@@B 00000001400acfe8     main.obj
 0002:00003ff8       ?_o@?1???R<lambda_7>@?1??get@advapi32_@lazy@@YAAEAUapi_t@34@XZ@QEBAPEBDXZ@4U?$ObfStr@$0EGANAPIG@$0M@@detail@obf@@B 00000001400acff8     main.obj
 0002:00004008       ?_o@?1???R<lambda_8>@?1??get@advapi32_@lazy@@YAAEAUapi_t@34@XZ@QEBAPEBDXZ@4U?$ObfStr@$0EGCAFIDP@$0BA@@detail@obf@@B 00000001400ad008     main.obj
 0002:00004018       ?_o@?1???R<lambda_1>@?1??get@d3d11_@lazy@@YAAEAUapi_t@34@XZ@QEBAPEB_WXZ@4U?$ObfWStr@$0EKOJNAPI@$09@detail@obf@@B 00000001400ad018     main.obj
 0002:00004030       ?_o@?1???R<lambda_3>@?1??get@d3d11_@lazy@@YAAEAUapi_t@34@XZ@QEBAPEBDXZ@4U?$ObfStr@$0EKPLCJHB@$0BO@@detail@obf@@B 00000001400ad030     main.obj
 0002:00004050       ?_o@?1???R<lambda_1>@?1??init@dlog@@YAXXZ@QEBA?AV?$basic_string@_WU?$char_traits@_W@std@@V?$allocator@_W@2@@std@@XZ@4U?$ObfWStr@$0ELDELGJM@$0BE@@detail@obf@@B 00000001400ad050     main.obj
 0002:00004078       ??_C@_01MCMALHOG@a@        00000001400ad078     main.obj
 0002:00004080       ??_C@_0EI@FKDPGGFB@?6?$DN?$DN?$DN?5MidnightSoftware?5Loader?5se@ 00000001400ad080     main.obj
 0002:000040c8       ??_C@_03OFAPEBGM@?$CFs?6@  00000001400ad0c8     main.obj
 0002:000040d0       ??_C@_07DCPLIKAE@__guard@  00000001400ad0d0     main.obj
 0002:000040d8       ??_C@_1CC@FLKNJKKC@?$AA0?$AA1?$AA2?$AA3?$AA4?$AA5?$AA6?$AA7?$AA8?$AA9?$AAa?$AAb?$AAc?$AAd?$AAe@ 00000001400ad0d8     main.obj
 0002:00004100       ?_o@?1???R<lambda_1>@?1??get@bcrypt_loader@detail@embedded@@YAAEAUapi_t@345@XZ@QEBAPEB_WXZ@4U?$ObfWStr@$0ELEHIPBF@$0L@@4obf@@B 00000001400ad100     main.obj
 0002:00004118       ?_o@?1???R<lambda_3>@?1??get@bcrypt_loader@detail@embedded@@YAAEAUapi_t@345@XZ@QEBAPEBDXZ@4U?$ObfStr@$0ELFKNJIO@$0BM@@4obf@@B 00000001400ad118     main.obj
 0002:00004138       ?_o@?1???R<lambda_4>@?1??get@bcrypt_loader@detail@embedded@@YAAEAUapi_t@345@XZ@QEBAPEBDXZ@4U?$ObfStr@$0ELGMDCAH@$0BN@@4obf@@B 00000001400ad138     main.obj
 0002:00004158       ?_o@?1???R<lambda_5>@?1??get@bcrypt_loader@detail@embedded@@YAAEAUapi_t@345@XZ@QEBAPEBDXZ@4U?$ObfStr@$0ELHPAMIA@$0BC@@4obf@@B 00000001400ad158     main.obj
 0002:00004170       ?_o@?1???R<lambda_6>@?1??get@bcrypt_loader@detail@embedded@@YAAEAUapi_t@345@XZ@QEBAPEBDXZ@4U?$ObfStr@$0ELJCGFDJ@$0BC@@4obf@@B 00000001400ad170     main.obj
 0002:00004188       ?_o@?1???R<lambda_7>@?1??get@bcrypt_loader@detail@embedded@@YAAEAUapi_t@345@XZ@QEBAPEBDXZ@4U?$ObfStr@$0ELKFLPLC@$0BL@@4obf@@B 00000001400ad188     main.obj
 0002:000041a8       ?_o@?1???R<lambda_8>@?1??get@bcrypt_loader@detail@embedded@@YAAEAUapi_t@345@XZ@QEBAPEBDXZ@4U?$ObfStr@$0ELLIIICL@$0BB@@4obf@@B 00000001400ad1a8     main.obj
 0002:000041c0       ?_o@?1???R<lambda_9>@?1??get@bcrypt_loader@detail@embedded@@YAAEAUapi_t@345@XZ@QEBAPEBDXZ@4U?$ObfStr@$0ELMLOCKE@$0O@@4obf@@B 00000001400ad1c0     main.obj
 0002:000041d0       ??_C@_17PJMHNJHG@?$AAA?$AAE?$AAS@ 00000001400ad1d0     main.obj
 0002:000041d8       ??_C@_1CA@NDPDKCGP@?$AAC?$AAh?$AAa?$AAi?$AAn?$AAi?$AAn?$AAg?$AAM?$AAo?$AAd?$AAe?$AAC?$AAB?$AAC@ 00000001400ad1d8     main.obj
 0002:000041f8       ??_C@_1BK@BCJKEJJO@?$AAC?$AAh?$AAa?$AAi?$AAn?$AAi?$AAn?$AAg?$AAM?$AAo?$AAd?$AAe@ 00000001400ad1f8     main.obj
 0002:00004218       ??_C@_1BK@GPNIFMAA@?$AAO?$AAb?$AAj?$AAe?$AAc?$AAt?$AAL?$AAe?$AAn?$AAg?$AAt?$AAh@ 00000001400ad218     main.obj
 0002:00004240       ?_o@?1???R<lambda_1>@?1??extract_and_decrypt@detail@embedded@@YA?AV?$basic_string@_WU?$char_traits@_W@std@@V?$allocator@_W@2@@std@@HPEB_WQEBE1@Z@QEBA?AV56@XZ@4U?$ObfWStr@$0ELNNDLNN@$0CI@@3obf@@B 00000001400ad240     main.obj
 0002:00004290       ?_o@?1???R<lambda_2>@?4??extract_and_decrypt@detail@embedded@@YA?AV?$basic_string@_WU?$char_traits@_W@std@@V?$allocator@_W@2@@std@@HPEB_WQEBE1@Z@QEBA?AV56@XZ@4U?$ObfWStr@$0ELPABEFG@$0DE@@3obf@@B 00000001400ad290     main.obj
 0002:00004300       ?_o@?1???R<lambda_3>@?7??extract_and_decrypt@detail@embedded@@YA?AV?$basic_string@_WU?$char_traits@_W@std@@V?$allocator@_W@2@@std@@HPEB_WQEBE1@Z@QEBA?AV56@XZ@4U?$ObfWStr@$0EMADGOMP@$0DD@@3obf@@B 00000001400ad300     main.obj
 0002:00004370       ?_o@?1???R<lambda_4>@?L@??extract_and_decrypt@detail@embedded@@YA?AV?$basic_string@_WU?$char_traits@_W@std@@V?$allocator@_W@2@@std@@HPEB_WQEBE1@Z@QEBA?AV56@XZ@4U?$ObfWStr@$0EMBGEHEI@$0EG@@3obf@@B 00000001400ad370     main.obj
 0002:00004400       ?_o@?1???R<lambda_5>@?1??extract_and_decrypt@detail@embedded@@YA?AV?$basic_string@_WU?$char_traits@_W@std@@V?$allocator@_W@2@@std@@HPEB_WQEBE1@Z@QEBA?AV56@XZ@4U?$ObfWStr@$0EMCJJBMB@$0DG@@3obf@@B 00000001400ad400     main.obj
 0002:00004470       ?_o@?1???R<lambda_6>@?O@??extract_and_decrypt@detail@embedded@@YA?AV?$basic_string@_WU?$char_traits@_W@std@@V?$allocator@_W@2@@std@@HPEB_WQEBE1@Z@QEBA?AV56@XZ@4U?$ObfWStr@$0EMDMOKHK@$0GA@@3obf@@B 00000001400ad470     main.obj
 0002:00004530       ?_o@?1???R<lambda_7>@?1??extract_and_decrypt@detail@embedded@@YA?AV?$basic_string@_WU?$char_traits@_W@std@@V?$allocator@_W@2@@std@@HPEB_WQEBE1@Z@QEBA?AV56@XZ@4U?$ObfWStr@$0EMEPMEPD@$0CB@@3obf@@B 00000001400ad530     main.obj
 0002:00004580       ?_o@?1???R<lambda_8>@?BB@??extract_and_decrypt@detail@embedded@@YA?AV?$basic_string@_WU?$char_traits@_W@std@@V?$allocator@_W@2@@std@@HPEB_WQEBE1@Z@QEBA?AV56@XZ@4U?$ObfWStr@$0EMGBBNGM@$0CP@@3obf@@B 00000001400ad580     main.obj
 0002:000045e0       ?_o@?1???R<lambda_9>@?1??extract_and_decrypt@detail@embedded@@YA?AV?$basic_string@_WU?$char_traits@_W@std@@V?$allocator@_W@2@@std@@HPEB_WQEBE1@Z@QEBA?AV56@XZ@4U?$ObfWStr@$0EMHEHHOF@$01@3obf@@B 00000001400ad5e0     main.obj
 0002:000045f0       ?_o@?1???R<lambda_1>@?4???R<lambda_10>@?1??extract_and_decrypt@detail@embedded@@YA?AV?$basic_string@_WU?$char_traits@_W@std@@V?$allocator@_W@2@@std@@HPEB_WQEBE1@Z@QEBAPEAXAEBV67@@Z@QEBA?AV67@XZ@4U?$ObfWStr@$0EMIHEABO@$0CO@@4obf@@B 00000001400ad5f0     main.obj
 0002:00004650       ?_o@?1???R<lambda_11>@?1??extract_and_decrypt@detail@embedded@@YA?AV?$basic_string@_WU?$char_traits@_W@std@@V?$allocator@_W@2@@std@@HPEB_WQEBE1@Z@QEBA?AV56@XZ@4U?$ObfWStr@$0EMJKJKJH@$0BK@@3obf@@B 00000001400ad650     main.obj
 0002:00004690       ?_o@?1???R<lambda_12>@?BE@??extract_and_decrypt@detail@embedded@@YA?AV?$basic_string@_WU?$char_traits@_W@std@@V?$allocator@_W@2@@std@@HPEB_WQEBE1@Z@QEBA?AV56@XZ@4U?$ObfWStr@$0EMKNPDBA@$0DE@@3obf@@B 00000001400ad690     main.obj
 0002:00004700       ?_o@?1???R<lambda_13>@?BH@??extract_and_decrypt@detail@embedded@@YA?AV?$basic_string@_WU?$char_traits@_W@std@@V?$allocator@_W@2@@std@@HPEB_WQEBE1@Z@QEBA?AV56@XZ@4U?$ObfWStr@$0EMMAMNIJ@$0DD@@3obf@@B 00000001400ad700     main.obj
 0002:00004770       ?_o@?1???R<lambda_14>@?BK@??extract_and_decrypt@detail@embedded@@YA?AV?$basic_string@_WU?$char_traits@_W@std@@V?$allocator@_W@2@@std@@HPEB_WQEBE1@Z@QEBA?AV56@XZ@4U?$ObfWStr@$0EMNCCGAC@$0DG@@3obf@@B 00000001400ad770     main.obj
 0002:000047e0       ?_o@?1???R<lambda_15>@?1??extract_and_decrypt@detail@embedded@@YA?AV?$basic_string@_WU?$char_traits@_W@std@@V?$allocator@_W@2@@std@@HPEB_WQEBE1@Z@QEBA?AV56@XZ@4U?$ObfWStr@$0EMOFHALL@$0CH@@3obf@@B 00000001400ad7e0     main.obj
 0002:00004830       ??_C@_11LOCGONAA@@         00000001400ad830     main.obj
 0002:00004840       ?_o@?1???R<lambda_1>@?1??Init@embedded@@YA_NXZ@QEBAPEB_WXZ@4U?$ObfWStr@$0EMPIEJDE@$0EB@@detail@obf@@B 00000001400ad840     main.obj
 0002:000048c8       ?_o@?1???R<lambda_2>@?1??Init@embedded@@YA_NXZ@QEBAPEB_WXZ@4U?$ObfWStr@$0ENALKDKN@$0BC@@detail@obf@@B 00000001400ad8c8     main.obj
 0002:000048f0       ?_o@?1???R<lambda_3>@?1??Init@embedded@@YA_NXZ@QEBAPEB_WXZ@4U?$ObfWStr@$0ENBOPMCG@$04@detail@obf@@B 00000001400ad8f0     main.obj
 0002:00004900       ?_o@?1???R<lambda_4>@?1??Init@embedded@@YA_NXZ@QEBAPEB_WXZ@4U?$ObfWStr@$0ENDBNFFP@$04@detail@obf@@B 00000001400ad900     main.obj
 0002:00004910       ?_o@?1???R<lambda_5>@?4??Init@embedded@@YA_NXZ@QEBA?AV?$basic_string@_WU?$char_traits@_W@std@@V?$allocator@_W@2@@std@@XZ@4U?$ObfWStr@$0ENEDCPNI@$0DK@@detail@obf@@B 00000001400ad910     main.obj
 0002:00004988       ?_o@?1???R<lambda_6>@?4??Init@embedded@@YA_NXZ@QEBAPEB_WXZ@4U?$ObfWStr@$0ENFGHIFB@$07@detail@obf@@B 00000001400ad988     main.obj
 0002:00004998       ?_o@?1???R<lambda_7>@?4??Init@embedded@@YA_NXZ@QEBAPEB_WXZ@4U?$ObfWStr@$0ENGJFCMK@$07@detail@obf@@B 00000001400ad998     main.obj
 0002:000049a8       ?_o@?1???R<lambda_8>@?4??Init@embedded@@YA_NXZ@QEBAPEB_WXZ@4U?$ObfWStr@$0ENHMKLED@$07@detail@obf@@B 00000001400ad9a8     main.obj
 0002:000049c0       ?_o@?1???R<lambda_9>@?6??Init@embedded@@YA_NXZ@QEBAPEB_WXZ@4U?$ObfWStr@$0ENIPIFPM@$0CM@@detail@obf@@B 00000001400ad9c0     main.obj
 0002:00004a18       ??_C@_0P@ONAFIPJH@embedded?3?3Init@ 00000001400ada18     main.obj
 0002:00004a28       ??_C@_0BC@ELEMFIIG@embedded?3?3Cleanup@ 00000001400ada28     main.obj
 0002:00004a40       ??_C@_1BK@DHFJHPDK@?$AA?2?$AAS?$AAy?$AAs?$AAt?$AAe?$AAm?$AAR?$AAo?$AAo?$AAt?$AA?2@ 00000001400ada40     main.obj
 0002:00004a60       ??_C@_19JHEHLFPM@?$AA?2?$AA?$DP?$AA?$DP?$AA?2@ 00000001400ada60     main.obj
 0002:00004a70       ??_C@_1BI@BNLANBPC@?$AAS?$AAy?$AAs?$AAt?$AAe?$AAm?$AAD?$AAr?$AAi?$AAv?$AAe@ 00000001400ada70     main.obj
 0002:00004a88       ??_C@_15FIGHDOFL@?$AAC?$AA?3@ 00000001400ada88     main.obj
 0002:00004a90       ??_C@_13FPGAJAPJ@?$AA?2@   00000001400ada90     main.obj
 0002:00004a98       ??_C@_1CM@POIDIOJG@?$AA?2?$AAP?$AAr?$AAo?$AAg?$AAr?$AAa?$AAm?$AAD?$AAa?$AAt?$AAa?$AA?2?$AAd?$AAb@ 00000001400ada98     main.obj
 0002:00004ad0       ??_C@_1FO@NKNGKEPO@?$AA?$CF?$AA0?$AA8?$AAX?$AA?$CF?$AA0?$AA4?$AAX?$AA?$CF?$AA0?$AA4?$AAX?$AA?$CF?$AA0?$AA2@ 00000001400adad0     main.obj
 0002:00004b30       ??_C@_15MNCACJLI@?$AA?2?$AA?1@ 00000001400adb30     main.obj
 0002:00004b38       ?_o@?1???R<lambda_1>@?1??HttpDownload@symbol_engine@@CA_NAEBV?$basic_string@_WU?$char_traits@_W@std@@V?$allocator@_W@2@@std@@AEAV?$vector@EV?$allocator@E@std@@@5@@Z@QEBAPEB_WXZ@4U?$ObfWStr@$0ENKCNOHF@$0BC@@detail@obf@@B 00000001400adb38     main.obj
 0002:00004b60       ??_C@_17KCHPOIEI@?$AAG?$AAE?$AAT@ 00000001400adb60     main.obj
 0002:00004b70       ?_o@?1???R<lambda_1>@?1??DownloadPdbToDisk@symbol_engine@@AEAA_NAEBV?$basic_string@_WU?$char_traits@_W@std@@V?$allocator@_W@2@@std@@00@Z@QEBA?AV45@XZ@4U?$ObfWStr@$0ENLECIOO@$0CM@@detail@obf@@B 00000001400adb70     main.obj
 0002:00004bc8       ??_C@_13CGOKJPIL@?$AA?1@   00000001400adbc8     main.obj
 0002:00004bd0       ?_o@?1???R<lambda_3>@?BL@??GetSymbolOffsetsByPatternScan@symbol_engine@@CA?AV?$optional@U?$pair@_K_K@std@@@std@@AEBV?$basic_string@_WU?$char_traits@_W@std@@V?$allocator@_W@2@@5@@Z@QEBAPEBDXZ@4U?$ObfStr@$0ENMHABGH@$0BI@@detail@obf@@B 00000001400adbd0     main.obj
 0002:00004be8       ?_o@?1???R<lambda_4>@?BO@??GetSymbolOffsetsByPatternScan@symbol_engine@@CA?AV?$optional@U?$pair@_K_K@std@@@std@@AEBV?$basic_string@_WU?$char_traits@_W@std@@V?$allocator@_W@2@@5@@Z@QEBAPEBDXZ@4U?$ObfStr@$0ENNKFLOA@$0CE@@detail@obf@@B 00000001400adbe8     main.obj
 0002:00004c0c       ??_C@_05LDKNOBJL@?4data@   00000001400adc0c     main.obj
 0002:00004c14       ??_C@_05GCIAPODO@?4text@   00000001400adc14     main.obj
 0002:00004c20       ?_o@?1???R<lambda_1>@?1??CalculateOffsetsFromDisk@symbol_engine@@AEAA?AV?$optional@U?$pair@_K_K@std@@@std@@AEBV?$basic_string@_WU?$char_traits@_W@std@@V?$allocator@_W@2@@5@0@Z@QEBA?AV65@XZ@4U?$ObfWStr@$0ENONLEBJ@$04@detail@obf@@B 00000001400adc20     main.obj
 0002:00004c30       ?_o@?1???R<lambda_2>@?BE@??CalculateOffsetsFromDisk@symbol_engine@@AEAA?AV?$optional@U?$pair@_K_K@std@@@std@@AEBV?$basic_string@_WU?$char_traits@_W@std@@V?$allocator@_W@2@@5@0@Z@QEBAPEB_WXZ@4U?$ObfWStr@$0EOAAIOJC@$0O@@detail@obf@@B 00000001400adc30     main.obj
 0002:00004c50       ?_o@?1???R<lambda_3>@?BG@??CalculateOffsetsFromDisk@symbol_engine@@AEAA?AV?$optional@U?$pair@_K_K@std@@@std@@AEBV?$basic_string@_WU?$char_traits@_W@std@@V?$allocator@_W@2@@5@0@Z@QEBAPEB_WXZ@4U?$ObfWStr@$0EOBDOHAL@$0BI@@detail@obf@@B 00000001400adc50     main.obj
 0002:00004c80       ?_o@?1???R<lambda_1>@?2??SaveOriginalCiCallback@session_manager@@YAX_K@Z@QEBAPEB_WXZ@4U?$ObfWStr@$0EOCFDBIE@$0BB@@detail@obf@@B 00000001400adc80     main.obj
 0002:00004ca8       ?_o@?1???R<lambda_2>@?6??SaveOriginalCiCallback@session_manager@@YAX_K@Z@QEBAPEB_WXZ@4U?$ObfWStr@$0EODIAKDN@$0BD@@detail@obf@@B 00000001400adca8     main.obj
 0002:00004cd0       ?_o@?1???R<lambda_1>@?2??GetOriginalCiCallback@session_manager@@YA_KXZ@QEBAPEB_WXZ@4U?$ObfWStr@$0EOELGELG@$0BB@@detail@obf@@B 00000001400adcd0     main.obj
 0002:00004cf8       ?_o@?1???R<lambda_2>@?6??GetOriginalCiCallback@session_manager@@YA_KXZ@QEBAPEB_WXZ@4U?$ObfWStr@$0EOFOLNCP@$0BD@@detail@obf@@B 00000001400adcf8     main.obj
 0002:00004d20       ??_C@_1CE@LNPIDMIP@?$AAS?$AAo?$AAf?$AAt?$AAw?$AAa?$AAr?$AAe?$AA?2?$AAk?$AAv?$AAc?$AA?2?$AAA?$AAu@ 00000001400add20     main.obj
 0002:00004d48       ??_C@_17KACEIPNC@?$AAK?$AAe?$AAy@ 00000001400add48     main.obj
 0002:00004d50       ?_o@?1???R<lambda_1>@?1??GetWindowsBuildNumber@detail_dse@@YAKXZ@QEBAPEB_WXZ@4U?$ObfWStr@$0EOJGDJFK@$09@detail@obf@@B 00000001400add50     main.obj
 0002:00004d68       ?_o@?1???R<lambda_2>@?1??GetWindowsBuildNumber@detail_dse@@YAKXZ@QEBAPEBDXZ@4U?$ObfStr@$0EOKJBDND@$0O@@detail@obf@@B 00000001400add68     main.obj
 0002:00004d78       ?_o@?1???R<lambda_1>@?1??GetKernelModuleInfo@detail_dse@@YA?AV?$optional@UKernelModuleInfo@detail_dse@@@std@@PEBD@Z@QEBAPEB_WXZ@4U?$ObfWStr@$0EOLMGMEM@$09@detail@obf@@B 00000001400add78     main.obj
 0002:00004d90       ?_o@?1???R<lambda_2>@?1??GetKernelModuleInfo@detail_dse@@YA?AV?$optional@UKernelModuleInfo@detail_dse@@@std@@PEBD@Z@QEBAPEBDXZ@4U?$ObfStr@$0EOMPEGMF@$0BJ@@detail@obf@@B 00000001400add90     main.obj
 0002:00004db0       ??_C@_1BK@MGMFAEKH@?$AAk?$AAe?$AAr?$AAn?$AAe?$AAl?$AA3?$AA2?$AA?4?$AAd?$AAl?$AAl@ 00000001400addb0     main.obj
 0002:00004dd0       ??_C@_0BC@LIIIOGAJ@EnumDeviceDrivers@ 00000001400addd0     main.obj
 0002:00004de8       ??_C@_0BJ@PNBMNHAF@GetDeviceDriverFileNameW@ 00000001400adde8     main.obj
 0002:00004e04       ?_o@?1???R<lambda_1>@?4??FindCiOptionsKernelAddr@detail_dse@@YA_K_K@Z@QEBAPEBDXZ@4U?$ObfStr@$0EOOCJPHO@$06@detail@obf@@B 00000001400ade04     main.obj
 0002:00004e10       ?_o@?1???R<lambda_2>@?BB@??FindCiOptionsKernelAddr@detail_dse@@YA_K_K@Z@QEBAPEB_WXZ@4U?$ObfWStr@$0EOPFOJPH@$06@detail@obf@@B 00000001400ade10     main.obj
 0002:00004e20       ?_o@?1???R<lambda_3>@?BO@??FindCiOptionsKernelAddr@detail_dse@@YA_K_K@Z@QEBA?AV?$basic_string@_WU?$char_traits@_W@std@@V?$allocator@_W@2@@std@@XZ@4U?$ObfWStr@$0EPAIMCHA@$07@detail@obf@@B 00000001400ade20     main.obj
 0002:00004e30       ??_C@_0CA@EOADLFNL@Unmatched?5?8?$HN?8?5in?5format?5string?4@ 00000001400ade30     main.obj
 0002:00004e50       ??_C@_0BH@MCHHCMKF@Invalid?5format?5string?4@ 00000001400ade50     main.obj
 0002:00004e68       ??_C@_0BK@NMCHMIGI@Unknown?5format?5specifier?4@ 00000001400ade68     main.obj
 0002:00004e88       ??_C@_0BO@FFAGMLDI@Missing?5?8?$HN?8?5in?5format?5string?4@ 00000001400ade88     main.obj
 0002:00004ea8       ??_C@_0DB@GIGELLBG@Can?5not?5switch?5from?5manual?5to?5a@ 00000001400adea8     main.obj
 0002:00004ee0       ?_o@?1???R<lambda_5>@?DA@??FindCiOptionsKernelAddr@detail_dse@@YA_K_K@Z@QEBAPEBDXZ@4U?$ObfStr@$0EPBKBMOJ@$08@detail@obf@@B 00000001400adee0     main.obj
 0002:00004ef0       ??_C@_0BL@KNEDAEPA@invalid?5fill?5character?5?8?$HL?8@ 00000001400adef0     main.obj
 0002:00004f10       ??_C@_0BM@ONFDPAFF@Invalid?5type?5specification?4@ 00000001400adf10     main.obj
 0002:00004f30       ??_C@_0CE@OLPMMFCN@Invalid?5presentation?5type?5speci@ 00000001400adf30     main.obj
 0002:00004f58       ??_C@_0CD@PLBGEFIO@Invalid?5presentation?5type?5for?5b@ 00000001400adf58     main.obj
 0002:00004f80       ??_C@_0CG@GJJKCEDK@Invalid?5presentation?5type?5for?5w@ 00000001400adf80     main.obj
 0002:00004fa8       ??_C@_0CG@PIIJGCKO@Invalid?5presentation?5type?5for?5i@ 00000001400adfa8     main.obj
 0002:00004fd0       ??_C@_0CN@EEOMCCM@Invalid?5presentation?5type?5for?5f@ 00000001400adfd0     main.obj
 0002:00005000       ??_C@_0CF@MMFFCGKF@Invalid?5presentation?5type?5for?5s@ 00000001400ae000     main.obj
 0002:00005028       ??_C@_0CG@LHDOJLDP@Invalid?5presentation?5type?5for?5p@ 00000001400ae028     main.obj
 0002:00005050       ??_C@_0DM@LDJDLGDF@Hash?1sign?5modifier?5requires?5an?5@ 00000001400ae050     main.obj
 0002:00005090       ??_C@_0EC@JCIMBFLB@Zero?5modifier?5requires?5an?5arith@ 00000001400ae090     main.obj
 0002:000050d8       ??_C@_0DH@FFGBOAOP@Format?5specifier?5requires?5numer@ 00000001400ae0d8     main.obj
 0002:00005110       ??_C@_0BC@JOAOKPFE@Number?5is?5too?5big@ 00000001400ae110     main.obj
 0002:00005128       ?_o@?1???R<lambda_8>@?EE@??FindCiOptionsKernelAddr@detail_dse@@YA_K_K@Z@QEBAPEBDXZ@4U?$ObfStr@$0EPCNHFGC@$0N@@detail@obf@@B 00000001400ae128     main.obj
 0002:00005140       ??_C@_1JM@BJJFJJMN@?$AA?$FL?$AAd?$AAe?$AAt?$AAa?$AAi?$AAl?$AA_?$AAd?$AAs?$AAe?$AA?3?$AA?3?$AAF?$AAi@ 00000001400ae140     main.obj
 0002:000051e0       ??_C@_1KO@JAJFGLIC@?$AA?$FL?$AAd?$AAe?$AAt?$AAa?$AAi?$AAl?$AA_?$AAd?$AAs?$AAe?$AA?3?$AA?3?$AAF?$AAi@ 00000001400ae1e0     main.obj
 0002:00005290       ??_C@_1IO@NLLIJNGO@?$AA?$FL?$AAd?$AAe?$AAt?$AAa?$AAi?$AAl?$AA_?$AAd?$AAs?$AAe?$AA?3?$AA?3?$AAF?$AAi@ 00000001400ae290     main.obj
 0002:00005320       ??_C@_1IM@NJHAMPFB@?$AA?$FL?$AAd?$AAe?$AAt?$AAa?$AAi?$AAl?$AA_?$AAd?$AAs?$AAe?$AA?3?$AA?3?$AAF?$AAi@ 00000001400ae320     main.obj
 0002:000053b0       ??_C@_1OA@NMIOEAIE@?$AA?$FL?$AAd?$AAe?$AAt?$AAa?$AAi?$AAl?$AA_?$AAd?$AAs?$AAe?$AA?3?$AA?3?$AAF?$AAi@ 00000001400ae3b0     main.obj
 0002:00005490       ??_C@_1KG@FLLMFBKE@?$AA?$FL?$AAd?$AAe?$AAt?$AAa?$AAi?$AAl?$AA_?$AAd?$AAs?$AAe?$AA?3?$AA?3?$AAF?$AAi@ 00000001400ae490     main.obj
 0002:00005540       ??_C@_1KI@PMEGCDNM@?$AA?$FL?$AAd?$AAe?$AAt?$AAa?$AAi?$AAl?$AA_?$AAd?$AAs?$AAe?$AA?3?$AA?3?$AAF?$AAi@ 00000001400ae540     main.obj
 0002:000055f0       ??_C@_1IM@CEIPIOJP@?$AA?$FL?$AAd?$AAe?$AAt?$AAa?$AAi?$AAl?$AA_?$AAd?$AAs?$AAe?$AA?3?$AA?3?$AAF?$AAi@ 00000001400ae5f0     main.obj
 0002:00005680       ??_C@_0BD@BEICEICK@DSEBypass?3?3Disable@ 00000001400ae680     main.obj
 0002:00005698       ??_C@_0BD@CFCEFEKH@DSEBypass?3?3Restore@ 00000001400ae698     main.obj
 0002:000056ac       ?_o@?1???R<lambda_1>@?1??DisableStandard@dse_bypass@@AEAA_NXZ@QEBAPEBDXZ@4U?$ObfStr@$0EPFDJIBE@$06@detail@obf@@B 00000001400ae6ac     main.obj
 0002:000056c0       ??_C@_1JK@CAHMKLIG@?$AA?$FL?$AAd?$AAs?$AAe?$AA_?$AAb?$AAy?$AAp?$AAa?$AAs?$AAs?$AA?3?$AA?3?$AAD?$AAi@ 00000001400ae6c0     main.obj
 0002:00005760       ??_C@_1HG@DLBCPJK@?$AA?$FL?$AAd?$AAs?$AAe?$AA_?$AAb?$AAy?$AAp?$AAa?$AAs?$AAs?$AA?3?$AA?3?$AAD?$AAi@ 00000001400ae760     main.obj
 0002:000057e0       ??_C@_1HC@KLCIAONB@?$AA?$FL?$AAd?$AAs?$AAe?$AA_?$AAb?$AAy?$AAp?$AAa?$AAs?$AAs?$AA?3?$AA?3?$AAD?$AAi@ 00000001400ae7e0     main.obj
 0002:00005860       ??_C@_1IC@OMODPJKA@?$AA?$FL?$AAd?$AAs?$AAe?$AA_?$AAb?$AAy?$AAp?$AAa?$AAs?$AAs?$AA?3?$AA?3?$AAD?$AAi@ 00000001400ae860     main.obj
 0002:000058f0       ??_C@_1KA@ENFBMDMF@?$AA?$FL?$AAd?$AAs?$AAe?$AA_?$AAb?$AAy?$AAp?$AAa?$AAs?$AAs?$AA?3?$AA?3?$AAD?$AAi@ 00000001400ae8f0     main.obj
 0002:00005990       ??_C@_1KA@FFFGJGNA@?$AA?$FL?$AAd?$AAs?$AAe?$AA_?$AAb?$AAy?$AAp?$AAa?$AAs?$AAs?$AA?3?$AA?3?$AAD?$AAi@ 00000001400ae990     main.obj
 0002:00005a30       ??_C@_1MI@IIFGMJAB@?$AA?$FL?$AAd?$AAs?$AAe?$AA_?$AAb?$AAy?$AAp?$AAa?$AAs?$AAs?$AA?3?$AA?3?$AAD?$AAi@ 00000001400aea30     main.obj
 0002:00005b00       ??_C@_1HA@BGOLLHDC@?$AA?$FL?$AAd?$AAs?$AAe?$AA_?$AAb?$AAy?$AAp?$AAa?$AAs?$AAs?$AA?3?$AA?3?$AAD?$AAi@ 00000001400aeb00     main.obj
 0002:00005b70       ??_C@_1KM@IJPLOMAP@?$AA?$FL?$AAd?$AAs?$AAe?$AA_?$AAb?$AAy?$AAp?$AAa?$AAs?$AAs?$AA?3?$AA?3?$AAD?$AAi@ 00000001400aeb70     main.obj
 0002:00005c20       ??_C@_1IE@LHBKDLGD@?$AA?$FL?$AAd?$AAs?$AAe?$AA_?$AAb?$AAy?$AAp?$AAa?$AAs?$AAs?$AA?3?$AA?3?$AAD?$AAi@ 00000001400aec20     main.obj
 0002:00005cb0       ??_C@_1PE@EBPJNGEH@?$AA?$FL?$AAd?$AAs?$AAe?$AA_?$AAb?$AAy?$AAp?$AAa?$AAs?$AAs?$AA?3?$AA?3?$AAD?$AAi@ 00000001400aecb0     main.obj
 0002:00005db0       ??_C@_1IM@EJNMKGKL@?$AA?$FL?$AAd?$AAs?$AAe?$AA_?$AAb?$AAy?$AAp?$AAa?$AAs?$AAs?$AA?3?$AA?3?$AAD?$AAi@ 00000001400aedb0     main.obj
 0002:00005e40       ??_C@_1JA@LPDEBCCI@?$AA?$FL?$AAd?$AAs?$AAe?$AA_?$AAb?$AAy?$AAp?$AAa?$AAs?$AAs?$AA?3?$AA?3?$AAD?$AAi@ 00000001400aee40     main.obj
 0002:00005ed0       ??_C@_1II@NMGFNNPN@?$AA?$FL?$AAd?$AAs?$AAe?$AA_?$AAb?$AAy?$AAp?$AAa?$AAs?$AAs?$AA?3?$AA?3?$AAD?$AAi@ 00000001400aeed0     main.obj
 0002:00005f58       ?_o@?1???R<lambda_1>@?7??RestoreStandard@dse_bypass@@AEAA_NXZ@QEBAPEBDXZ@4U?$ObfStr@$0EPGGPCIN@$06@detail@obf@@B 00000001400aef58     main.obj
 0002:00005f60       ?_o@?1???R<lambda_3>@?BF@??FindCiDllKernelBase@dse_bypass@@AEAA?AUCiDllInfo@3@_KAEBV?$basic_string@_WU?$char_traits@_W@std@@V?$allocator@_W@2@@std@@@Z@QEBAPEBDXZ@4U?$ObfStr@$0EPHJMLAG@$06@detail@obf@@B 00000001400aef60     main.obj
 0002:00005f70       ??_C@_1IO@EIFBNCF@?$AA?$FL?$AAd?$AAs?$AAe?$AA_?$AAb?$AAy?$AAp?$AAa?$AAs?$AAs?$AA?3?$AA?3?$AAF?$AAi@ 00000001400aef70     main.obj
 0002:00006000       ??_C@_1BA@DCILEJNF@?$AA?2?$AAc?$AAi?$AA?4?$AAd?$AAl?$AAl@ 00000001400af000     main.obj
 0002:00006010       ??_C@_1HE@CPHODHMC@?$AA?$FL?$AAd?$AAs?$AAe?$AA_?$AAb?$AAy?$AAp?$AAa?$AAs?$AAs?$AA?3?$AA?3?$AAF?$AAi@ 00000001400af010     main.obj
 0002:00006090       ??_C@_1MI@PCKLOAEE@?$AA?$FL?$AAd?$AAs?$AAe?$AA_?$AAb?$AAy?$AAp?$AAa?$AAs?$AAs?$AA?3?$AA?3?$AAF?$AAi@ 00000001400af090     main.obj
 0002:00006160       ??_C@_1HO@LPFPNDGB@?$AA?$FL?$AAd?$AAs?$AAe?$AA_?$AAb?$AAy?$AAp?$AAa?$AAs?$AAs?$AA?3?$AA?3?$AAF?$AAi@ 00000001400af160     main.obj
 0002:000061e0       ?_o@?1???R<lambda_1>@?4??FindSafeCallbackOffset@dse_bypass@@AEAA_K_K000@Z@QEBAPEBDXZ@4U?$ObfStr@$0EPILCFLP@$06@detail@obf@@B 00000001400af1e0     main.obj
 0002:000061f0       ??_C@_1GM@KFAEFOGE@?$AA?$FL?$AAd?$AAs?$AAe?$AA_?$AAb?$AAy?$AAp?$AAa?$AAs?$AAs?$AA?3?$AA?3?$AAF?$AAi@ 00000001400af1f0     main.obj
 0002:00006260       ??_C@_1KC@JIJEMDLM@?$AA?$FL?$AAd?$AAs?$AAe?$AA_?$AAb?$AAy?$AAp?$AAa?$AAs?$AAs?$AA?3?$AA?3?$AAF?$AAi@ 00000001400af260     main.obj
 0002:00006310       ??_C@_1IK@HADJANEJ@?$AA?$FL?$AAd?$AAs?$AAe?$AA_?$AAb?$AAy?$AAp?$AAa?$AAs?$AAs?$AA?3?$AA?3?$AAF?$AAi@ 00000001400af310     main.obj
 0002:000063a0       ??_C@_1JO@ECPELNBB@?$AA?$FL?$AAd?$AAs?$AAe?$AA_?$AAb?$AAy?$AAp?$AAa?$AAs?$AAs?$AA?3?$AA?3?$AAF?$AAi@ 00000001400af3a0     main.obj
 0002:00006440       ??_C@_1JO@NLOLNMCA@?$AA?$FL?$AAd?$AAs?$AAe?$AA_?$AAb?$AAy?$AAp?$AAa?$AAs?$AAs?$AA?3?$AA?3?$AAF?$AAi@ 00000001400af440     main.obj
 0002:000064e0       ??_C@_1JK@CBGPLNJC@?$AA?$FL?$AAd?$AAs?$AAe?$AA_?$AAb?$AAy?$AAp?$AAa?$AAs?$AAs?$AA?3?$AA?3?$AAF?$AAi@ 00000001400af4e0     main.obj
 0002:00006580       ??_C@_1BEC@OEOLLKIL@?$AA?$FL?$AAd?$AAs?$AAe?$AA_?$AAb?$AAy?$AAp?$AAa?$AAs?$AAs?$AA?3?$AA?3?$AAF?$AAi@ 00000001400af580     main.obj
 0002:000066d0       ??_C@_1NA@LHLPJGFC@?$AA?$FL?$AAd?$AAs?$AAe?$AA_?$AAb?$AAy?$AAp?$AAa?$AAs?$AAs?$AA?3?$AA?3?$AAF?$AAi@ 00000001400af6d0     main.obj
 0002:000067a0       ??_C@_1KI@IIKFNJN@?$AA?$FL?$AAd?$AAs?$AAe?$AA_?$AAb?$AAy?$AAp?$AAa?$AAs?$AAs?$AA?3?$AA?3?$AAF?$AAi@ 00000001400af7a0     main.obj
 0002:00006850       ??_C@_1KO@IDKHKCCK@?$AA?$FL?$AAd?$AAs?$AAe?$AA_?$AAb?$AAy?$AAp?$AAa?$AAs?$AAs?$AA?3?$AA?3?$AAF?$AAi@ 00000001400af850     main.obj
 0002:00006900       ??_C@_1KO@PKOFHEK@?$AA?$FL?$AAd?$AAs?$AAe?$AA_?$AAb?$AAy?$AAp?$AAa?$AAs?$AAs?$AA?3?$AA?3?$AAF?$AAi@ 00000001400af900     main.obj
 0002:000069b0       ??_C@_1LK@JGEFHGJG@?$AA?$FL?$AAd?$AAs?$AAe?$AA_?$AAb?$AAy?$AAp?$AAa?$AAs?$AAs?$AA?3?$AA?3?$AAF?$AAi@ 00000001400af9b0     main.obj
 0002:00006a70       ??_C@_1JI@BOGFCEJK@?$AA?$FL?$AAd?$AAs?$AAe?$AA_?$AAb?$AAy?$AAp?$AAa?$AAs?$AAs?$AA?3?$AA?3?$AAF?$AAi@ 00000001400afa70     main.obj
 0002:00006b10       ??_C@_1HA@BJEBKCI@?$AA?$FL?$AAd?$AAs?$AAe?$AA_?$AAb?$AAy?$AAp?$AAa?$AAs?$AAs?$AA?3?$AA?3?$AAD?$AAi@ 00000001400afb10     main.obj
 0002:00006b80       ??_C@_1GI@PFLMEBGD@?$AA?$FL?$AAd?$AAs?$AAe?$AA_?$AAb?$AAy?$AAp?$AAa?$AAs?$AAs?$AA?3?$AA?3?$AAD?$AAi@ 00000001400afb80     main.obj
 0002:00006bf0       ??_C@_1II@GIKLHANJ@?$AA?$FL?$AAd?$AAs?$AAe?$AA_?$AAb?$AAy?$AAp?$AAa?$AAs?$AAs?$AA?3?$AA?3?$AAD?$AAi@ 00000001400afbf0     main.obj
 0002:00006c80       ??_C@_1MO@LIKNAFHM@?$AA?$FL?$AAd?$AAs?$AAe?$AA_?$AAb?$AAy?$AAp?$AAa?$AAs?$AAs?$AA?3?$AA?3?$AAD?$AAi@ 00000001400afc80     main.obj
 0002:00006d50       ??_C@_1BEI@JOFKCJBE@?$AA?$FL?$AAd?$AAs?$AAe?$AA_?$AAb?$AAy?$AAp?$AAa?$AAs?$AAs?$AA?3?$AA?3?$AAD?$AAi@ 00000001400afd50     main.obj
 0002:00006ea0       ??_C@_1IK@IBOPOANA@?$AA?$FL?$AAd?$AAs?$AAe?$AA_?$AAb?$AAy?$AAp?$AAa?$AAs?$AAs?$AA?3?$AA?3?$AAD?$AAi@ 00000001400afea0     main.obj
 0002:00006f30       ??_C@_1KI@JGLLODLH@?$AA?$FL?$AAd?$AAs?$AAe?$AA_?$AAb?$AAy?$AAp?$AAa?$AAs?$AAs?$AA?3?$AA?3?$AAD?$AAi@ 00000001400aff30     main.obj
 0002:00006fd8       ??_C@_17IHBDLLG@?$AAy?$AAe?$AAs@ 00000001400affd8     main.obj
 0002:00006fe0       ??_C@_15BPIGNHCD@?$AAn?$AAo@ 00000001400affe0     main.obj
 0002:00006ff0       ??_C@_1IK@JOCJKJII@?$AA?$FL?$AAd?$AAs?$AAe?$AA_?$AAb?$AAy?$AAp?$AAa?$AAs?$AAs?$AA?3?$AA?3?$AAD?$AAi@ 00000001400afff0     main.obj
 0002:00007080       ??_C@_1HE@BJJOPJDJ@?$AA?$FL?$AAd?$AAs?$AAe?$AA_?$AAb?$AAy?$AAp?$AAa?$AAs?$AAs?$AA?3?$AA?3?$AAD?$AAi@ 00000001400b0080     main.obj
 0002:00007100       ??_C@_1KO@NPMGLECA@?$AA?$FL?$AAd?$AAs?$AAe?$AA_?$AAb?$AAy?$AAp?$AAa?$AAs?$AAs?$AA?3?$AA?3?$AAD?$AAi@ 00000001400b0100     main.obj
 0002:000071b0       ??_C@_1PC@FHOKFCEB@?$AA?$FL?$AAd?$AAs?$AAe?$AA_?$AAb?$AAy?$AAp?$AAa?$AAs?$AAs?$AA?3?$AA?3?$AAD?$AAi@ 00000001400b01b0     main.obj
 0002:000072b0       ??_C@_1IK@GPJGJOOG@?$AA?$FL?$AAd?$AAs?$AAe?$AA_?$AAb?$AAy?$AAp?$AAa?$AAs?$AAs?$AA?3?$AA?3?$AAD?$AAi@ 00000001400b02b0     main.obj
 0002:00007340       ??_C@_1HI@MBGODMEN@?$AA?$FL?$AAd?$AAs?$AAe?$AA_?$AAb?$AAy?$AAp?$AAa?$AAs?$AAs?$AA?3?$AA?3?$AAD?$AAi@ 00000001400b0340     main.obj
 0002:000073c0       ??_C@_1JA@GGCJLCHO@?$AA?$FL?$AAd?$AAs?$AAe?$AA_?$AAb?$AAy?$AAp?$AAa?$AAs?$AAs?$AA?3?$AA?3?$AAD?$AAi@ 00000001400b03c0     main.obj
 0002:00007450       ??_C@_1II@MJKDBOEL@?$AA?$FL?$AAd?$AAs?$AAe?$AA_?$AAb?$AAy?$AAp?$AAa?$AAs?$AAs?$AA?3?$AA?3?$AAD?$AAi@ 00000001400b0450     main.obj
 0002:000074e0       ??_C@_1JO@LCPGBPAN@?$AA?$FL?$AAd?$AAs?$AAe?$AA_?$AAb?$AAy?$AAp?$AAa?$AAs?$AAs?$AA?3?$AA?3?$AAD?$AAi@ 00000001400b04e0     main.obj
 0002:00007580       ??_C@_1JE@IGFGBMMA@?$AA?$FL?$AAd?$AAs?$AAe?$AA_?$AAb?$AAy?$AAp?$AAa?$AAs?$AAs?$AA?3?$AA?3?$AAD?$AAi@ 00000001400b0580     main.obj
 0002:00007620       ??_C@_1IA@BEAPNPGD@?$AA?$FL?$AAd?$AAs?$AAe?$AA_?$AAb?$AAy?$AAp?$AAa?$AAs?$AAs?$AA?3?$AA?3?$AAD?$AAi@ 00000001400b0620     main.obj
 0002:000076a0       ?kScanOffsets@?1??RestoreSafe@dse_bypass@@AEAA_NXZ@4QB_KB 00000001400b06a0     main.obj
 0002:000076f0       ??_C@_1HM@CBPEPCEK@?$AA?$FL?$AAd?$AAs?$AAe?$AA_?$AAb?$AAy?$AAp?$AAa?$AAs?$AAs?$AA?3?$AA?3?$AAR?$AAe@ 00000001400b06f0     main.obj
 0002:00007770       ??_C@_1JI@KMGKNBMJ@?$AA?$FL?$AAd?$AAs?$AAe?$AA_?$AAb?$AAy?$AAp?$AAa?$AAs?$AAs?$AA?3?$AA?3?$AAR?$AAe@ 00000001400b0770     main.obj
 0002:00007810       ??_C@_1JO@LKFPBPBI@?$AA?$FL?$AAd?$AAs?$AAe?$AA_?$AAb?$AAy?$AAp?$AAa?$AAs?$AAs?$AA?3?$AA?3?$AAR?$AAe@ 00000001400b0810     main.obj
 0002:000078b0       ??_C@_1II@KACPGHAK@?$AA?$FL?$AAd?$AAs?$AAe?$AA_?$AAb?$AAy?$AAp?$AAa?$AAs?$AAs?$AA?3?$AA?3?$AAR?$AAe@ 00000001400b08b0     main.obj
 0002:00007940       ??_C@_1JM@EEHNPBKA@?$AA?$FL?$AAd?$AAs?$AAe?$AA_?$AAb?$AAy?$AAp?$AAa?$AAs?$AAs?$AA?3?$AA?3?$AAR?$AAe@ 00000001400b0940     main.obj
 0002:000079e0       ??_C@_1LE@BEIAJEGP@?$AA?$FL?$AAd?$AAs?$AAe?$AA_?$AAb?$AAy?$AAp?$AAa?$AAs?$AAs?$AA?3?$AA?3?$AAR?$AAe@ 00000001400b09e0     main.obj
 0002:00007aa0       ??_C@_1MG@NDBFIPOO@?$AA?$FL?$AAd?$AAs?$AAe?$AA_?$AAb?$AAy?$AAp?$AAa?$AAs?$AAs?$AA?3?$AA?3?$AAR?$AAe@ 00000001400b0aa0     main.obj
 0002:00007b68       ?_o@?1???R<lambda_1>@?BD@??GetDataSection@dse_bypass@@AEAA?AV?$optional@U?$pair@_K_K@std@@@std@@_K@Z@QEBAPEBDXZ@4U?$ObfStr@$0EPJOHODI@$08@detail@obf@@B 00000001400b0b68     main.obj
 0002:00007b78       ?kCandidateOffsets@?1??FindCiOptions@dse_bypass@@AEAA_K_K@Z@4QB_KB 00000001400b0b78     main.obj
 0002:00007b90       ??_C@_1MA@NLJAKHFK@?$AA?$FL?$AAd?$AAs?$AAe?$AA_?$AAb?$AAy?$AAp?$AAa?$AAs?$AAs?$AA?3?$AA?3?$AAF?$AAi@ 00000001400b0b90     main.obj
 0002:00007c50       ??_C@_1ME@KEMDFINA@?$AA?$FL?$AAd?$AAs?$AAe?$AA_?$AAb?$AAy?$AAp?$AAa?$AAs?$AAs?$AA?3?$AA?3?$AAF?$AAi@ 00000001400b0c50     main.obj
 0002:00007d18       ?_o@?1???R<lambda_1>@?1??KVC_SVC_NAME@kvc_session@@YAPEB_WXZ@QEBAPEB_WXZ@4U?$ObfWStr@$0EPLBEILB@$08@detail@obf@@B 00000001400b0d18     main.obj
 0002:00007d30       ?_o@?1???R<lambda_1>@?1??KVC_SVC_DISP@kvc_session@@YAPEB_WXZ@QEBAPEB_WXZ@4U?$ObfWStr@$0EPMEKBCK@$0CF@@detail@obf@@B 00000001400b0d30     main.obj
 0002:00007d80       ?_o@?1???R<lambda_1>@?4??InitDynamicAPIs@kvc_session@@YA_NXZ@QEBAPEBDXZ@4U?$ObfStr@$0EPNHPLKD@$0N@@detail@obf@@B 00000001400b0d80     main.obj
 0002:00007d90       ?_o@?1???R<lambda_2>@?4??InitDynamicAPIs@kvc_session@@YA_NXZ@QEBAPEBDXZ@4U?$ObfStr@$0EPOKNENM@$0P@@detail@obf@@B 00000001400b0d90     main.obj
 0002:00007da0       ?_o@?1???R<lambda_3>@?4??InitDynamicAPIs@kvc_session@@YA_NXZ@QEBAPEBDXZ@4U?$ObfStr@$0EPPMCNFF@$0BD@@detail@obf@@B 00000001400b0da0     main.obj
 0002:00007db8       ?_o@?1???R<lambda_4>@?4??InitDynamicAPIs@kvc_session@@YA_NXZ@QEBAPEBDXZ@4U?$ObfStr@$0FAAPAHMO@$0P@@detail@obf@@B 00000001400b0db8     main.obj
 0002:00007dc8       ?_o@?1???R<lambda_5>@?4??InitDynamicAPIs@kvc_session@@YA_NXZ@QEBAPEBDXZ@4U?$ObfStr@$0FACCFAEH@$0N@@detail@obf@@B 00000001400b0dc8     main.obj
 0002:00007dd8       ?_o@?1???R<lambda_6>@?4??InitDynamicAPIs@kvc_session@@YA_NXZ@QEBAPEBDXZ@4U?$ObfStr@$0FADFKKMA@$0O@@detail@obf@@B 00000001400b0dd8     main.obj
 0002:00007de8       ?_o@?1???R<lambda_7>@?4??InitDynamicAPIs@kvc_session@@YA_NXZ@QEBAPEBDXZ@4U?$ObfStr@$0FAEIIDHJ@$0O@@detail@obf@@B 00000001400b0de8     main.obj
 0002:00007df8       ?_o@?1???R<lambda_8>@?4??InitDynamicAPIs@kvc_session@@YA_NXZ@QEBAPEBDXZ@4U?$ObfStr@$0FAFLNNPC@$0P@@detail@obf@@B 00000001400b0df8     main.obj
 0002:00007e08       ?_o@?1???R<lambda_9>@?4??InitDynamicAPIs@kvc_session@@YA_NXZ@QEBAPEBDXZ@4U?$ObfStr@$0FAGNDGGL@$0BD@@detail@obf@@B 00000001400b0e08     main.obj
 0002:00007e20       ?_o@?1???R<lambda_10>@?M@??InitDynamicAPIs@kvc_session@@YA_NXZ@QEBAPEBDXZ@4U?$ObfStr@$0FAIAAAOE@$0N@@detail@obf@@B 00000001400b0e20     main.obj
 0002:00007e30       ?_o@?1???R<lambda_11>@?M@??InitDynamicAPIs@kvc_session@@YA_NXZ@QEBAPEBDXZ@4U?$ObfStr@$0FAJDFJBN@$0M@@detail@obf@@B 00000001400b0e30     main.obj
 0002:00007e40       ??_C@_0BN@IHIHGKII@kvc_session?3?3InitDynamicAPIs@ 00000001400b0e40     main.obj
 0002:00007e60       ?_o@?1???R<lambda_1>@?7??Install@kvc_session@@YA_NAEBV?$basic_string@_WU?$char_traits@_W@std@@V?$allocator@_W@2@@std@@@Z@QEBA?AV45@XZ@4U?$ObfWStr@$0FAKGLDJG@$0DH@@detail@obf@@B 00000001400b0e60     main.obj
 0002:00007ed0       ?_o@?1???R<lambda_2>@?O@??Install@kvc_session@@YA_NAEBV?$basic_string@_WU?$char_traits@_W@std@@V?$allocator@_W@2@@std@@@Z@QEBA?AV45@XZ@4U?$ObfWStr@$0FALJIMAP@$0DG@@detail@obf@@B 00000001400b0ed0     main.obj
 0002:00007f40       ?_o@?1???R<lambda_3>@?BD@??Install@kvc_session@@YA_NAEBV?$basic_string@_WU?$char_traits@_W@std@@V?$allocator@_W@2@@std@@@Z@QEBA?AV45@XZ@4U?$ObfWStr@$0FAMMOGII@$0EB@@detail@obf@@B 00000001400b0f40     main.obj
 0002:00007fd0       ?_o@?1???R<lambda_4>@?1??Install@kvc_session@@YA_NAEBV?$basic_string@_WU?$char_traits@_W@std@@V?$allocator@_W@2@@std@@@Z@QEBA?AV45@XZ@4U?$ObfWStr@$0FANODPAB@$0CF@@detail@obf@@B 00000001400b0fd0     main.obj
 0002:00008020       ??_C@_1II@BKCJKKED@?$AA?$FL?$AAk?$AAv?$AAc?$AA_?$AAs?$AAe?$AAs?$AAs?$AAi?$AAo?$AAn?$AA?3?$AA?3?$AAI@ 00000001400b1020     main.obj
 0002:000080b0       ??_C@_1GO@IHDHFDLI@?$AA?$FL?$AAk?$AAv?$AAc?$AA_?$AAs?$AAe?$AAs?$AAs?$AAi?$AAo?$AAn?$AA?3?$AA?3?$AAI@ 00000001400b10b0     main.obj
 0002:00008120       ?_o@?1???R<lambda_1>@?P@??Start@kvc_session@@YA_NXZ@QEBA?AV?$basic_string@_WU?$char_traits@_W@std@@V?$allocator@_W@2@@std@@XZ@4U?$ObfWStr@$0FAPBAJLK@$0GP@@detail@obf@@B 00000001400b1120     main.obj
 0002:00008200       ?_o@?1???R<lambda_2>@?P@??Start@kvc_session@@YA_NXZ@QEBA?AV?$basic_string@_WU?$char_traits@_W@std@@V?$allocator@_W@2@@std@@XZ@4U?$ObfWStr@$0FBAEGCDD@$08@detail@obf@@B 00000001400b1200     main.obj
 0002:00008218       ?_o@?1???R<lambda_3>@?1??Start@kvc_session@@YA_NXZ@QEBA?AV?$basic_string@_WU?$char_traits@_W@std@@V?$allocator@_W@2@@std@@XZ@4U?$ObfWStr@$0FBBHLMKM@$08@detail@obf@@B 00000001400b1218     main.obj
 0002:00008230       ??_C@_1BC@KGEOFCAF@?$AA?5?$AAr?$AAu?$AAn?$AAn?$AAi?$AAn?$AAg@ 00000001400b1230     main.obj
 0002:00008248       ??_C@_1DK@IKOLNEFP@?$AA?$FL?$AAk?$AAv?$AAc?$AA_?$AAs?$AAe?$AAs?$AAs?$AAi?$AAo?$AAn?$AA?3?$AA?3?$AAS@ 00000001400b1248     main.obj
 0002:00008288       ??_C@_1BC@BICEHDJK@?$AA?2?$AAk?$AAv?$AAc?$AA?4?$AAs?$AAy?$AAs@ 00000001400b1288     main.obj
 0002:000082a0       ??_C@_1BO@KHPIANPE@?$AA?2?$AA?4?$AA?4?$AA?2?$AA?4?$AA?4?$AA?2?$AAk?$AAv?$AAc?$AA?4?$AAs?$AAy?$AAs@ 00000001400b12a0     main.obj
 0002:000082c0       ??_C@_1BI@HOGLKELB@?$AA?2?$AA?4?$AA?4?$AA?2?$AAk?$AAv?$AAc?$AA?4?$AAs?$AAy?$AAs@ 00000001400b12c0     main.obj
 0002:000082e0       ??_C@_1HC@PIEJNIOP@?$AA?2?$AA?4?$AA?4?$AA?2?$AA?4?$AA?4?$AA?2?$AA?4?$AA?4?$AA?2?$AA?4?$AA?4?$AA?2?$AA?4?$AA?4@ 00000001400b12e0     main.obj
 0002:00008360       ??_C@_1FE@NPIIBNBD@?$AA?2?$AA?4?$AA?4?$AA?2?$AAd?$AAr?$AAi?$AAv?$AAe?$AAr?$AA?5?$AAl?$AAo?$AAa?$AAd@ 00000001400b1360     main.obj
 0002:000083c0       ?_o@?1???R<lambda_1>@?1??BeginSession@kvc_session@@YA_NAEAUSession@3@V?$basic_string@_WU?$char_traits@_W@std@@V?$allocator@_W@2@@std@@@Z@QEBA?AV56@XZ@4U?$ObfWStr@$0FBCKJFCF@$0CN@@detail@obf@@B 00000001400b13c0     main.obj
 0002:00008420       ?_o@?1???R<lambda_2>@?O@??BeginSession@kvc_session@@YA_NAEAUSession@3@V?$basic_string@_WU?$char_traits@_W@std@@V?$allocator@_W@2@@std@@@Z@QEBA?AV56@XZ@4U?$ObfWStr@$0FBDNOOFO@$0FJ@@detail@obf@@B 00000001400b1420     main.obj
 0002:000084d8       ??_C@_0BK@PCCHONEG@kvc_session?3?3BeginSession@ 00000001400b14d8     main.obj
 0002:00008500       ??_C@_1JG@LCOPGKGC@?$AA?$FL?$AAk?$AAv?$AAc?$AA_?$AAs?$AAe?$AAs?$AAs?$AAi?$AAo?$AAn?$AA?3?$AA?3?$AAB@ 00000001400b1500     main.obj
 0002:000085a0       ??_C@_1HA@GHKBCJBB@?$AA?$FL?$AAk?$AAv?$AAc?$AA_?$AAs?$AAe?$AAs?$AAs?$AAi?$AAo?$AAn?$AA?3?$AA?3?$AAB@ 00000001400b15a0     main.obj
 0002:00008610       ??_C@_0BI@JMNAIPEI@kvc_session?3?3EndSession@ 00000001400b1610     main.obj
 0002:00008628       ??_C@_1BO@FLPNODPA@?$AAe?$AAr?$AAr?$AAo?$AAr?$AA?5?$AA0?$AAx?$AA?$HL?$AA?3?$AA0?$AA8?$AAX?$AA?$HN@ 00000001400b1628     main.obj
 0002:00008648       ??_C@_1BC@LFLFKCMF@?$AAR?$AAT?$AAC?$AAo?$AAr?$AAe?$AA6?$AA4@ 00000001400b1648     main.obj
 0002:00008660       ??_C@_1CO@DMMANPPD@?$AAI?$AAn?$AAi?$AAt?$AAD?$AAy?$AAn?$AAa?$AAm?$AAi?$AAc?$AAA?$AAP?$AAI?$AAs@ 00000001400b1660     main.obj
 0002:00008690       ??_C@_1DE@PNECEFKN@?$AAO?$AAp?$AAe?$AAn?$AAS?$AAC?$AAM?$AAa?$AAn?$AAa?$AAg?$AAe?$AAr?$AAW?$AA?5@ 00000001400b1690     main.obj
 0002:000086d0       ??_C@_1LA@MHKHAKKK@?$AA?$FL?$AAd?$AAr?$AAi?$AAv?$AAe?$AAr?$AA_?$AAm?$AAg?$AAr?$AA?3?$AA?3?$AAl?$AAo@ 00000001400b16d0     main.obj
 0002:00008780       ??_C@_1IK@KAAAHFMG@?$AA?$FL?$AAd?$AAr?$AAi?$AAv?$AAe?$AAr?$AA_?$AAm?$AAg?$AAr?$AA?3?$AA?3?$AAl?$AAo@ 00000001400b1780     main.obj
 0002:00008810       ??_C@_1FA@NFKNLIFL@?$AA?$FL?$AAd?$AAr?$AAi?$AAv?$AAe?$AAr?$AA_?$AAm?$AAg?$AAr?$AA?3?$AA?3?$AAl?$AAo@ 00000001400b1810     main.obj
 0002:00008860       ??_C@_1BCG@LFJGLJOG@?$AA?$FL?$AAd?$AAr?$AAi?$AAv?$AAe?$AAr?$AA_?$AAm?$AAg?$AAr?$AA?3?$AA?3?$AAl?$AAo@ 00000001400b1860     main.obj
 0002:00008988       ??_C@_0M@GJICBIJE@load_driver@ 00000001400b1988     main.obj
 0002:00008998       ??_C@_1CG@MIKMPNLB@?$AAF?$AAi?$AAl?$AAe?$AA?5?$AAn?$AAo?$AAt?$AA?5?$AAf?$AAo?$AAu?$AAn?$AAd?$AA?3@ 00000001400b1998     main.obj
 0002:000089c0       ??_C@_1BI@MKGFOENL@?$AA?$CI?$AAn?$AAo?$AAt?$AA?5?$AAf?$AAo?$AAu?$AAn?$AAd?$AA?$CJ@ 00000001400b19c0     main.obj
 0002:000089e0       ??_C@_1GM@OEOMJJKO@?$AA?$FL?$AAd?$AAr?$AAi?$AAv?$AAe?$AAr?$AA_?$AAm?$AAg?$AAr?$AA?3?$AA?3?$AAl?$AAo@ 00000001400b19e0     main.obj
 0002:00008a50       ??_C@_1IE@EBNIBNPM@?$AAk?$AAv?$AAc?$AA?4?$AAs?$AAy?$AAs?$AA?5?$AAn?$AAo?$AAt?$AA?5?$AAf?$AAo?$AAu@ 00000001400b1a50     main.obj
 0002:00008ae0       ??_C@_1GI@GPIHMDEF@?$AA?$FL?$AAd?$AAr?$AAi?$AAv?$AAe?$AAr?$AA_?$AAm?$AAg?$AAr?$AA?3?$AA?3?$AAl?$AAo@ 00000001400b1ae0     main.obj
 0002:00008b50       ??_C@_1BII@OBAJFOIL@?$AAB?$AAe?$AAg?$AAi?$AAn?$AAS?$AAe?$AAs?$AAs?$AAi?$AAo?$AAn?$AA?5?$AAf?$AAa@ 00000001400b1b50     main.obj
 0002:00008cd8       ??_C@_1BC@LEJCHMO@?$AAS?$AAt?$AAa?$AAn?$AAd?$AAa?$AAr?$AAd@ 00000001400b1cd8     main.obj
 0002:00008cf0       ??_C@_19IAECOBJB@?$AAS?$AAa?$AAf?$AAe@ 00000001400b1cf0     main.obj
 0002:00008d00       ??_C@_1HA@HLICICFP@?$AA?$FL?$AAd?$AAr?$AAi?$AAv?$AAe?$AAr?$AA_?$AAm?$AAg?$AAr?$AA?3?$AA?3?$AAl?$AAo@ 00000001400b1d00     main.obj
 0002:00008d70       ??_C@_1GA@MIGHPFH@?$AA?$FL?$AAd?$AAr?$AAi?$AAv?$AAe?$AAr?$AA_?$AAm?$AAg?$AAr?$AA?3?$AA?3?$AAl?$AAo@ 00000001400b1d70     main.obj
 0002:00008dd0       ??_C@_1HE@KOAMPKOC@?$AA?$FL?$AAd?$AAr?$AAi?$AAv?$AAe?$AAr?$AA_?$AAm?$AAg?$AAr?$AA?3?$AA?3?$AAl?$AAo@ 00000001400b1dd0     main.obj
 0002:00008e50       ??_C@_1GM@CLFJAACA@?$AA?$FL?$AAd?$AAr?$AAi?$AAv?$AAe?$AAr?$AA_?$AAm?$AAg?$AAr?$AA?3?$AA?3?$AAl?$AAo@ 00000001400b1e50     main.obj
 0002:00008ec0       ??_C@_1IC@GDHPHEPE@?$AAD?$AAS?$AAE?$AA?5?$AAD?$AAi?$AAs?$AAa?$AAb?$AAl?$AAe?$AA?5?$AAf?$AAa?$AAi@ 00000001400b1ec0     main.obj
 0002:00008f50       ??_C@_1HG@CCHNFDJE@?$AA?$FL?$AAd?$AAr?$AAi?$AAv?$AAe?$AAr?$AA_?$AAm?$AAg?$AAr?$AA?3?$AA?3?$AAl?$AAo@ 00000001400b1f50     main.obj
 0002:00008fd0       ??_C@_1HM@NCAGCLHJ@?$AA?$FL?$AAd?$AAr?$AAi?$AAv?$AAe?$AAr?$AA_?$AAm?$AAg?$AAr?$AA?3?$AA?3?$AAl?$AAo@ 00000001400b1fd0     main.obj
 0002:00009050       ??_C@_1LA@IOONKJEE@?$AA?$FL?$AAd?$AAr?$AAi?$AAv?$AAe?$AAr?$AA_?$AAm?$AAg?$AAr?$AA?3?$AA?3?$AAl?$AAo@ 00000001400b2050     main.obj
 0002:00009100       ??_C@_1IM@IELPECDD@?$AA?$FL?$AAd?$AAr?$AAi?$AAv?$AAe?$AAr?$AA_?$AAm?$AAg?$AAr?$AA?3?$AA?3?$AAl?$AAo@ 00000001400b2100     main.obj
 0002:00009190       ??_C@_1DE@EMDMHMOG@?$AAC?$AAr?$AAe?$AAa?$AAt?$AAe?$AAS?$AAe?$AAr?$AAv?$AAi?$AAc?$AAe?$AAW?$AA?5@ 00000001400b2190     main.obj
 0002:000091d0       ??_C@_1GI@DHMEOJBK@?$AA?$FL?$AAd?$AAr?$AAi?$AAv?$AAe?$AAr?$AA_?$AAm?$AAg?$AAr?$AA?3?$AA?3?$AAl?$AAo@ 00000001400b21d0     main.obj
 0002:00009240       ??_C@_1GE@CMEDPFKK@?$AAS?$AAt?$AAa?$AAr?$AAt?$AAS?$AAe?$AAr?$AAv?$AAi?$AAc?$AAe?$AAW?$AA?$CI?$AA?8@ 00000001400b2240     main.obj
 0002:000092b0       ??_C@_1FM@ECLMIKDD@?$AA?$FL?$AAd?$AAr?$AAi?$AAv?$AAe?$AAr?$AA_?$AAm?$AAg?$AAr?$AA?3?$AA?3?$AAl?$AAo@ 00000001400b22b0     main.obj
 0002:00009310       ??_C@_1CI@JIJBBGDG@?$AAD?$AAr?$AAi?$AAv?$AAe?$AAr?$AA?5?$AA?8?$AA?$HL?$AA?$HN?$AA?8?$AA?5?$AAl?$AAo?$AAa@ 00000001400b2310     main.obj
 0002:00009338       ??_C@_0BC@EJGOMNFC@admin?9panel?92d070@ 00000001400b2338     main.obj
 0002:00009350       ??_C@_0CI@JADNBOCB@AIzaSyAM2U16cKvk8jsIBreepnDsRkD@ 00000001400b2350     main.obj
 0002:00009378       ??_C@_0N@IHIJLLPL@HWID_UNKNOWN@ 00000001400b2378     main.obj
 0002:00009388       ??_C@_0BP@FKFDOICF@?$CF04d?9?$CF02d?9?$CF02dT?$CF02d?3?$CF02d?3?$CF02dZ@ 00000001400b2388     main.obj
 0002:000093a8       ??_C@_1CG@MJBIJEPD@?$AAM?$AAi?$AAd?$AAn?$AAi?$AAg?$AAh?$AAt?$AAL?$AAo?$AAa?$AAd?$AAe?$AAr?$AA?1@ 00000001400b23a8     main.obj
 0002:000093d0       ??_C@_1DC@LGKKLMCP@?$AAf?$AAi?$AAr?$AAe?$AAs?$AAt?$AAo?$AAr?$AAe?$AA?4?$AAg?$AAo?$AAo?$AAg?$AAl@ 00000001400b23d0     main.obj
 0002:00009410       ??_C@_1HC@KAAIONFL@?$AAC?$AAo?$AAn?$AAt?$AAe?$AAn?$AAt?$AA?9?$AAT?$AAy?$AAp?$AAe?$AA?3?$AA?5?$AAa@ 00000001400b2410     main.obj
 0002:00009484       ??_C@_03DBLHIHCN@?$CC?3?$HL@ 00000001400b2484     main.obj
 0002:00009488       ??_C@_0M@FFMMCBKI@stringValue@ 00000001400b2488     main.obj
 0002:00009498       ??_C@_0P@EOJALLMF@timestampValue@ 00000001400b2498     main.obj
 0002:000094a8       ??_C@_03FKMOGBDA@?$CC?3?$CC@ 00000001400b24a8     main.obj
 0002:000094b0       ??_C@_0BB@DHEFFGCP@?$CCintegerValue?$CC?3?$CC@ 00000001400b24b0     main.obj
 0002:000094c8       ??_C@_0BA@NOOCFCLB@?$CCbooleanValue?$CC?3@ 00000001400b24c8     main.obj
 0002:000094d8       ??_C@_05GIMDLBCI@?$DPkey?$DN@ 00000001400b24d8     main.obj
 0002:000094e0       ??_C@_01KMDKNFGN@?1@       00000001400b24e0     main.obj
 0002:000094e8       ??_C@_0CA@KGFAAGDA@?1databases?1?$CIdefault?$CJ?1documents?1@ 00000001400b24e8     main.obj
 0002:00009508       ??_C@_0O@BNABGNJJ@?1v1?1projects?1@ 00000001400b2508     main.obj
 0002:00009518       ??_C@_05EMBKOCHL@?$CGkey?$DN@ 00000001400b2518     main.obj
 0002:00009520       ??_C@_01OGPIMHDM@?$DP@     00000001400b2520     main.obj
 0002:00009528       ??_C@_1M@MPCJPKCO@?$AAP?$AAA?$AAT?$AAC?$AAH@ 00000001400b2528     main.obj
 0002:00009538       ??_C@_19JLKJCDCM@?$AAP?$AAO?$AAS?$AAT@ 00000001400b2538     main.obj
 0002:00009544       ??_C@_04NNDBPAHP@?$CC?$HN?$HN?$HN@ 00000001400b2544     main.obj
 0002:00009550       ??_C@_0CD@CEALNHGO@?$HL?$CCfields?$CC?3?$HL?$CChwid?$CC?3?$HL?$CCstringValue@ 00000001400b2550     main.obj
 0002:00009578       ??_C@_0BL@CIMPAPFN@updateMask?4fieldPaths?$DNhwid@ 00000001400b2578     main.obj
 0002:00009594       ??_C@_02DPKJAMEF@?$CFd@    00000001400b2594     main.obj
 0002:00009598       ??_C@_0CD@OJKAAKCL@?$CC?$HN?0?$CClast_auth?$CC?3?$HL?$CCtimestampValue@ 00000001400b2598     main.obj
 0002:000095c0       ??_C@_0CK@LMBMOMCF@?$HL?$CCfields?$CC?3?$HL?$CCauth_count?$CC?3?$HL?$CCinteg@ 00000001400b25c0     main.obj
 0002:000095f0       ??_C@_0EB@FMACGKKH@updateMask?4fieldPaths?$DNauth_coun@ 00000001400b25f0     main.obj
 0002:00009638       ??_C@_0CD@BNNLGFEO@?$CC?$HN?0?$CCtimestamp?$CC?3?$HL?$CCtimestampValue@ 00000001400b2638     main.obj
 0002:00009660       ??_C@_0BM@DHPGNLC@?$HN?0?$CCreason?$CC?3?$HL?$CCstringValue?$CC?3?$CC@ 00000001400b2660     main.obj
 0002:00009680       ??_C@_0DJ@HGGDOKEJ@?$CC?$HN?0?$CCip?$CC?3?$HL?$CCstringValue?$CC?3?$CCn?1a?$CC?$HN?0?$CC@ 00000001400b2680     main.obj
 0002:000096c0       ??_C@_0BL@JLPDGMJL@?$CC?$HN?0?$CChwid?$CC?3?$HL?$CCstringValue?$CC?3?$CC@ 00000001400b26c0     main.obj
 0002:000096e0       ??_C@_0BL@EBGLJICP@?$CC?$HN?0?$CCgame?$CC?3?$HL?$CCstringValue?$CC?3?$CC@ 00000001400b26e0     main.obj
 0002:00009700       ??_C@_0CC@GFMBPNEM@?$HL?$CCfields?$CC?3?$HL?$CCkey?$CC?3?$HL?$CCstringValue?$CC@ 00000001400b2700     main.obj
 0002:00009728       ??_C@_09IDPCNDBO@auth_logs@ 00000001400b2728     main.obj
 0002:00009738       ??_C@_0BC@DOEHIAJI@?$CFd?9?$CFd?9?$CFdT?$CFd?3?$CFd?3?$CFd@ 00000001400b2738     main.obj
 0002:00009750       ??_C@_07NFANNNEC@UNKNOWN@  00000001400b2750     main.obj
 0002:00009758       ??_C@_09MMJHJAEN@Empty?5key@ 00000001400b2758     main.obj
 0002:00009768       ??_C@_0BE@BCKBHKGP@Network?5unreachable@ 00000001400b2768     main.obj
 0002:00009780       ??_C@_09IILMPLJM@NOT_FOUND@ 00000001400b2780     main.obj
 0002:00009790       ??_C@_0O@HNMDNPGH@Key?5not?5found@ 00000001400b2790     main.obj
 0002:000097a0       ??_C@_0P@LDDFKKCA@Firebase?5HTTP?5@ 00000001400b27a0     main.obj
 0002:000097b0       ??_C@_0L@GDPGAOKF@expires_at@ 00000001400b27b0     main.obj
 0002:000097c0       ??_C@_0L@KOGHGOKA@auth_count@ 00000001400b27c0     main.obj
 0002:000097cc       ??_C@_06PGEEPMG@banned@    00000001400b27cc     main.obj
 0002:000097d4       ??_C@_06LEPJBBE@BANNED@    00000001400b27d4     main.obj
 0002:000097e0       ??_C@_0O@HMDLMKGA@Key?5is?5banned@ 00000001400b27e0     main.obj
 0002:000097f0       ??_C@_07DBLHHLAD@EXPIRED@  00000001400b27f0     main.obj
 0002:000097f8       ??_C@_0BA@JHKDJNFC@Key?5has?5expired@ 00000001400b27f8     main.obj
 0002:00009808       ??_C@_0O@HIGNKMIJ@HWID_MISMATCH@ 00000001400b2808     main.obj
 0002:00009818       ??_C@_0O@IDEMLL@HWID?5mismatch@ 00000001400b2818     main.obj
 0002:00009828       ??_C@_02GIPFHKNO@OK@       00000001400b2828     main.obj
 0002:00009830       ??_C@_0P@NIKMDOAI@Key?5not?5found?4@ 00000001400b2830     main.obj
 0002:00009840       ??_C@_0P@EGMJFDLO@Key?5is?5banned?4@ 00000001400b2840     main.obj
 0002:00009850       ??_C@_0BB@IOPFJKGJ@Key?5has?5expired?4@ 00000001400b2850     main.obj
 0002:00009868       ??_C@_0CJ@KCJJEIJE@HWID?5mismatch?4?5Contact?5support?5@ 00000001400b2868     main.obj
 0002:00009898       ??_C@_0CG@BFFBHOLB@Network?5error?4?5Check?5your?5conne@ 00000001400b2898     main.obj
 0002:000098c0       ??_C@_0BO@FDAMDGNA@Unknown?5error?4?5Check?5the?5log?4@ 00000001400b28c0     main.obj
 0002:000098e0       ??_C@_1DM@DIPEENAE@?$AAG?$AAl?$AAo?$AAb?$AAa?$AAl?$AA?2?$AAM?$AAi?$AAd?$AAn?$AAi?$AAg?$AAh?$AAt@ 00000001400b28e0     main.obj
 0002:00009920       ??_C@_0P@FLJDKICO@Validating?5key@ 00000001400b2920     main.obj
 0002:00009930       ?_o@?1???R<lambda_1>@?1??launch_payload@auth@@YA_NAEBV?$basic_string@_WU?$char_traits@_W@std@@V?$allocator@_W@2@@std@@@Z@QEBA?AV45@XZ@4U?$ObfWStr@$0FBEPDINH@$0BK@@detail@obf@@B 00000001400b2930     main.obj
 0002:00009970       ?_o@?1???R<lambda_2>@?4??launch_payload@auth@@YA_NAEBV?$basic_string@_WU?$char_traits@_W@std@@V?$allocator@_W@2@@std@@@Z@QEBAPEB_WXZ@4U?$ObfWStr@$0FBGCBBFA@$0CL@@detail@obf@@B 00000001400b2970     main.obj
 0002:000099d0       ?_o@?1???R<lambda_3>@?7??launch_payload@auth@@YA_NAEBV?$basic_string@_WU?$char_traits@_W@std@@V?$allocator@_W@2@@std@@@Z@QEBA?AV45@XZ@4U?$ObfWStr@$0FBHFGLMJ@$0DB@@detail@obf@@B 00000001400b29d0     main.obj
 0002:00009a40       ?_o@?1???R<lambda_4>@?L@??launch_payload@auth@@YA_NAEBV?$basic_string@_WU?$char_traits@_W@std@@V?$allocator@_W@2@@std@@@Z@QEBA?AV45@XZ@4U?$ObfWStr@$0FBIIEEEC@$0CC@@detail@obf@@B 00000001400b2a40     main.obj
 0002:00009a90       ?_o@?1???R<lambda_5>@?N@??launch_payload@auth@@YA_NAEBV?$basic_string@_WU?$char_traits@_W@std@@V?$allocator@_W@2@@std@@@Z@QEBA?AV45@XZ@4U?$ObfWStr@$0FBJLJOPL@$0CK@@detail@obf@@B 00000001400b2a90     main.obj
 0002:00009ae8       ??_C@_0P@CENPMMLO@launch_payload@ 00000001400b2ae8     main.obj
 0002:00009b00       ?_o@?1???R<lambda_1>@?6??protect_payload_proc@auth@@YAXK@Z@QEBA?AV?$basic_string@_WU?$char_traits@_W@std@@V?$allocator@_W@2@@std@@XZ@4U?$ObfWStr@$0FBKOPHHE@$0DG@@detail@obf@@B 00000001400b2b00     main.obj
 0002:00009b70       ?_o@?1???R<lambda_2>@?8??protect_payload_proc@auth@@YAXK@Z@QEBA?AV?$basic_string@_WU?$char_traits@_W@std@@V?$allocator@_W@2@@std@@XZ@4U?$ObfWStr@$0FBMBMBON@$0EF@@detail@obf@@B 00000001400b2b70     main.obj
 0002:00009c00       ?_o@?1???R<lambda_3>@?9??protect_payload_proc@auth@@YAXK@Z@QEBA?AV?$basic_string@_WU?$char_traits@_W@std@@V?$allocator@_W@2@@std@@XZ@4U?$ObfWStr@$0FBNDBKGG@$0DJ@@detail@obf@@B 00000001400b2c00     main.obj
 0002:00009c78       ??_C@_1BI@NCMNPNKM@?$AA?2?$AA?2?$AA?4?$AA?2?$AAD?$AAX?$AAG?$AAK?$AAr?$AAn?$AAl@ 00000001400b2c78     main.obj
 0002:00009d60       ??_C@_0BB@BMAEOPEK@auth_load_thread@ 00000001400b2d60     main.obj
 0002:00009d78       ?_o@?1???R<lambda_1>@?1??start_auth_thread@auth@@YAXAEBV?$basic_string@DU?$char_traits@D@std@@V?$allocator@D@2@@std@@@Z@QEBA?AV?$basic_string@_WU?$char_traits@_W@std@@V?$allocator@_W@2@@5@XZ@4U?$ObfWStr@$0FCBPPAAK@$0BA@@detail@obf@@B 00000001400b2d78     main.obj
 0002:00009d98       ?_o@?1???R<lambda_1>@?1??draw_login_ui@auth@@YA_NXZ@QEBAPEBDXZ@4U?$ObfStr@$0FCDCMKID@$0N@@detail@obf@@B 00000001400b2d98     main.obj
 0002:00009da8       ?_o@?1???R<lambda_2>@?L@??draw_login_ui@auth@@YA_NXZ@QEBAPEBDXZ@4U?$ObfStr@$0FCEECDDM@$0CM@@detail@obf@@B 00000001400b2da8     main.obj
 0002:00009dd8       ?_o@?1???R<lambda_3>@?L@??draw_login_ui@auth@@YA_NXZ@QEBAPEBDXZ@4U?$ObfStr@$0FCFHHNLF@$0CJ@@detail@obf@@B 00000001400b2dd8     main.obj
 0002:00009e08       ?_o@?1???R<lambda_4>@?L@??draw_login_ui@auth@@YA_NXZ@QEBAPEBDXZ@4U?$ObfStr@$0FCGKFGCO@$0CE@@detail@obf@@B 00000001400b2e08     main.obj
 0002:00009e30       ?_o@?1???R<lambda_5>@?M@??draw_login_ui@auth@@YA_NXZ@QEBAPEBDXZ@4U?$ObfStr@$0FCHNKAKH@$08@detail@obf@@B 00000001400b2e30     main.obj
 0002:00009e40       ?_o@?1???R<lambda_6>@?BG@??draw_login_ui@auth@@YA_NXZ@QEBAPEB_WXZ@4U?$ObfWStr@$0FCJAPJCA@$0CL@@detail@obf@@B 00000001400b2e40     main.obj
 0002:00009e98       ?_o@?1???R<lambda_7>@?BA@??draw_login_ui@auth@@YA_NXZ@QEBAPEBDXZ@4U?$ObfStr@$0FCKDNCFJ@$0CN@@detail@obf@@B 00000001400b2e98     main.obj
 0002:00009ec8       ?_o@?1???R<lambda_8>@?BA@??draw_login_ui@auth@@YA_NXZ@QEBAPEBDXZ@4U?$ObfStr@$0FCLFCMNC@$03@detail@obf@@B 00000001400b2ec8     main.obj
 0002:00009ed0       ?_o@?1???R<lambda_9>@?BA@??draw_login_ui@auth@@YA_NXZ@QEBAPEBDXZ@4U?$ObfStr@$0FCMIAFEL@$0M@@detail@obf@@B 00000001400b2ed0     main.obj
 0002:00009ee0       ?_o@?1???R<lambda_10>@?BH@??draw_login_ui@auth@@YA_NXZ@QEBAPEBDXZ@4U?$ObfStr@$0FCNLFPME@$0BJ@@detail@obf@@B 00000001400b2ee0     main.obj
 0002:00009f00       ?_o@?1???R<lambda_11>@?BA@??draw_login_ui@auth@@YA_NXZ@QEBAPEBDXZ@4U?$ObfStr@$0FCOOKIHN@$08@detail@obf@@B 00000001400b2f00     main.obj
 0002:00009f10       ?_o@?1???R<lambda_12>@?BA@??draw_login_ui@auth@@YA_NXZ@QEBAPEBDXZ@4U?$ObfStr@$0FDABICPG@$0BH@@detail@obf@@B 00000001400b2f10     main.obj
 0002:00009f28       ?_o@?1???R<lambda_13>@?BA@??draw_login_ui@auth@@YA_NXZ@QEBAPEBDXZ@4U?$ObfStr@$0FDBENLGP@$0BH@@detail@obf@@B 00000001400b2f28     main.obj
 0002:00009f40       ?_o@?1???R<lambda_14>@?DC@??draw_login_ui@auth@@YA_NXZ@QEBAPEB_WXZ@4U?$ObfWStr@$0FDCGDFOI@$0EJ@@detail@obf@@B 00000001400b2f40     main.obj
 0002:00009fd8       ?_o@?1???R<lambda_15>@?DN@??draw_login_ui@auth@@YA_NXZ@QEBAPEBDXZ@4U?$ObfStr@$0FDDJAOGB@$0BN@@detail@obf@@B 00000001400b2fd8     main.obj
 0002:00009ff8       ?_o@?1???R<lambda_16>@?DN@??draw_login_ui@auth@@YA_NXZ@QEBAPEBDXZ@4U?$ObfStr@$0FDEMFIJK@$0BK@@detail@obf@@B 00000001400b2ff8     main.obj
 0002:0000a012       ?_o@?1???R<lambda_17>@?CB@??draw_login_ui@auth@@YA_NXZ@QEBAPEBDXZ@4U?$ObfStr@$0FDFPLBBD@$00@detail@obf@@B 00000001400b3012     main.obj
 0002:0000a018       ?_o@?1???R<lambda_18>@?EI@??draw_login_ui@auth@@YA_NXZ@QEBAPEBDXZ@4U?$ObfStr@$0FDHCILIM@$0CG@@detail@obf@@B 00000001400b3018     main.obj
 0002:0000a040       ?_o@?1???R<lambda_19>@?EI@??draw_login_ui@auth@@YA_NXZ@QEBAPEBDXZ@4U?$ObfStr@$0FDIFOEAF@$0BO@@detail@obf@@B 00000001400b3040     main.obj
 0002:0000a060       ?_o@?1???R<lambda_20>@?EI@??draw_login_ui@auth@@YA_NXZ@QEBAPEBDXZ@4U?$ObfStr@$0FDJHDOLO@$0BE@@detail@obf@@B 00000001400b3060     main.obj
 0002:0000a074       ?_o@?1???R<lambda_21>@?EI@??draw_login_ui@auth@@YA_NXZ@QEBAPEBDXZ@4U?$ObfStr@$0FDKKBHDH@$00@detail@obf@@B 00000001400b3074     main.obj
 0002:0000a078       ?_o@?1???R<lambda_22>@?EM@??draw_login_ui@auth@@YA_NXZ@QEBAPEBDXZ@4U?$ObfStr@$0FDLNGBLA@$06@detail@obf@@B 00000001400b3078     main.obj
 0002:0000a080       ?_o@?1???R<lambda_23>@?EP@??draw_login_ui@auth@@YA_NXZ@QEBAPEBDXZ@4U?$ObfStr@$0FDNALKCJ@$05@detail@obf@@B 00000001400b3080     main.obj
 0002:0000a088       ?_o@?1???R<lambda_24>@?FC@??draw_login_ui@auth@@YA_NXZ@QEBAPEBDXZ@4U?$ObfStr@$0FDODJEKC@$05@detail@obf@@B 00000001400b3088     main.obj
 0002:0000a090       ?_o@?1???R<lambda_25>@?FH@??draw_login_ui@auth@@YA_NXZ@QEBAPEBDXZ@4U?$ObfStr@$0FDPGONNL@$08@detail@obf@@B 00000001400b3090     main.obj
 0002:0000a09c       ??_C@_02DKCKIIND@?$CFs@    00000001400b309c     main.obj
 0002:0000a0a0       ??_C@_0BJ@JBIFPLG@Loading?5MidnightSoftware@ 00000001400b30a0     main.obj
 0002:0000a0c0       ??_C@_1JG@FPBHDFIN@?$AA?$FL?$AAa?$AAu?$AAt?$AAh?$AA?$FN?$AA?5?$AAM?$AAi?$AAd?$AAn?$AAi?$AAg?$AAh?$AAt@ 00000001400b30c0     main.obj
 0002:0000a160       ??_C@_1IE@KLGHIHA@?$AAF?$AAa?$AAi?$AAl?$AAe?$AAd?$AA?5?$AAt?$AAo?$AA?5?$AAl?$AAa?$AAu?$AAn?$AAc@ 00000001400b3160     main.obj
 0002:0000a1e4       ??_C@_04HDOCAJNK@?$CFs?$CFs@ 00000001400b31e4     main.obj
 0002:0000a1f0       ??_C@_07PNNHFFPN@Log?3?5?$CFs@ 00000001400b31f0     main.obj
 0002:0000a1f8       ??_C@_19BDAJEHDN@?$AAo?$AAp?$AAe?$AAn@ 00000001400b31f8     main.obj
 0002:0000a208       ??_C@_19DOGDICKI@?$AA?4?$AAe?$AAx?$AAe@ 00000001400b3208     main.obj
 0002:0000a2f0       ??_C@_08GBIGGCJG@wWinMain@ 00000001400b32f0     main.obj
 0002:0000a300       ??_C@_19ICNHOKIJ@?$AAW?$AAn?$AAd?$AA_@ 00000001400b3300     main.obj
 0002:0000a310       ??_C@_0L@LCIJOLID@1?490?45?5WIP@ 00000001400b3310     main.obj
 0002:0000a320       ??_C@_0BA@OLLEJGIK@CreateDeviceD3D@ 00000001400b3320     main.obj
 0002:0000a330       _GUID_6f15aaf2_d208_4e89_9ab4_489535d34f9c 00000001400b3330     main.obj
 0002:0000a340       ??_C@_03OJHLLCGB@inf@      00000001400b3340     main.obj
 0002:0000a348       ??_C@_08OFCDMILK@nan?$CIind?$CJ@ 00000001400b3348     main.obj
 0002:0000a354       ??_C@_03LHCJEHON@nan@      00000001400b3354     main.obj
 0002:0000a358       ??_C@_09IPFBKMDL@nan?$CIsnan?$CJ@ 00000001400b3358     main.obj
 0002:0000a368       ??_C@_0BN@CAABEHAA@Missing?5precision?5specifier?4@ 00000001400b3368     main.obj
 0002:0000a388       ??_C@_0BJ@FNNNKMGD@Invalid?5fill?5?$CItoo?5long?$CJ?4@ 00000001400b3388     main.obj
 0002:0000a3a8       ??_C@_0CM@EFKJINMJ@Format?5specifier?5requires?5numer@ 00000001400b33a8     main.obj
 0002:0000a3d8       ??_C@_0BA@FOIKENOD@vector?5too?5long@ 00000001400b33d8     main.obj
 0002:0000a3e8       ??_C@_0DB@FGJJGOLD@Can?5not?5switch?5from?5automatic?5t@ 00000001400b33e8     main.obj
 0002:0000a41c       ??_C@_05JHILFKJA@0e?$CL00@ 00000001400b341c     main.obj
 0002:0000a428       ??_C@_0CO@ILLNLEBH@Precision?5not?5allowed?5for?5this?5@ 00000001400b3428     main.obj
 0002:0000a458       ??_C@_0BI@CFPLBAOH@invalid?5string?5position@ 00000001400b3458     main.obj
 0002:0000a470       ?_Adjustment@?CB@???$__to_chars@D@std@@YA?AU?$pair@PEADW4errc@std@@@1@QEAD0U__floating_decimal_32@1@W4chars_format@1@II@Z@4QBEB 00000001400b3470     main.obj
 0002:0000a498       ?_Max_shifted_mantissa@?DC@???$__to_chars@D@std@@YA?AU?$pair@PEADW4errc@std@@@1@QEAD0U__floating_decimal_32@1@W4chars_format@1@II@Z@4QBIB 00000001400b3498     main.obj
 0002:0000a4d0       ?_Adjustment@?CB@???$__to_chars@D@std@@YA?AU?$pair@PEADW4errc@std@@@1@QEAD0U__floating_decimal_64@1@W4chars_format@1@N@Z@4QBEB 00000001400b34d0     main.obj
 0002:0000a610       ?_Max_shifted_mantissa@?DC@???$__to_chars@D@std@@YA?AU?$pair@PEADW4errc@std@@@1@QEAD0U__floating_decimal_64@1@W4chars_format@1@N@Z@4QB_KB 00000001400b3610     main.obj
 0002:0000a6d0       ??_7?$_Fmt_iterator_buffer@V?$back_insert_iterator@V?$basic_string@_WU?$char_traits@_W@std@@V?$allocator@_W@2@@std@@@std@@_WU_Fmt_buffer_traits@2@@std@@6B@ 00000001400b36d0     main.obj
 0002:0000a6d8       ??_C@_0BE@JHBJMIJI@Argument?5not?5found?4@ 00000001400b36d8     main.obj
 0002:0000a6f8       ??_7?$numpunct@_W@std@@6B@ 00000001400b36f8     main.obj
 0002:0000a738       ??_C@_19FKLFLPMF@?$AAt?$AAr?$AAu?$AAe@ 00000001400b3738     main.obj
 0002:0000a748       ??_C@_1M@HLGKFCJM@?$AAf?$AAa?$AAl?$AAs?$AAe@ 00000001400b3748     main.obj
 0002:0000a758       ??_C@_0BI@KLAHEKGE@String?5pointer?5is?5null?4@ 00000001400b3758     main.obj
 0002:0000a770       ??_C@_0CF@JHEJILDN@integral?5cannot?5be?5stored?5in?5wc@ 00000001400b3770     main.obj
 0002:0000a798       ??_C@_02HDBOMKFI@0b@       00000001400b3798     main.obj
 0002:0000a79c       ??_C@_02OGJKOOPK@0B@       00000001400b379c     main.obj
 0002:0000a7a0       ??_C@_02MDDDDAID@0x@       00000001400b37a0     main.obj
 0002:0000a7a4       ??_C@_02FGLHBECB@0X@       00000001400b37a4     main.obj
 0002:0000a7a8       ??_C@_01GBGANLPD@0@        00000001400b37a8     main.obj
 0002:0000a7b0       ??_C@_0BD@GHJPJCGO@Number?5is?5too?5big?4@ 00000001400b37b0     main.obj
 0002:0000a7c8       ??_C@_0BJ@FLMOJPKL@Width?5is?5not?5an?5integer?4@ 00000001400b37c8     main.obj
 0002:0000a7e8       ??_C@_0BA@INGMONDA@Negative?5width?4@ 00000001400b37e8     main.obj
 0002:0000a7f8       ??_C@_0BN@DNNEEKIC@Precision?5is?5not?5an?5integer?4@ 00000001400b37f8     main.obj
 0002:0000a818       ??_C@_0BE@DEGOCOHL@Negative?5precision?4@ 00000001400b3818     main.obj
 0002:0000a82c       __real@3e000000            00000001400b382c     main.obj
 0002:0000a830       __real@3e800000            00000001400b3830     main.obj
 0002:0000a834       __real@3ee66666            00000001400b3834     main.obj
 0002:0000a838       __real@3f000000            00000001400b3838     main.obj
 0002:0000a83c       __real@3f4ccccd            00000001400b383c     main.obj
 0002:0000a840       __real@3f7851ec            00000001400b3840     main.obj
 0002:0000a844       __real@3f7d70a4            00000001400b3844     main.obj
 0002:0000a848       __real@3f800000            00000001400b3848     main.obj
 0002:0000a850       __real@3ff0000000000000    00000001400b3850     main.obj
 0002:0000a858       __real@40000000            00000001400b3858     main.obj
 0002:0000a85c       __real@40400000            00000001400b385c     main.obj
 0002:0000a860       __real@41000000            00000001400b3860     main.obj
 0002:0000a864       __real@41200000            00000001400b3864     main.obj
 0002:0000a868       __real@41400000            00000001400b3868     main.obj
 0002:0000a86c       __real@41e00000            00000001400b386c     main.obj
 0002:0000a870       __real@41f00000            00000001400b3870     main.obj
 0002:0000a874       __real@42100000            00000001400b3874     main.obj
 0002:0000a878       __real@42bc0000            00000001400b3878     main.obj
 0002:0000a87c       __real@42f00000            00000001400b387c     main.obj
 0002:0000a880       __real@43160000            00000001400b3880     main.obj
 0002:0000a884       __real@438c0000            00000001400b3884     main.obj
 0002:0000a888       __real@43bb0000            00000001400b3888     main.obj
 0002:0000a88c       __real@43be0000            00000001400b388c     main.obj
 0002:0000a890       __real@43c80000            00000001400b3890     main.obj
 0002:0000a894       __real@bf800000            00000001400b3894     main.obj
 0002:0000a8a0       __xmm@00000000000000070000000000000000 00000001400b38a0     main.obj
 0002:0000a8b0       __xmm@000000000000000f0000000000000000 00000001400b38b0     main.obj
 0002:0000a8c0       __xmm@000000000000000f0000000000000001 00000001400b38c0     main.obj
 0002:0000a8d0       __xmm@000000000000000f0000000000000002 00000001400b38d0     main.obj
 0002:0000a8e0       __xmm@000000000000000f0000000000000004 00000001400b38e0     main.obj
 0002:0000a8f0       __xmm@000000000000000f0000000000000006 00000001400b38f0     main.obj
 0002:0000a900       __xmm@000000000000000f0000000000000007 00000001400b3900     main.obj
 0002:0000a910       __xmm@000000000000000f0000000000000009 00000001400b3910     main.obj
 0002:0000a920       __xmm@000000000000000f000000000000000a 00000001400b3920     main.obj
 0002:0000a930       __xmm@000000000000000f000000000000000d 00000001400b3930     main.obj
 0002:0000a940       __xmm@000000000000001f000000000000001a 00000001400b3940     main.obj
 0002:0000a950       __xmm@000000000000002f0000000000000021 00000001400b3950     main.obj
 0002:0000a960       __xmm@000000000000002f0000000000000029 00000001400b3960     main.obj
 0002:0000a970       __xmm@000000000000004f0000000000000040 00000001400b3970     main.obj
 0002:0000a980       __xmm@3f8000003dcccccd3da3d70a3da3d70a 00000001400b3980     main.obj
 0002:0000a990       __xmm@3f8000003dcccccd3dcccccd3f0ccccd 00000001400b3990     main.obj
 0002:0000a9a0       __xmm@3f8000003e19999a3e19999a3f4ccccd 00000001400b39a0     main.obj
 0002:0000a9b0       __xmm@3f8000003e3851ec3ee147ae3e3851ec 00000001400b39b0     main.obj
 0002:0000a9c0       __xmm@3f8000003e4ccccd3e4ccccd3f800000 00000001400b39c0     main.obj
 0002:0000a9d0       __xmm@3f8000003e4ccccd3f4000003e4ccccd 00000001400b39d0     main.obj
 0002:0000a9e0       __xmm@3f8000003e4ccccd3f4ccccd3f666666 00000001400b39e0     main.obj
 0002:0000a9f0       __xmm@3f8000003e4ccccd3f7333333e4ccccd 00000001400b39f0     main.obj
 0002:0000aa00       __xmm@3f8000003e75c28f3f19999a3e75c28f 00000001400b3a00     main.obj
 0002:0000aa10       __xmm@3f8000003e99999a3e99999a3f800000 00000001400b3a10     main.obj
 0002:0000aa20       __xmm@3f8000003e99999a3f4000003e99999a 00000001400b3a20     main.obj
 0002:0000aa30       __xmm@3f8000003f19999a3f19999a3f800000 00000001400b3a30     main.obj
 0002:0000aa40       __xmm@3f8000003f19999a3f6666663f19999a 00000001400b3a40     main.obj
 0002:0000aa50       __xmm@3f8000003f7333333e4ccccd3f0ccccd 00000001400b3a50     main.obj
 0002:0000aa60       __xmm@3f8000003f8000003f19999a3e4ccccd 00000001400b3a60     main.obj
 0002:0000aa70       __xmm@7fffffff7fffffff7fffffff7fffffff 00000001400b3a70     main.obj
 0002:0000aa80       __xmm@7fffffffffffffff7fffffffffffffff 00000001400b3a80     main.obj
 0002:0000b620       ??_C@_0BO@JMLMNBMC@Dear?5ImGui?51?490?45?5WIP?5?$CI19044?$CJ@ 00000001400b4620     imgui.obj
 0002:0000b640       ??_C@_0BN@CNPDCOK@Size?5column?5to?5fit?$CD?$CD?$CDSizeOne@ 00000001400b4640     imgui.obj
 0002:0000b660       ??_C@_0CC@MJIBPDCL@Size?5all?5columns?5to?5fit?$CD?$CD?$CDSizeA@ 00000001400b4660     imgui.obj
 0002:0000b688       ??_C@_0CG@CFICKNDA@Size?5all?5columns?5to?5default?$CD?$CD?$CDS@ 00000001400b4688     imgui.obj
 0002:0000b6b0       ??_C@_0BJ@BBKAOKNK@Reset?5order?$CD?$CD?$CDResetOrder@ 00000001400b46b0     imgui.obj
 0002:0000b6d0       ??_C@_0BA@KDPNEDEH@?$CIMain?5menu?5bar?$CJ@ 00000001400b46d0     imgui.obj
 0002:0000b6e0       ??_C@_07NPLNEKJH@?$CIPopup?$CJ@ 00000001400b46e0     imgui.obj
 0002:0000b6e8       ??_C@_0L@JOJOIPFK@?$CIUntitled?$CJ@ 00000001400b46e8     imgui.obj
 0002:0000b6f8       ??_C@_0P@HEMCFMMD@?$CKMissing?5Text?$CK@ 00000001400b46f8     imgui.obj
 0002:0000b708       ??_C@_0BB@GCADKGJO@map?1set?5too?5long@ 00000001400b4708     imgui.obj
 0002:0000b720       ??_C@_09BJIHMJFE@imgui?4ini@ 00000001400b4720     imgui.obj
 0002:0000b730       ??_C@_0O@HCOAADPE@imgui_log?4txt@ 00000001400b4730     imgui.obj
 0002:0000b740       ??_C@_06OJHGLDPL@?$CInull?$CJ@ 00000001400b4740     imgui.obj
 0002:0000b7c4       ??_C@_03IEAKBACE@Tab@      00000001400b47c4     imgui.obj
 0002:0000b7c8       ??_C@_07NBCGADJA@Unknown@  00000001400b47c8     imgui.obj
 0002:0000b7d0       ??_C@_06BKKJGDHO@Window@   00000001400b47d0     imgui.obj
 0002:0000b7d8       ??_C@_05EJCOBEBF@?$CDMOVE@ 00000001400b47d8     imgui.obj
 0002:0000b7e0       ??_C@_0CD@PNHNJJBD@SetActiveID?$CI?$CJ?5cancel?5MovingWind@ 00000001400b47e0     imgui.obj
 0002:0000b810       ??_C@_0EE@BGNDHHFI@SetActiveID?$CI?$CJ?5old?30x?$CF08X?5?$CIwindo@ 00000001400b4810     imgui.obj
 0002:0000b858       ??_C@_0N@MFFOHPLI@?$CD?$CDBackground@ 00000001400b4858     imgui.obj
 0002:0000b868       ??_C@_0N@MFHPHIIJ@?$CD?$CDForeground@ 00000001400b4868     imgui.obj
 0002:0000b880       ??_C@_0EE@CAHEIKBO@NewFrame?$CI?$CJ?3?5ClearActiveID?$CI?$CJ?5bec@ 00000001400b4880     imgui.obj
 0002:0000b8d0       ??_C@_0ED@GDNFFPHD@?$CIDebug?5Log?3?5Auto?9disabled?5some?5@ 00000001400b48d0     imgui.obj
 0002:0000b918       ??_C@_0P@IMLDNMEK@Debug?$CD?$CDDefault@ 00000001400b4918     imgui.obj
 0002:0000b930       ??_C@_0EP@CMIOMJGE@?$FLio?$FN?5Calling?5io?4SetPlatformImeD@ 00000001400b4930     imgui.obj
 0002:0000b980       ??_C@_03KHICJKCI@?4?4?4@   00000001400b4980     imgui.obj
 0002:0000b988       ??_C@_0L@BDFLDJGI@?$CFs?1?$CFs_?$CF08X@ 00000001400b4988     imgui.obj
 0002:0000b998       ??_C@_07KBCBAKFA@?$CFs?1?$CF08X@ 00000001400b4998     imgui.obj
 0002:0000b9a0       ??_C@_07DFINAGAC@?$CD?$CDChild@ 00000001400b49a0     imgui.obj
 0002:0000b9a8       ??_C@_07HDHBJEOI@?$CDRESIZE@ 00000001400b49a8     imgui.obj
 0002:0000b9b0       ??_C@_09BJOGEADB@?$CDCOLLAPSE@ 00000001400b49b0     imgui.obj
 0002:0000b9bc       ??_C@_06KIIKKNMI@?$CDCLOSE@ 00000001400b49bc     imgui.obj
 0002:0000b9c4       ??_C@_06CBHGEMFM@?$DMNULL?$DO@ 00000001400b49c4     imgui.obj
 0002:0000b9d0       ??_C@_0EB@KDILIEDM@?$FLfocus?$FN?5FocusWindow?$CI?$CC?$CFs?$CC?0?5Unles@ 00000001400b49d0     imgui.obj
 0002:0000ba18       ??_C@_09CFHBIIBF@LeftArrow@ 00000001400b4a18     imgui.obj
 0002:0000ba28       ??_C@_0L@BPKGMHEK@RightArrow@ 00000001400b4a28     imgui.obj
 0002:0000ba38       ??_C@_07MOKGGMEC@UpArrow@  00000001400b4a38     imgui.obj
 0002:0000ba40       ??_C@_09NADHLAEK@DownArrow@ 00000001400b4a40     imgui.obj
 0002:0000ba4c       ??_C@_06OAEMCMAI@PageUp@   00000001400b4a4c     imgui.obj
 0002:0000ba58       ??_C@_08FDLMHKA@PageDown@  00000001400b4a58     imgui.obj
 0002:0000ba64       ??_C@_04GKJODLKO@Home@     00000001400b4a64     imgui.obj
 0002:0000ba6c       ??_C@_03DBKJMAGF@End@      00000001400b4a6c     imgui.obj
 0002:0000ba70       ??_C@_06CPFCODOD@Insert@   00000001400b4a70     imgui.obj
 0002:0000ba78       ??_C@_06JBKGCNBB@Delete@   00000001400b4a78     imgui.obj
 0002:0000ba80       ??_C@_09LPBCIPOJ@Backspace@ 00000001400b4a80     imgui.obj
 0002:0000ba8c       ??_C@_05OMHELODH@Space@    00000001400b4a8c     imgui.obj
 0002:0000ba94       ??_C@_05IAOCCJNL@Enter@    00000001400b4a94     imgui.obj
 0002:0000ba9c       ??_C@_06OIGFGPHJ@Escape@   00000001400b4a9c     imgui.obj
 0002:0000baa8       ??_C@_08KELNAOFC@LeftCtrl@ 00000001400b4aa8     imgui.obj
 0002:0000bab8       ??_C@_09OCNLBMHE@LeftShift@ 00000001400b4ab8     imgui.obj
 0002:0000bac8       ??_C@_07MGKIIPNA@LeftAlt@  00000001400b4ac8     imgui.obj
 0002:0000bad0       ??_C@_09DKGEOIN@LeftSuper@ 00000001400b4ad0     imgui.obj
 0002:0000bae0       ??_C@_09MGKDJPDD@RightCtrl@ 00000001400b4ae0     imgui.obj
 0002:0000baf0       ??_C@_0L@NIAMFDCL@RightShift@ 00000001400b4af0     imgui.obj
 0002:0000bb00       ??_C@_08FCEDBIM@RightAlt@  00000001400b4b00     imgui.obj
 0002:0000bb10       ??_C@_0L@DJHBABNC@RightSuper@ 00000001400b4b10     imgui.obj
 0002:0000bb1c       ??_C@_04IFEHPILC@Menu@     00000001400b4b1c     imgui.obj
 0002:0000bb24       ??_C@_01HIHLOKLC@1@        00000001400b4b24     imgui.obj
 0002:0000bb28       ??_C@_01FDFGLJHB@2@        00000001400b4b28     imgui.obj
 0002:0000bb2c       ??_C@_01EKENIIDA@3@        00000001400b4b2c     imgui.obj
 0002:0000bb30       ??_C@_01FAMBOPH@4@         00000001400b4b30     imgui.obj
 0002:0000bb34       ??_C@_01BMBHCPLG@5@        00000001400b4b34     imgui.obj
 0002:0000bb38       ??_C@_01DHDKHMHF@6@        00000001400b4b38     imgui.obj
 0002:0000bb3c       ??_C@_01COCBENDE@7@        00000001400b4b3c     imgui.obj
 0002:0000bb40       ??_C@_01KJLJFBPL@8@        00000001400b4b40     imgui.obj
 0002:0000bb44       ??_C@_01LAKCGALK@9@        00000001400b4b44     imgui.obj
 0002:0000bb48       ??_C@_01FHEEJDEE@A@        00000001400b4b48     imgui.obj
 0002:0000bb4c       ??_C@_01HMGJMAIH@B@        00000001400b4b4c     imgui.obj
 0002:0000bb50       ??_C@_01GFHCPBMG@C@        00000001400b4b50     imgui.obj
 0002:0000bb54       ??_C@_01CKDDGHAB@D@        00000001400b4b54     imgui.obj
 0002:0000bb58       ??_C@_01DDCIFGEA@E@        00000001400b4b58     imgui.obj
 0002:0000bb5c       ??_C@_01BIAFAFID@F@        00000001400b4b5c     imgui.obj
 0002:0000bb60       ??_C@_01BBODEMC@G@         00000001400b4b60     imgui.obj
 0002:0000bb64       ??_C@_01IGIGCIAN@H@        00000001400b4b64     imgui.obj
 0002:0000bb68       ??_C@_01JPJNBJEM@I@        00000001400b4b68     imgui.obj
 0002:0000bb6c       ??_C@_01LELAEKIP@J@        00000001400b4b6c     imgui.obj
 0002:0000bb70       ??_C@_01KNKLHLMO@K@        00000001400b4b70     imgui.obj
 0002:0000bb74       ??_C@_01OCOKONAJ@L@        00000001400b4b74     imgui.obj
 0002:0000bb78       ??_C@_01PLPBNMEI@M@        00000001400b4b78     imgui.obj
 0002:0000bb7c       ??_C@_01NANMIPIL@N@        00000001400b4b7c     imgui.obj
 0002:0000bb80       ??_C@_01MJMHLOMK@O@        00000001400b4b80     imgui.obj
 0002:0000bb84       ??_C@_01EJNLAFE@P@         00000001400b4b84     imgui.obj
 0002:0000bb88       ??_C@_01BNIGIBBF@Q@        00000001400b4b88     imgui.obj
 0002:0000bb8c       ??_C@_01DGKLNCNG@R@        00000001400b4b8c     imgui.obj
 0002:0000bb90       ??_C@_01CPLAODJH@S@        00000001400b4b90     imgui.obj
 0002:0000bb94       ??_C@_01GAPBHFFA@T@        00000001400b4b94     imgui.obj
 0002:0000bb98       ??_C@_01HJOKEEBB@U@        00000001400b4b98     imgui.obj
 0002:0000bb9c       ??_C@_01FCMHBHNC@V@        00000001400b4b9c     imgui.obj
 0002:0000bba0       ??_C@_01ELNMCGJD@W@        00000001400b4ba0     imgui.obj
 0002:0000bba4       ??_C@_01MMEEDKFM@X@        00000001400b4ba4     imgui.obj
 0002:0000bba8       ??_C@_01NFFPALBN@Y@        00000001400b4ba8     imgui.obj
 0002:0000bbac       ??_C@_01POHCFINO@Z@        00000001400b4bac     imgui.obj
 0002:0000bbb0       ??_C@_02LCPENACN@F1@       00000001400b4bb0     imgui.obj
 0002:0000bbb4       ??_C@_02JJNJIDOO@F2@       00000001400b4bb4     imgui.obj
 0002:0000bbb8       ??_C@_02IAMCLCKP@F3@       00000001400b4bb8     imgui.obj
 0002:0000bbbc       ??_C@_02MPIDCEGI@F4@       00000001400b4bbc     imgui.obj
 0002:0000bbc0       ??_C@_02NGJIBFCJ@F5@       00000001400b4bc0     imgui.obj
 0002:0000bbc4       ??_C@_02PNLFEGOK@F6@       00000001400b4bc4     imgui.obj
 0002:0000bbc8       ??_C@_02OEKOHHKL@F7@       00000001400b4bc8     imgui.obj
 0002:0000bbcc       ??_C@_02GDDGGLGE@F8@       00000001400b4bcc     imgui.obj
 0002:0000bbd0       ??_C@_02HKCNFKCF@F9@       00000001400b4bd0     imgui.obj
 0002:0000bbd4       ??_C@_03JKCLJOFG@F10@      00000001400b4bd4     imgui.obj
 0002:0000bbd8       ??_C@_03IDDAKPBH@F11@      00000001400b4bd8     imgui.obj
 0002:0000bbdc       ??_C@_03KIBNPMNE@F12@      00000001400b4bdc     imgui.obj
 0002:0000bbe0       ??_C@_03LBAGMNJF@F13@      00000001400b4be0     imgui.obj
 0002:0000bbe4       ??_C@_03POEHFLFC@F14@      00000001400b4be4     imgui.obj
 0002:0000bbe8       ??_C@_03OHFMGKBD@F15@      00000001400b4be8     imgui.obj
 0002:0000bbec       ??_C@_03MMHBDJNA@F16@      00000001400b4bec     imgui.obj
 0002:0000bbf0       ??_C@_03NFGKAIJB@F17@      00000001400b4bf0     imgui.obj
 0002:0000bbf4       ??_C@_03FCPCBEFO@F18@      00000001400b4bf4     imgui.obj
 0002:0000bbf8       ??_C@_03ELOJCFBP@F19@      00000001400b4bf8     imgui.obj
 0002:0000bbfc       ??_C@_03JIGNCAAP@F20@      00000001400b4bfc     imgui.obj
 0002:0000bc00       ??_C@_03IBHGBBEO@F21@      00000001400b4c00     imgui.obj
 0002:0000bc04       ??_C@_03KKFLECIN@F22@      00000001400b4c04     imgui.obj
 0002:0000bc08       ??_C@_03LDEAHDMM@F23@      00000001400b4c08     imgui.obj
 0002:0000bc0c       ??_C@_03PMABOFAL@F24@      00000001400b4c0c     imgui.obj
 0002:0000bc10       ??_C@_0L@KECMMICK@Apostrophe@ 00000001400b4c10     imgui.obj
 0002:0000bc1c       ??_C@_05CJDGOLEJ@Comma@    00000001400b4c1c     imgui.obj
 0002:0000bc24       ??_C@_05OEAIFCGM@Minus@    00000001400b4c24     imgui.obj
 0002:0000bc2c       ??_C@_06JOFJHOEH@Period@   00000001400b4c2c     imgui.obj
 0002:0000bc34       ??_C@_05OAOMBJIJ@Slash@    00000001400b4c34     imgui.obj
 0002:0000bc40       ??_C@_09FBGFMNJC@Semicolon@ 00000001400b4c40     imgui.obj
 0002:0000bc4c       ??_C@_05JKGNJOO@Equal@     00000001400b4c4c     imgui.obj
 0002:0000bc58       ??_C@_0M@FGLAPLO@LeftBracket@ 00000001400b4c58     imgui.obj
 0002:0000bc68       ??_C@_09LDIKCIFH@Backslash@ 00000001400b4c68     imgui.obj
 0002:0000bc78       ??_C@_0N@NOCLCIPD@RightBracket@ 00000001400b4c78     imgui.obj
 0002:0000bc88       ??_C@_0M@PEGEKEFO@GraveAccent@ 00000001400b4c88     imgui.obj
 0002:0000bc98       ??_C@_08LBKIEOPK@CapsLock@ 00000001400b4c98     imgui.obj
 0002:0000bca8       ??_C@_0L@JJJEGPLJ@ScrollLock@ 00000001400b4ca8     imgui.obj
 0002:0000bcb8       ??_C@_07JOCOIGEJ@NumLock@  00000001400b4cb8     imgui.obj
 0002:0000bcc0       ??_C@_0M@CJIDBHOK@PrintScreen@ 00000001400b4cc0     imgui.obj
 0002:0000bccc       ??_C@_05PEDNBBBD@Pause@    00000001400b4ccc     imgui.obj
 0002:0000bcd8       ??_C@_07PBFJOEMA@Keypad0@  00000001400b4cd8     imgui.obj
 0002:0000bce0       ??_C@_07OIECNFIB@Keypad1@  00000001400b4ce0     imgui.obj
 0002:0000bce8       ??_C@_07MDGPIGEC@Keypad2@  00000001400b4ce8     imgui.obj
 0002:0000bcf0       ??_C@_07NKHELHAD@Keypad3@  00000001400b4cf0     imgui.obj
 0002:0000bcf8       ??_C@_07JFDFCBME@Keypad4@  00000001400b4cf8     imgui.obj
 0002:0000bd00       ??_C@_07IMCOBAIF@Keypad5@  00000001400b4d00     imgui.obj
 0002:0000bd08       ??_C@_07KHADEDEG@Keypad6@  00000001400b4d08     imgui.obj
 0002:0000bd10       ??_C@_07LOBIHCAH@Keypad7@  00000001400b4d10     imgui.obj
 0002:0000bd18       ??_C@_07DJIAGOMI@Keypad8@  00000001400b4d18     imgui.obj
 0002:0000bd20       ??_C@_07CAJLFPIJ@Keypad9@  00000001400b4d20     imgui.obj
 0002:0000bd28       ??_C@_0O@GMHIBIOG@KeypadDecimal@ 00000001400b4d28     imgui.obj
 0002:0000bd38       ??_C@_0N@IOPGAACF@KeypadDivide@ 00000001400b4d38     imgui.obj
 0002:0000bd48       ??_C@_0P@DDMFINAM@KeypadMultiply@ 00000001400b4d48     imgui.obj
 0002:0000bd58       ??_C@_0P@EGJPMAKL@KeypadSubtract@ 00000001400b4d58     imgui.obj
 0002:0000bd68       ??_C@_09PBFBAKNA@KeypadAdd@ 00000001400b4d68     imgui.obj
 0002:0000bd78       ??_C@_0M@LDMAMCMH@KeypadEnter@ 00000001400b4d78     imgui.obj
 0002:0000bd88       ??_C@_0M@DKIEDCPC@KeypadEqual@ 00000001400b4d88     imgui.obj
 0002:0000bd98       ??_C@_07PFJBGDFF@AppBack@  00000001400b4d98     imgui.obj
 0002:0000bda0       ??_C@_0L@MPDOCLPJ@AppForward@ 00000001400b4da0     imgui.obj
 0002:0000bdb0       ??_C@_0N@KFODLNBI@GamepadStart@ 00000001400b4db0     imgui.obj
 0002:0000bdc0       ??_C@_0M@BMKDKCOL@GamepadBack@ 00000001400b4dc0     imgui.obj
 0002:0000bdd0       ??_C@_0BA@LLLNHFDH@GamepadFaceLeft@ 00000001400b4dd0     imgui.obj
 0002:0000bde0       ??_C@_0BB@KCPJBHBD@GamepadFaceRight@ 00000001400b4de0     imgui.obj
 0002:0000bdf8       ??_C@_0O@NEIKDCMN@GamepadFaceUp@ 00000001400b4df8     imgui.obj
 0002:0000be08       ??_C@_0BA@EJLJONAO@GamepadFaceDown@ 00000001400b4e08     imgui.obj
 0002:0000be18       ??_C@_0BA@HJJJKOII@GamepadDpadLeft@ 00000001400b4e18     imgui.obj
 0002:0000be28       ??_C@_0BB@PJOFJNNF@GamepadDpadRight@ 00000001400b4e28     imgui.obj
 0002:0000be40       ??_C@_0O@EJODMGNP@GamepadDpadUp@ 00000001400b4e40     imgui.obj
 0002:0000be50       ??_C@_0BA@ILJNDGLB@GamepadDpadDown@ 00000001400b4e50     imgui.obj
 0002:0000be60       ??_C@_09BNICIIOB@GamepadL1@ 00000001400b4e60     imgui.obj
 0002:0000be70       ??_C@_09LDKAGJL@GamepadR1@ 00000001400b4e70     imgui.obj
 0002:0000be80       ??_C@_09DGKPNLCC@GamepadL2@ 00000001400b4e80     imgui.obj
 0002:0000be90       ??_C@_09CABHFFFI@GamepadR2@ 00000001400b4e90     imgui.obj
 0002:0000bea0       ??_C@_09CPLEOKGD@GamepadL3@ 00000001400b4ea0     imgui.obj
 0002:0000beb0       ??_C@_09DJAMGEBJ@GamepadR3@ 00000001400b4eb0     imgui.obj
 0002:0000bec0       ??_C@_0BC@MGONIKHG@GamepadLStickLeft@ 00000001400b4ec0     imgui.obj
 0002:0000bed8       ??_C@_0BD@KDFPDGOK@GamepadLStickRight@ 00000001400b4ed8     imgui.obj
 0002:0000bef0       ??_C@_0BA@NNMPJILJ@GamepadLStickUp@ 00000001400b4ef0     imgui.obj
 0002:0000bf00       ??_C@_0BC@DEOJBCEP@GamepadLStickDown@ 00000001400b4f00     imgui.obj
 0002:0000bf18       ??_C@_0BC@DKGNGFLL@GamepadRStickLeft@ 00000001400b4f18     imgui.obj
 0002:0000bf30       ??_C@_0BD@EGHGAIAI@GamepadRStickRight@ 00000001400b4f30     imgui.obj
 0002:0000bf48       ??_C@_0BA@LJMNABFK@GamepadRStickUp@ 00000001400b4f48     imgui.obj
 0002:0000bf58       ??_C@_0BC@MIGJPNIC@GamepadRStickDown@ 00000001400b4f58     imgui.obj
 0002:0000bf70       ??_C@_09DBACHFO@MouseLeft@ 00000001400b4f70     imgui.obj
 0002:0000bf80       ??_C@_0L@JGCPGDLN@MouseRight@ 00000001400b4f80     imgui.obj
 0002:0000bf90       ??_C@_0M@CDBJKEDH@MouseMiddle@ 00000001400b4f90     imgui.obj
 0002:0000bfa0       ??_C@_07BICMLCEA@MouseX1@  00000001400b4fa0     imgui.obj
 0002:0000bfa8       ??_C@_07DDABOBID@MouseX2@  00000001400b4fa8     imgui.obj
 0002:0000bfb0       ??_C@_0M@MENPLCHJ@MouseWheelX@ 00000001400b4fb0     imgui.obj
 0002:0000bfc0       ??_C@_0M@NNMEIDDI@MouseWheelY@ 00000001400b4fc0     imgui.obj
 0002:0000bfd0       ??_C@_07KDONALCN@ModCtrl@  00000001400b4fd0     imgui.obj
 0002:0000bfd8       ??_C@_08CCGGCANM@ModShift@ 00000001400b4fd8     imgui.obj
 0002:0000bfe4       ??_C@_06PLGJOJNE@ModAlt@   00000001400b4fe4     imgui.obj
 0002:0000bff0       ??_C@_08MDBLHCCF@ModSuper@ 00000001400b4ff0     imgui.obj
 0002:0000bffc       ??_C@_03HPADHAHE@N?1A@     00000001400b4ffc     imgui.obj
 0002:0000c000       ??_C@_04OHJIHAFH@None@     00000001400b5000     imgui.obj
 0002:0000c008       ??_C@_04NGGMJLDA@Cmd?$CL@  00000001400b5008     imgui.obj
 0002:0000c010       ??_C@_06PPGOOJHA@Super?$CL@ 00000001400b5010     imgui.obj
 0002:0000c018       ??_C@_04IDGAMEF@Alt?$CL@   00000001400b5018     imgui.obj
 0002:0000c020       ??_C@_06DLOONOJK@Shift?$CL@ 00000001400b5020     imgui.obj
 0002:0000c028       ??_C@_05DNCIMHKL@Ctrl?$CL@ 00000001400b5028     imgui.obj
 0002:0000c030       ??_C@_0L@MOHIGKOO@?$CFs?$CFs?$CFs?$CFs?$CFs@ 00000001400b5030     imgui.obj
 0002:0000c040       ??_C@_0DP@IFIPNOOG@SetShortcutRouting?$CI?$CFs?0?5owner_id@ 00000001400b5040     imgui.obj
 0002:0000c080       ??_C@_0FJ@LLHNOCAH@SetShortcutRouting?$CI?$CFs?0?5owner_id@ 00000001400b5080     imgui.obj
 0002:0000c0e0       ??_C@_0EB@CKACFPBK@SetShortcutRouting?$CI?$CFs?0?5owner_id@ 00000001400b50e0     imgui.obj
 0002:0000c128       ??_C@_0BM@NCIGIPBK@?9?9?$DO?5granting?5current?5route?6@ 00000001400b5128     imgui.obj
 0002:0000c144       ??_C@_04HIBGFPH@NULL@      00000001400b5144     imgui.obj
 0002:0000c150       ??_C@_0CA@IDIONDFE@?$FLio?$FN?5LockWheelingWindow?$CI?$CJ?5?$CC?$CFs?$CC?6@ 00000001400b5150     imgui.obj
 0002:0000c170       ??_C@_05PEEFLODH@Mouse@    00000001400b5170     imgui.obj
 0002:0000c178       ??_C@_0M@KICOAHAM@TouchScreen@ 00000001400b5178     imgui.obj
 0002:0000c184       ??_C@_03KANEGAKD@Pen@      00000001400b5184     imgui.obj
 0002:0000c188       ??_C@_0CI@NLCAGBEH@?$FLio?$FN?5?$CFs?3?5MousePos?5?$CI?9FLT_MAX?0?5?9F@ 00000001400b5188     imgui.obj
 0002:0000c1b0       ??_C@_0CF@BKHCFEMJ@?$FLio?$FN?5?$CFs?3?5MousePos?5?$CI?$CF?41f?0?5?$CF?41f?$CJ?5@ 00000001400b51b0     imgui.obj
 0002:0000c1d8       ??_C@_04FNCLCJMC@Down@     00000001400b51d8     imgui.obj
 0002:0000c1e0       ??_C@_02EFPGLDEA@Up@       00000001400b51e0     imgui.obj
 0002:0000c1e8       ??_C@_0CB@MABBEIGA@?$FLio?$FN?5?$CFs?3?5MouseButton?5?$CFd?5?$CFs?5?$CI?$CFs?$CJ@ 00000001400b51e8     imgui.obj
 0002:0000c210       ??_C@_0CH@OGJIDLOF@?$FLio?$FN?5?$CFs?3?5MouseWheel?5?$CI?$CF?43f?0?5?$CF?43f@ 00000001400b5210     imgui.obj
 0002:0000c238       ??_C@_0BG@BAABPACK@?$FLio?$FN?5?$CFs?3?5Key?5?$CC?$CFs?$CC?5?$CFs?6@ 00000001400b5238     imgui.obj
 0002:0000c250       ??_C@_0BM@HGMGDMMC@?$FLio?$FN?5?$CFs?3?5Text?3?5?$CFc?5?$CIU?$CL?$CF08X?$CJ?6@ 00000001400b5250     imgui.obj
 0002:0000c270       ??_C@_0BI@JDDIGJON@?$FLio?$FN?5?$CFs?3?5AppFocused?5?$CFd?6@ 00000001400b5270     imgui.obj
 0002:0000c288       ??_C@_09BIONLCBB@Processed@ 00000001400b5288     imgui.obj
 0002:0000c298       ??_C@_09PGGNMDFB@Remaining@ 00000001400b5298     imgui.obj
 0002:0000c2a8       ??_C@_0P@DHLMFJKK@?$CD?$CDTooltip_?$CF02d@ 00000001400b52a8     imgui.obj
 0002:0000c2b8       ??_C@_0CF@KJFMKFLJ@?$FLpopup?$FN?5ClosePopupsOverWindow?$CI?$CC@ 00000001400b52b8     imgui.obj
 0002:0000c2e0       ??_C@_0DB@MJNKEABH@?$FLpopup?$FN?5ClosePopupToLevel?$CI?$CFd?$CJ?0?5@ 00000001400b52e0     imgui.obj
 0002:0000c318       ??_C@_0CE@FCCNCIKM@?$FLpopup?$FN?5CloseCurrentPopup?5?$CFd?5?9?$DO@ 00000001400b5318     imgui.obj
 0002:0000c340       ??_C@_0BM@CFDBCOKD@?$FLfocus?$FN?5SetNavWindow?$CI?$CC?$CFs?$CC?$CJ?6@ 00000001400b5340     imgui.obj
 0002:0000c360       ??_C@_0DK@NLPDJHKG@?$FLfocus?$FN?5NavRestoreLayer?3?5from?5?$CC@ 00000001400b5360     imgui.obj
 0002:0000c3a0       ??_C@_0FE@LKAOFKOF@?$FLnav?$FN?5NavInitRequest?3?5from?5NavI@ 00000001400b53a0     imgui.obj
 0002:0000c400       ??_C@_0EJ@EKHMMIGJ@?$FLnav?$FN?5NavInitRequest?3?5ApplyResu@ 00000001400b5400     imgui.obj
 0002:0000c450       ??_C@_0CA@BNPHEIIJ@?$FLnav?$FN?5NavMoveRequestForward?5?$CFd?6@ 00000001400b5450     imgui.obj
 0002:0000c470       ??_C@_0DI@DAIPCILO@?$FLnav?$FN?5NavInitRequest?3?5from?5move@ 00000001400b5470     imgui.obj
 0002:0000c4a8       ??_C@_0DJ@MAGJKKCG@?$FLnav?$FN?5NavMoveRequest?3?5clamp?5Nav@ 00000001400b54a8     imgui.obj
 0002:0000c4e8       ??_C@_0DB@EPMLAAL@?$FLnav?$FN?5NavMoveSubmitted?5but?5not?5@ 00000001400b54e8     imgui.obj
 0002:0000c520       ??_C@_0CM@KMMAIAOD@?$FLfocus?$FN?5NavMoveRequest?3?5SetNavW@ 00000001400b5520     imgui.obj
 0002:0000c550       ??_C@_0ED@JMNIALPC@?$FLnav?$FN?5NavMoveRequest?3?5result?5Na@ 00000001400b5550     imgui.obj
 0002:0000c598       ??_C@_0CA@JJLLCANH@?$FLnav?$FN?5NavUpdateCancelRequest?$CI?$CJ?6@ 00000001400b5598     imgui.obj
 0002:0000c5b8       ??_C@_0BG@NEECCIPG@?$CD?$CD?$CDNavUpdateWindowing@ 00000001400b55b8     imgui.obj
 0002:0000c5d0       ??_C@_0O@BKOLOJFE@?$CD?$CDMainMenuBar@ 00000001400b55d0     imgui.obj
 0002:0000c5e0       ??_C@_0BE@EBHFKNCA@?$CD?$CD?$CDNavWindowingList@ 00000001400b55e0     imgui.obj
 0002:0000c5f4       ??_C@_02PCIJFNDE@?$AN?6@   00000001400b55f4     imgui.obj
 0002:0000c5f8       ??_C@_07LFDEMEGD@?$CF?$CKs?$CF?4?$CKs@ 00000001400b55f8     imgui.obj
 0002:0000c600       ??_C@_02JDPG@rb@           00000001400b5600     imgui.obj
 0002:0000c604       ??_C@_02BKFDOEMK@wt@       00000001400b5604     imgui.obj
 0002:0000c608       ??_C@_03OIJOKPOL@?$CD?$CD?$CD@ 00000001400b5608     imgui.obj
 0002:0000c610       ??_C@_09GOMOMIIP@Pos?$DN?$CFi?0?$CFi@ 00000001400b5610     imgui.obj
 0002:0000c620       ??_C@_0L@MPPKDMFA@Size?$DN?$CFi?0?$CFi@ 00000001400b5620     imgui.obj
 0002:0000c630       ??_C@_0N@IAKNMBB@Collapsed?$DN?$CFd@ 00000001400b5630     imgui.obj
 0002:0000c640       ??_C@_0L@PAOOMOGA@IsChild?$DN?$CFd@ 00000001400b5640     imgui.obj
 0002:0000c650       ??_C@_09HNFDDBIF@?$FL?$CFs?$FN?$FL?$CFs?$FN?6@ 00000001400b5650     imgui.obj
 0002:0000c660       ??_C@_0L@BALPIDOF@IsChild?$DN1?6@ 00000001400b5660     imgui.obj
 0002:0000c670       ??_C@_0M@CFANMDMP@Size?$DN?$CFd?0?$CFd?6@ 00000001400b5670     imgui.obj
 0002:0000c680       ??_C@_0L@DDMADIHO@Pos?$DN?$CFd?0?$CFd?6@ 00000001400b5680     imgui.obj
 0002:0000c690       ??_C@_0N@OIFLJBJE@Collapsed?$DN1?6@ 00000001400b5690     imgui.obj
 0002:0000c6a0       ??_C@_01MNNFJEPP@?$DM@     00000001400b56a0     imgui.obj
 0002:0000c6a4       ??_C@_01PPODPGHN@?$DO@     00000001400b56a4     imgui.obj
 0002:0000c6a8       ??_C@_07CHALBAHD@?$FL?$CF05d?$FN?5@ 00000001400b56a8     imgui.obj
 0002:0000c6b0       ??_C@_0BC@JHPKFIGH@HoveredId?3?50x?$CF08X@ 00000001400b56b0     imgui.obj
 0002:0000c6c8       ??_C@_0BM@IIPBLKLJ@Press?5ESC?5to?5abort?5picking?4@ 00000001400b56c8     imgui.obj
 0002:0000c6e4       ??_C@_04KPCPLBPL@Left@     00000001400b56e4     imgui.obj
 0002:0000c6ec       ??_C@_05DADPALEM@Right@    00000001400b56ec     imgui.obj
 0002:0000c6f4       ??_C@_06OJAFHGNF@Middle@   00000001400b56f4     imgui.obj
 0002:0000c700       ??_C@_0EA@BFCGJGEN@Remap?5w?1?5Ctrl?$CLShift?3?5click?5anyw@ 00000001400b5700     imgui.obj
 0002:0000c740       ??_C@_0DM@LGIJPHCL@Click?5?$CFs?5Button?5to?5break?5in?5deb@ 00000001400b5740     imgui.obj
 0002:0000c77c       ??_C@_04EBNJJJJI@?$CF?4?$CKs@ 00000001400b577c     imgui.obj
 0002:0000c788       ??_C@_0M@FNHADFEB@?$CIvoid?$CK?$CJ0x?$CFp@ 00000001400b5788     imgui.obj
 0002:0000c798       ??_C@_0BC@CHOABEME@0x?$CF08X?5?$FLoverride?$FN@ 00000001400b5798     imgui.obj
 0002:0000c7ac       __real@3727c5ac            00000001400b57ac     imgui.obj
 0002:0000c7b0       __real@3d23d70a            00000001400b57b0     imgui.obj
 0002:0000c7b4       __real@3d4ccccd            00000001400b57b4     imgui.obj
 0002:0000c7b8       __real@3dcccccd            00000001400b57b8     imgui.obj
 0002:0000c7bc       __real@3e19999a            00000001400b57bc     imgui.obj
 0002:0000c7c0       __real@3e2aaaab            00000001400b57c0     imgui.obj
 0002:0000c7c4       __real@3e4ccccd            00000001400b57c4     imgui.obj
 0002:0000c7c8       __real@3e99999a            00000001400b57c8     imgui.obj
 0002:0000c7cc       __real@3ecccccd            00000001400b57cc     imgui.obj
 0002:0000c7d0       __real@3ee4f8b580000000    00000001400b57d0     imgui.obj
 0002:0000c7d8       __real@3f19999a            00000001400b57d8     imgui.obj
 0002:0000c7dc       __real@3f266666            00000001400b57dc     imgui.obj
 0002:0000c7e0       __real@3f2b851f            00000001400b57e0     imgui.obj
 0002:0000c7e4       __real@3f333333            00000001400b57e4     imgui.obj
 0002:0000c7e8       __real@3f3851ec            00000001400b57e8     imgui.obj
 0002:0000c7ec       __real@3f400000            00000001400b57ec     imgui.obj
 0002:0000c7f0       __real@3f490fdb            00000001400b57f0     imgui.obj
 0002:0000c7f4       __real@3f7fff58            00000001400b57f4     imgui.obj
 0002:0000c7f8       __real@3f8ccccd            00000001400b57f8     imgui.obj
 0002:0000c7fc       __real@3faccccd            00000001400b57fc     imgui.obj
 0002:0000c800       __real@40200000            00000001400b5800     imgui.obj
 0002:0000c804       __real@40800000            00000001400b5804     imgui.obj
 0002:0000c808       __real@40a00000            00000001400b5808     imgui.obj
 0002:0000c80c       __real@40c00000            00000001400b580c     imgui.obj
 0002:0000c810       __real@41500000            00000001400b5810     imgui.obj
 0002:0000c814       __real@41800000            00000001400b5814     imgui.obj
 0002:0000c818       __real@41c00000            00000001400b5818     imgui.obj
 0002:0000c81c       __real@42700000            00000001400b581c     imgui.obj
 0002:0000c820       __real@42c80000            00000001400b5820     imgui.obj
 0002:0000c824       __real@437f0000            00000001400b5824     imgui.obj
 0002:0000c828       __real@44160000            00000001400b5828     imgui.obj
 0002:0000c82c       __real@44480000            00000001400b582c     imgui.obj
 0002:0000c830       __real@447a0000            00000001400b5830     imgui.obj
 0002:0000c834       __real@7f7fffff            00000001400b5834     imgui.obj
 0002:0000c838       __real@c87a0000            00000001400b5838     imgui.obj
 0002:0000c83c       __real@ff7fffff            00000001400b583c     imgui.obj
 0002:0000c840       __xmm@00000000000000020000000300000001 00000001400b5840     imgui.obj
 0002:0000c850       __xmm@00000002000000000000000100000003 00000001400b5850     imgui.obj
 0002:0000c860       __xmm@000002020000020e0000020d0000020c 00000001400b5860     imgui.obj
 0002:0000c870       __xmm@0000027c0000027b000002790000027a 00000001400b5870     imgui.obj
 0002:0000c880       __xmm@000002800000027f0000027d0000027e 00000001400b5880     imgui.obj
 0002:0000c890       __xmm@80000000800000008000000080000000 00000001400b5890     imgui.obj
 0002:00010530       ??_C@_04EICJPCEA@cmap@     00000001400b9530     imgui_draw.obj
 0002:00010538       ??_C@_04DACNFKGE@loca@     00000001400b9538     imgui_draw.obj
 0002:00010540       ??_C@_04NEODDMOL@head@     00000001400b9540     imgui_draw.obj
 0002:00010548       ??_C@_04LLIHEPK@glyf@      00000001400b9548     imgui_draw.obj
 0002:00010550       ??_C@_04FMPHLIKP@hhea@     00000001400b9550     imgui_draw.obj
 0002:00010558       ??_C@_04ONMNCIMC@hmtx@     00000001400b9558     imgui_draw.obj
 0002:00010560       ??_C@_04HHMMLDJI@kern@     00000001400b9560     imgui_draw.obj
 0002:00010568       ??_C@_04PCFDEHHD@GPOS@     00000001400b9568     imgui_draw.obj
 0002:00010570       ??_C@_04HJGCPIEK@CFF?5@    00000001400b9570     imgui_draw.obj
 0002:00010578       ??_C@_04KODIGLGG@maxp@     00000001400b9578     imgui_draw.obj
 0002:00010580       ??_C@_0BG@CONABPA@ProggyClean?4ttf?0?5?$CFdpx@ 00000001400b9580     imgui_draw.obj
 0002:000105a0       __real@358637bd            00000001400b95a0     imgui_draw.obj
 0002:000105a4       __real@37800000            00000001400b95a4     imgui_draw.obj
 0002:000105a8       __real@38800000            00000001400b95a8     imgui_draw.obj
 0002:000105ac       __real@3d860a92            00000001400b95ac     imgui_draw.obj
 0002:000105b0       __real@3eb33333            00000001400b95b0     imgui_draw.obj
 0002:000105b4       __real@3efae148            00000001400b95b4     imgui_draw.obj
 0002:000105b8       __real@3f5db22d            00000001400b95b8     imgui_draw.obj
 0002:000105bc       __real@3f7fffef            00000001400b95bc     imgui_draw.obj
 0002:000105c0       __real@3fc90fdb            00000001400b95c0     imgui_draw.obj
 0002:000105c4       __real@40490fdb            00000001400b95c4     imgui_draw.obj
 0002:000105c8       __real@40afede0            00000001400b95c8     imgui_draw.obj
 0002:000105cc       __real@40c90fdb            00000001400b95cc     imgui_draw.obj
 0002:000105d0       __real@42400000            00000001400b95d0     imgui_draw.obj
 0002:000105d4       __real@42f60000            00000001400b95d4     imgui_draw.obj
 0002:000105d8       __real@44333333            00000001400b95d8     imgui_draw.obj
 0002:000105dc       __real@44b33333            00000001400b95dc     imgui_draw.obj
 0002:000105e0       __real@45333333            00000001400b95e0     imgui_draw.obj
 0002:000105e4       __real@bf400000            00000001400b95e4     imgui_draw.obj
 0002:000105e8       __real@bf5db22d            00000001400b95e8     imgui_draw.obj
 0002:000105f0       __xmm@00000001000000010000000100000001 00000001400b95f0     imgui_draw.obj
 0002:00010600       __xmm@00000003000000020000000100000000 00000001400b9600     imgui_draw.obj
 0002:00010610       __xmm@3f80000000000000000000003f800000 00000001400b9610     imgui_draw.obj
 0002:00010620       ??_C@_01DNKMNLPK@?$HM@     00000001400b9620     imgui_tables.obj
 0002:00010628       ??_C@_09BDLBIGPI@0x?$CF08X?0?$CFd@ 00000001400b9628     imgui_tables.obj
 0002:00010638       ??_C@_0M@LAOOHBLO@RefScale?$DN?$CFf@ 00000001400b9638     imgui_tables.obj
 0002:00010648       ??_C@_0M@JOECNJOM@Column?5?$CFd?$CFn@ 00000001400b9648     imgui_tables.obj
 0002:00010658       ??_C@_0BA@KAIOJKEL@UserID?$DN0x?$CF08X?$CFn@ 00000001400b9658     imgui_tables.obj
 0002:00010668       ??_C@_0L@LJLKPCDP@Width?$DN?$CFd?$CFn@ 00000001400b9668     imgui_tables.obj
 0002:00010678       ??_C@_0M@IJODOCHC@Weight?$DN?$CFf?$CFn@ 00000001400b9678     imgui_tables.obj
 0002:00010688       ??_C@_0N@EKALHFOF@Visible?$DN?$CFd?$CFn@ 00000001400b9688     imgui_tables.obj
 0002:00010698       ??_C@_0L@BHOFPJL@Order?$DN?$CFd?$CFn@ 00000001400b9698     imgui_tables.obj
 0002:000106a8       ??_C@_0M@KGHCDDIO@Sort?$DN?$CFd?$CFc?$CFn@ 00000001400b96a8     imgui_tables.obj
 0002:000106b8       ??_C@_0BB@PGHPBJD@?$FL?$CFs?$FN?$FL0x?$CF08X?0?$CFd?$FN?6@ 00000001400b96b8     imgui_tables.obj
 0002:000106d0       ??_C@_0N@NHEEPCEH@RefScale?$DN?$CFg?6@ 00000001400b96d0     imgui_tables.obj
 0002:000106e0       ??_C@_0M@JLNIJDCE@Column?5?$CF?92d@ 00000001400b96e0     imgui_tables.obj
 0002:000106f0       ??_C@_0N@PGBEGIHP@?5UserID?$DN?$CF08X@ 00000001400b96f0     imgui_tables.obj
 0002:00010700       ??_C@_0N@MFKBBKPH@?5Weight?$DN?$CF?44f@ 00000001400b9700     imgui_tables.obj
 0002:00010710       ??_C@_09PBOBBCAP@?5Width?$DN?$CFd@ 00000001400b9710     imgui_tables.obj
 0002:00010720       ??_C@_0M@CIPDPODB@?5Visible?$DN?$CFd@ 00000001400b9720     imgui_tables.obj
 0002:00010730       ??_C@_09CFPCIBAG@?5Order?$DN?$CFd@ 00000001400b9730     imgui_tables.obj
 0002:00010740       ??_C@_0L@EAJILIBD@?5Sort?$DN?$CFd?$CFc@ 00000001400b9740     imgui_tables.obj
 0002:0001074c       ??_C@_01EEMJAFIK@?6@       00000001400b974c     imgui_tables.obj
 0002:00010750       ??_C@_05LFBINIGO@Table@    00000001400b9750     imgui_tables.obj
 0002:00010758       __real@3c23d70a            00000001400b9758     imgui_tables.obj
 0002:000108a0       ??_C@_02HJNLAKPP@S8@       00000001400b98a0     imgui_widgets.obj
 0002:000108a4       ??_C@_02HNFGHGEN@U8@       00000001400b98a4     imgui_widgets.obj
 0002:000108a8       ??_C@_02GMHACPFF@?$CFu@    00000001400b98a8     imgui_widgets.obj
 0002:000108ac       ??_C@_03KLLGJOHN@S16@      00000001400b98ac     imgui_widgets.obj
 0002:000108b0       ??_C@_03IONNMBKB@U16@      00000001400b98b0     imgui_widgets.obj
 0002:000108b4       ??_C@_03MMFOIPBH@S32@      00000001400b98b4     imgui_widgets.obj
 0002:000108b8       ??_C@_03OJDFNAML@U32@      00000001400b98b8     imgui_widgets.obj
 0002:000108bc       ??_C@_03JMMPOKHK@S64@      00000001400b98bc     imgui_widgets.obj
 0002:000108c0       ??_C@_05LLAMLEHD@?$CFI64d@ 00000001400b98c0     imgui_widgets.obj
 0002:000108c8       ??_C@_03LJKELFKG@U64@      00000001400b98c8     imgui_widgets.obj
 0002:000108cc       ??_C@_05OINFJHGD@?$CFI64u@ 00000001400b98cc     imgui_widgets.obj
 0002:000108d4       ??_C@_05KNFBNCOH@float@    00000001400b98d4     imgui_widgets.obj
 0002:000108dc       ??_C@_04GFJLOHHD@?$CF?43f@ 00000001400b98dc     imgui_widgets.obj
 0002:000108e4       ??_C@_02NJPGOMH@?$CFf@     00000001400b98e4     imgui_widgets.obj
 0002:000108e8       ??_C@_06BNJCAIGJ@double@   00000001400b98e8     imgui_widgets.obj
 0002:000108f0       ??_C@_03DLDNIBIK@?$CFlf@   00000001400b98f0     imgui_widgets.obj
 0002:000108f4       ??_C@_01LBDDMOBJ@?$FN@     00000001400b98f4     imgui_widgets.obj
 0002:000108f8       ??_C@_01OHGJGJJP@?$FL@     00000001400b98f8     imgui_widgets.obj
 0002:00010900       ??_C@_08ENAFOMOP@?$CDSCROLLX@ 00000001400b9900     imgui_widgets.obj
 0002:00010910       ??_C@_08FEBONNKO@?$CDSCROLLY@ 00000001400b9910     imgui_widgets.obj
 0002:0001091c       ??_C@_06KLKJBGEJ@?$CF?40f?$CF?$CF@ 00000001400b991c     imgui_widgets.obj
 0002:00010924       ??_C@_02LLHJFGPH@?5?$HM@   00000001400b9924     imgui_widgets.obj
 0002:00010928       ??_C@_0CC@IODDEFBI@?9?9?9?9?9?9?9?9?9?9?9?9?9?9?9?9?9?9?9?9?9?9?9?9?9?9?9?9?9?9?9@ 00000001400b9928     imgui_widgets.obj
 0002:0001094c       ??_C@_01CELHOKLL@?$HN@     00000001400b994c     imgui_widgets.obj
 0002:00010950       ??_C@_01HCONENDN@?$HL@     00000001400b9950     imgui_widgets.obj
 0002:00010954       ??_C@_01JOAMLHOP@?9@       00000001400b9954     imgui_widgets.obj
 0002:00010958       ??_C@_01MIFGBAGJ@?$CL@     00000001400b9958     imgui_widgets.obj
 0002:0001095c       __real@00000000            00000001400b995c     imgui_widgets.obj
 0002:00010960       __real@3f350481            00000001400b9960     imgui_widgets.obj
 0002:00010964       __real@3f99999a            00000001400b9964     imgui_widgets.obj
 0002:00010968       __real@3fc00000            00000001400b9968     imgui_widgets.obj
 0002:0001096c       __real@be800000            00000001400b996c     imgui_widgets.obj
 0002:00010970       __real@bf000000            00000001400b9970     imgui_widgets.obj
 0002:00010980       __xmm@80000000000000008000000000000000 00000001400b9980     imgui_widgets.obj
 0002:00010990       ??_C@_0BB@FLGJPPJK@imgui_impl_win32@ 00000001400b9990     imgui_impl_win32.obj
 0002:000109a8       ??_C@_0O@LNFLKCMF@xinput1_4?4dll@ 00000001400b99a8     imgui_impl_win32.obj
 0002:000109b8       ??_C@_0O@KAFOJCHN@xinput1_3?4dll@ 00000001400b99b8     imgui_impl_win32.obj
 0002:000109c8       ??_C@_0BA@GHGALGFD@xinput9_1_0?4dll@ 00000001400b99c8     imgui_impl_win32.obj
 0002:000109d8       ??_C@_0O@GLACEBNI@xinput1_2?4dll@ 00000001400b99d8     imgui_impl_win32.obj
 0002:000109e8       ??_C@_0O@ONJGDDHG@xinput1_1?4dll@ 00000001400b99e8     imgui_impl_win32.obj
 0002:000109f8       ??_C@_0BG@ELBNFOBA@XInputGetCapabilities@ 00000001400b99f8     imgui_impl_win32.obj
 0002:00010a10       ??_C@_0P@FCCEJHCC@XInputGetState@ 00000001400b9a10     imgui_impl_win32.obj
 0002:00010a20       __real@43610000            00000001400b9a20     imgui_impl_win32.obj
 0002:00010a24       __real@46c2ac00            00000001400b9a24     imgui_impl_win32.obj
 0002:00010a28       __real@c6c2ae00            00000001400b9a28     imgui_impl_win32.obj
 0002:00010a30       ??_C@_0CNO@BDFPHIBE@cbuffer?5vertexBuffer?5?3?5register@ 00000001400b9a30     imgui_impl_dx11.obj
 0002:00010d10       ??_C@_0BJC@PEIKANGF@struct?5PS_INPUT?5?5?5?5?5?5?5?5?5?5?5?5?$HL?5?5?5@ 00000001400b9d10     imgui_impl_dx11.obj
 0002:00010ea4       ??_C@_06BNDBNCGN@vs_4_0@   00000001400b9ea4     imgui_impl_dx11.obj
 0002:00010eac       ??_C@_04GHJNJNPO@main@     00000001400b9eac     imgui_impl_dx11.obj
 0002:00010eb8       ??_C@_08JPMAAECC@POSITION@ 00000001400b9eb8     imgui_impl_dx11.obj
 0002:00010ec8       ??_C@_08CMDKBPJM@TEXCOORD@ 00000001400b9ec8     imgui_impl_dx11.obj
 0002:00010ed4       ??_C@_05DPNLPLKI@COLOR@    00000001400b9ed4     imgui_impl_dx11.obj
 0002:00010edc       ??_C@_06HOOBOHFH@ps_4_0@   00000001400b9edc     imgui_impl_dx11.obj
 0002:00010ee8       _GUID_54ec77fa_1377_44e6_8c32_88fd5f44c84c 00000001400b9ee8     imgui_impl_dx11.obj
 0002:00010ef8       _GUID_2411e7e1_12ac_4ccf_bd14_9798e8534dc0 00000001400b9ef8     imgui_impl_dx11.obj
 0002:00010f08       _GUID_7b7166ec_21c7_44ae_b21a_c9ae321ae369 00000001400b9f08     imgui_impl_dx11.obj
 0002:00010f18       ??_C@_0BA@OFLFAAJI@imgui_impl_dx11@ 00000001400b9f18     imgui_impl_dx11.obj
 0002:00010f30       __xmm@00000000000000080000000100000000 00000001400b9f30     imgui_impl_dx11.obj
 0002:00010f40       __xmm@00000001000000010000000100000015 00000001400b9f40     imgui_impl_dx11.obj
 0002:00010f50       __xmm@00000006000000020000000100000006 00000001400b9f50     imgui_impl_dx11.obj
 0002:00013490       __xmm@ff00ff00ff00ff00ff00ff00ff00ff00 00000001400bc490     libcpmt:vector_algorithms.obj
 0002:000134a0       __xmm@ffffffffffffffffffffffffffffffff 00000001400bc4a0     libcpmt:vector_algorithms.obj
 0002:000134c0       __ymm@0000001f0000001f0000001f0000001f0000001f0000001f0000001f0000001f 00000001400bc4c0     libcpmt:vector_algorithms.obj
 0002:000134e0       __ymm@ffffff00ffffff00ffffff00ffffff00ffffff00ffffff00ffffff00ffffff00 00000001400bc4e0     libcpmt:vector_algorithms.obj
 0002:00013500       ??_C@_0P@GHFPNOJB@bad?5allocation@ 00000001400bc500     libcpmt:xthrow.obj
 0002:00013518       ??_7logic_error@std@@6B@   00000001400bc518     libcpmt:xthrow.obj
 0002:00013530       ??_7length_error@std@@6B@  00000001400bc530     libcpmt:xthrow.obj
 0002:00013548       ??_7out_of_range@std@@6B@  00000001400bc548     libcpmt:xthrow.obj
 0002:00013660       ??_C@_1CM@BFAMBNFD@?$AA?$CB?$AAx?$AA?9?$AAs?$AAy?$AAs?$AA?9?$AAd?$AAe?$AAf?$AAa?$AAu?$AAl?$AAt?$AA?9@ 00000001400bc660     libcpmt:syserror_import_lib.obj
 0002:00013e20       ??_C@_07IPNMCAN@success@   00000001400bce20     libcpmt:syserror.obj
 0002:00013e28       ??_C@_0BN@LKKBCCDB@address?5family?5not?5supported@ 00000001400bce28     libcpmt:syserror.obj
 0002:00013e48       ??_C@_0P@LDMLAFHI@address?5in?5use@ 00000001400bce48     libcpmt:syserror.obj
 0002:00013e58       ??_C@_0BG@DHPCNBJB@address?5not?5available@ 00000001400bce58     libcpmt:syserror.obj
 0002:00013e70       ??_C@_0BC@DFIBIBIL@already?5connected@ 00000001400bce70     libcpmt:syserror.obj
 0002:00013e88       ??_C@_0BH@CAKOHOMI@argument?5list?5too?5long@ 00000001400bce88     libcpmt:syserror.obj
 0002:00013ea0       ??_C@_0BH@CGIMPKIM@argument?5out?5of?5domain@ 00000001400bcea0     libcpmt:syserror.obj
 0002:00013eb8       ??_C@_0M@KGHGGJGL@bad?5address@ 00000001400bceb8     libcpmt:syserror.obj
 0002:00013ec8       ??_C@_0BE@MPJPGCEO@bad?5file?5descriptor@ 00000001400bcec8     libcpmt:syserror.obj
 0002:00013ee0       ??_C@_0M@PMMIEFCP@bad?5message@ 00000001400bcee0     libcpmt:syserror.obj
 0002:00013ef0       ??_C@_0M@KPHOFDBE@broken?5pipe@ 00000001400bcef0     libcpmt:syserror.obj
 0002:00013f00       ??_C@_0BD@MGNDDEGM@connection?5aborted@ 00000001400bcf00     libcpmt:syserror.obj
 0002:00013f18       ??_C@_0BP@KAIHPOGN@connection?5already?5in?5progress@ 00000001400bcf18     libcpmt:syserror.obj
 0002:00013f38       ??_C@_0BD@PJLIIJEL@connection?5refused@ 00000001400bcf38     libcpmt:syserror.obj
 0002:00013f50       ??_C@_0BB@IECNJNOI@connection?5reset@ 00000001400bcf50     libcpmt:syserror.obj
 0002:00013f68       ??_C@_0BC@PPHBOELF@cross?5device?5link@ 00000001400bcf68     libcpmt:syserror.obj
 0002:00013f80       ??_C@_0BN@KDMIFEIP@destination?5address?5required@ 00000001400bcf80     libcpmt:syserror.obj
 0002:00013fa0       ??_C@_0BI@NGCEHDD@device?5or?5resource?5busy@ 00000001400bcfa0     libcpmt:syserror.obj
 0002:00013fb8       ??_C@_0BE@JIDOCPHM@directory?5not?5empty@ 00000001400bcfb8     libcpmt:syserror.obj
 0002:00013fd0       ??_C@_0BI@BNCLIGPB@executable?5format?5error@ 00000001400bcfd0     libcpmt:syserror.obj
 0002:00013fe8       ??_C@_0M@MIDIAGJP@file?5exists@ 00000001400bcfe8     libcpmt:syserror.obj
 0002:00013ff8       ??_C@_0P@DNAJLBJK@file?5too?5large@ 00000001400bcff8     libcpmt:syserror.obj
 0002:00014008       ??_C@_0BC@EJHOMAAK@filename?5too?5long@ 00000001400bd008     libcpmt:syserror.obj
 0002:00014020       ??_C@_0BH@KEFGLDAF@function?5not?5supported@ 00000001400bd020     libcpmt:syserror.obj
 0002:00014038       ??_C@_0BB@DHFDFGDM@host?5unreachable@ 00000001400bd038     libcpmt:syserror.obj
 0002:00014050       ??_C@_0BD@JPHBMONG@identifier?5removed@ 00000001400bd050     libcpmt:syserror.obj
 0002:00014068       ??_C@_0BG@CDNPAGJK@illegal?5byte?5sequence@ 00000001400bd068     libcpmt:syserror.obj
 0002:00014080       ??_C@_0CD@BNPLBMNA@inappropriate?5io?5control?5operat@ 00000001400bd080     libcpmt:syserror.obj
 0002:000140a8       ??_C@_0M@EGEKIIMP@interrupted@ 00000001400bd0a8     libcpmt:syserror.obj
 0002:000140b8       ??_C@_0BB@FCMFBGOM@invalid?5argument@ 00000001400bd0b8     libcpmt:syserror.obj
 0002:000140d0       ??_C@_0N@OHAFKDEK@invalid?5seek@ 00000001400bd0d0     libcpmt:syserror.obj
 0002:000140e0       ??_C@_08GLNPIFBN@io?5error@ 00000001400bd0e0     libcpmt:syserror.obj
 0002:000140f0       ??_C@_0P@FLLDBIDK@is?5a?5directory@ 00000001400bd0f0     libcpmt:syserror.obj
 0002:00014100       ??_C@_0N@IFLPBIOP@message?5size@ 00000001400bd100     libcpmt:syserror.obj
 0002:00014110       ??_C@_0N@KIIEAAIO@network?5down@ 00000001400bd110     libcpmt:syserror.obj
 0002:00014120       ??_C@_0O@FNPDBHEE@network?5reset@ 00000001400bd120     libcpmt:syserror.obj
 0002:00014130       ??_C@_0BE@IFNCKGE@network?5unreachable@ 00000001400bd130     libcpmt:syserror.obj
 0002:00014148       ??_C@_0BA@PFFCAOFK@no?5buffer?5space@ 00000001400bd148     libcpmt:syserror.obj
 0002:00014158       ??_C@_0BB@IEPBLJHK@no?5child?5process@ 00000001400bd158     libcpmt:syserror.obj
 0002:00014170       ??_C@_07PLECNNKG@no?5link@ 00000001400bd170     libcpmt:syserror.obj
 0002:00014178       ??_C@_0BC@NJECKMKE@no?5lock?5available@ 00000001400bd178     libcpmt:syserror.obj
 0002:00014190       ??_C@_0BF@PBGGPKKE@no?5message?5available@ 00000001400bd190     libcpmt:syserror.obj
 0002:000141a8       ??_C@_0L@EDOLMPAK@no?5message@ 00000001400bd1a8     libcpmt:syserror.obj
 0002:000141b8       ??_C@_0BD@EAMBFIDF@no?5protocol?5option@ 00000001400bd1b8     libcpmt:syserror.obj
 0002:000141d0       ??_C@_0BD@IJDJKDEA@no?5space?5on?5device@ 00000001400bd1d0     libcpmt:syserror.obj
 0002:000141e8       ??_C@_0BE@MKFDAFMP@no?5stream?5resources@ 00000001400bd1e8     libcpmt:syserror.obj
 0002:00014200       ??_C@_0BK@IMCPHCBI@no?5such?5device?5or?5address@ 00000001400bd200     libcpmt:syserror.obj
 0002:00014220       ??_C@_0P@FDINDDOK@no?5such?5device@ 00000001400bd220     libcpmt:syserror.obj
 0002:00014230       ??_C@_0BK@NDOCBPGE@no?5such?5file?5or?5directory@ 00000001400bd230     libcpmt:syserror.obj
 0002:00014250       ??_C@_0BA@ENLPPKBN@no?5such?5process@ 00000001400bd250     libcpmt:syserror.obj
 0002:00014260       ??_C@_0BA@DOCPFFJG@not?5a?5directory@ 00000001400bd260     libcpmt:syserror.obj
 0002:00014270       ??_C@_0N@POEIPGGF@not?5a?5socket@ 00000001400bd270     libcpmt:syserror.obj
 0002:00014280       ??_C@_0N@LGAPMMPI@not?5a?5stream@ 00000001400bd280     libcpmt:syserror.obj
 0002:00014290       ??_C@_0O@GLMIBBEG@not?5connected@ 00000001400bd290     libcpmt:syserror.obj
 0002:000142a0       ??_C@_0BC@ENOOLCNF@not?5enough?5memory@ 00000001400bd2a0     libcpmt:syserror.obj
 0002:000142b8       ??_C@_0O@NHEDABJP@not?5supported@ 00000001400bd2b8     libcpmt:syserror.obj
 0002:000142c8       ??_C@_0BD@MOLBPMEA@operation?5canceled@ 00000001400bd2c8     libcpmt:syserror.obj
 0002:000142e0       ??_C@_0BG@KDKHOPCO@operation?5in?5progress@ 00000001400bd2e0     libcpmt:syserror.obj
 0002:000142f8       ??_C@_0BI@OHIEJAAB@operation?5not?5permitted@ 00000001400bd2f8     libcpmt:syserror.obj
 0002:00014310       ??_C@_0BI@LNEGIFLN@operation?5not?5supported@ 00000001400bd310     libcpmt:syserror.obj
 0002:00014328       ??_C@_0BG@OEMDKMEE@operation?5would?5block@ 00000001400bd328     libcpmt:syserror.obj
 0002:00014340       ??_C@_0L@BLPOFLNJ@owner?5dead@ 00000001400bd340     libcpmt:syserror.obj
 0002:00014350       ??_C@_0BC@CIJDGCDI@permission?5denied@ 00000001400bd350     libcpmt:syserror.obj
 0002:00014368       ??_C@_0P@FNPOCJBE@protocol?5error@ 00000001400bd368     libcpmt:syserror.obj
 0002:00014378       ??_C@_0BH@JPPPLHJB@protocol?5not?5supported@ 00000001400bd378     libcpmt:syserror.obj
 0002:00014390       ??_C@_0BG@EICBIHDP@read?5only?5file?5system@ 00000001400bd390     libcpmt:syserror.obj
 0002:000143a8       ??_C@_0BO@BJBOMOEJ@resource?5deadlock?5would?5occur@ 00000001400bd3a8     libcpmt:syserror.obj
 0002:000143c8       ??_C@_0BP@LKNGHENJ@resource?5unavailable?5try?5again@ 00000001400bd3c8     libcpmt:syserror.obj
 0002:000143e8       ??_C@_0BE@GOIPJJHG@result?5out?5of?5range@ 00000001400bd3e8     libcpmt:syserror.obj
 0002:00014400       ??_C@_0BG@MPLKFPAE@state?5not?5recoverable@ 00000001400bd400     libcpmt:syserror.obj
 0002:00014418       ??_C@_0P@DIIFGFCG@stream?5timeout@ 00000001400bd418     libcpmt:syserror.obj
 0002:00014428       ??_C@_0P@IPFDMIFL@text?5file?5busy@ 00000001400bd428     libcpmt:syserror.obj
 0002:00014438       ??_C@_09KJPPMAOI@timed?5out@ 00000001400bd438     libcpmt:syserror.obj
 0002:00014448       ??_C@_0BO@HACHBEKI@too?5many?5files?5open?5in?5system@ 00000001400bd448     libcpmt:syserror.obj
 0002:00014468       ??_C@_0BE@GHAFMPAH@too?5many?5files?5open@ 00000001400bd468     libcpmt:syserror.obj
 0002:00014480       ??_C@_0P@HCOMKFCC@too?5many?5links@ 00000001400bd480     libcpmt:syserror.obj
 0002:00014490       ??_C@_0BO@EFGOJEF@too?5many?5symbolic?5link?5levels@ 00000001400bd490     libcpmt:syserror.obj
 0002:000144b0       ??_C@_0BA@KGKGOOJA@value?5too?5large@ 00000001400bd4b0     libcpmt:syserror.obj
 0002:000144c0       ??_C@_0BE@MIEJDDNH@wrong?5protocol?5type@ 00000001400bd4c0     libcpmt:syserror.obj
 0002:000144d8       ??_C@_0O@BFJCFAAK@unknown?5error@ 00000001400bd4d8     libcpmt:syserror.obj
 0002:000144f0       ??_7_Locimp@locale@std@@6B@ 00000001400bd4f0     libcpmt:locale0.obj
 0002:00014508       ??_C@_01NBENCBCI@?$CK@     00000001400bd508     libcpmt:locale0.obj
 0002:00014510       ?__DOUBLE_POW5_INV_SPLIT@std@@3QAY01$$CB_KA 00000001400bd510     libcpmt:xcharconv_ryu_tables.obj
 0002:00015750       ?__DOUBLE_POW5_SPLIT@std@@3QAY01$$CB_KA 00000001400be750     libcpmt:xcharconv_ryu_tables.obj
 0002:00016bb0       ?__POW10_SPLIT@std@@3QAY02$$CB_KA 00000001400bfbb0     libcpmt:xcharconv_ryu_tables.obj
 0002:0001de70       ?__POW10_SPLIT_2@std@@3QAY02$$CB_KA 00000001400c6e70     libcpmt:xcharconv_ryu_tables.obj
 0002:00030430       ?_Special_X_table@?$_General_precision_tables_2@M@std@@2QBIB 00000001400d9430     libcpmt:xcharconv_tables_float.obj
 0002:00030530       ?_Ordinary_X_table@?$_General_precision_tables_2@M@std@@2QBIB 00000001400d9530     libcpmt:xcharconv_tables_float.obj
 0002:000305e0       ?_Special_X_table@?$_General_precision_tables_2@N@std@@2QB_KB 00000001400d95e0     libcpmt:xcharconv_tables_double.obj
 0002:00030c00       ?_Ordinary_X_table@?$_General_precision_tables_2@N@std@@2QB_KB 00000001400d9c00     libcpmt:xcharconv_tables_double.obj
 0002:000315d0       ??_C@_13IMODFHAA@?$AA?9@   00000001400da5d0     libcpmt:wlocale.obj
 0002:00031690       ??_7type_info@@6B@         00000001400da690     LIBCMT:std_type_info_static.obj
 0002:00031698       _pDestructExceptionObject  00000001400da698     libvcruntime:ehhelpers.obj
 0002:000316a0       ?s_negLengthTab@FH4@@3QBCB 00000001400da6a0     libvcruntime:risctrnsctrl.obj
 0002:000316b0       ?s_shiftTab@FH4@@3QBEB     00000001400da6b0     libvcruntime:risctrnsctrl.obj
 0002:00031800       ??_7bad_exception@std@@6B@ 00000001400da800     libvcruntime:frame.obj
 0002:00031810       ??_C@_0O@DPKOEFFH@bad?5exception@ 00000001400da810     libvcruntime:frame.obj
 0002:00031f30       ??_C@_08EHJDFFNH@__based?$CI@ 00000001400daf30     libvcruntime:undname.obj
 0002:00031f40       ??_C@_07KOLFKCDI@__cdecl@  00000001400daf40     libvcruntime:undname.obj
 0002:00031f48       ??_C@_09IFJBGAPI@__stdcall@ 00000001400daf48     libvcruntime:undname.obj
 0002:00031f58       ??_C@_0L@NPHFGOKO@__thiscall@ 00000001400daf58     libvcruntime:undname.obj
 0002:00031f68       ??_C@_0L@JMKHOMEK@__fastcall@ 00000001400daf68     libvcruntime:undname.obj
 0002:00031f78       ??_C@_0N@BCKKPABJ@__vectorcall@ 00000001400daf78     libvcruntime:undname.obj
 0002:00031f88       ??_C@_0BA@NAGGFLJK@__preserve_none@ 00000001400daf88     libvcruntime:undname.obj
 0002:00031f98       ??_C@_09HIJEGCPM@__clrcall@ 00000001400daf98     libvcruntime:undname.obj
 0002:00031fa4       ??_C@_06GHPCKEAG@__eabi@   00000001400dafa4     libvcruntime:undname.obj
 0002:00031fb0       ??_C@_09IOPIDJLG@__swift_1@ 00000001400dafb0     libvcruntime:undname.obj
 0002:00031fc0       ??_C@_09KFNFGKHF@__swift_2@ 00000001400dafc0     libvcruntime:undname.obj
 0002:00031fd0       ??_C@_09LMMOFLDE@__swift_3@ 00000001400dafd0     libvcruntime:undname.obj
 0002:00031fe0       ??_C@_07JOMMBBKO@__ptr64@  00000001400dafe0     libvcruntime:undname.obj
 0002:00031fe8       ??_C@_0L@PILCLIHE@__restrict@ 00000001400dafe8     libvcruntime:undname.obj
 0002:00031ff8       ??_C@_0M@GFIIJFMG@__unaligned@ 00000001400daff8     libvcruntime:undname.obj
 0002:00032008       ??_C@_09DHDLOLLB@restrict?$CI@ 00000001400db008     libvcruntime:undname.obj
 0002:00032014       ??_C@_04NIHEBCM@?5new@     00000001400db014     libvcruntime:undname.obj
 0002:00032020       ??_C@_07FPCDHGMM@?5delete@ 00000001400db020     libvcruntime:undname.obj
 0002:00032028       ??_C@_01NEMOKFLO@?$DN@     00000001400db028     libvcruntime:undname.obj
 0002:0003202c       ??_C@_02GPIOPFAK@?$DO?$DO@ 00000001400db02c     libvcruntime:undname.obj
 0002:00032030       ??_C@_02FODMEDOG@?$DM?$DM@ 00000001400db030     libvcruntime:undname.obj
 0002:00032034       ??_C@_01DCLJPIOD@?$CB@     00000001400db034     libvcruntime:undname.obj
 0002:00032038       ??_C@_02EGOFBIJA@?$DN?$DN@ 00000001400db038     libvcruntime:undname.obj
 0002:0003203c       ??_C@_02FDNJECIE@?$CB?$DN@ 00000001400db03c     libvcruntime:undname.obj
 0002:00032040       ??_C@_02GPECMEKF@?$FL?$FN@ 00000001400db040     libvcruntime:undname.obj
 0002:00032048       ??_C@_08LHJFAFGD@operator@ 00000001400db048     libvcruntime:undname.obj
 0002:00032054       ??_C@_02HBOOOICD@?9?$DO@   00000001400db054     libvcruntime:undname.obj
 0002:00032058       ??_C@_02ECNGHCIF@?$CL?$CL@ 00000001400db058     libvcruntime:undname.obj
 0002:0003205c       ??_C@_02BAABKJLB@?9?9@     00000001400db05c     libvcruntime:undname.obj
 0002:00032060       ??_C@_01HNPIGOCE@?$CG@     00000001400db060     libvcruntime:undname.obj
 0002:00032064       ??_C@_03MNHNFDLC@?9?$DO?$CK@ 00000001400db064     libvcruntime:undname.obj
 0002:00032068       ??_C@_01FGNFDNOH@?$CF@     00000001400db068     libvcruntime:undname.obj
 0002:0003206c       ??_C@_02EHCHHCKH@?$DM?$DN@ 00000001400db06c     libvcruntime:undname.obj
 0002:00032070       ??_C@_02EEKDKGMJ@?$DO?$DN@ 00000001400db070     libvcruntime:undname.obj
 0002:00032074       ??_C@_01IHBHIGKO@?0@       00000001400db074     libvcruntime:undname.obj
 0002:00032078       ??_C@_02HCKGKOFO@?$CI?$CJ@ 00000001400db078     libvcruntime:undname.obj
 0002:0003207c       ??_C@_01PJKLJHI@?$HO@      00000001400db07c     libvcruntime:undname.obj
 0002:00032080       ??_C@_01JKBOJNNK@?$FO@     00000001400db080     libvcruntime:undname.obj
 0002:00032084       ??_C@_02PPKAJPJL@?$CG?$CG@ 00000001400db084     libvcruntime:undname.obj
 0002:00032088       ??_C@_02NONPIBCD@?$HM?$HM@ 00000001400db088     libvcruntime:undname.obj
 0002:0003208c       ??_C@_02FPIMKNGF@?$CK?$DN@ 00000001400db08c     libvcruntime:undname.obj
 0002:00032090       ??_C@_02FOEOMHFC@?$CL?$DN@ 00000001400db090     libvcruntime:undname.obj
 0002:00032094       ??_C@_02FKMDLLOA@?9?$DN@   00000001400db094     libvcruntime:undname.obj
 0002:00032098       ??_C@_02FJEHGPIO@?1?$DN@   00000001400db098     libvcruntime:undname.obj
 0002:0003209c       ??_C@_02FENAOKFI@?$CF?$DN@ 00000001400db09c     libvcruntime:undname.obj
 0002:000320a0       ??_C@_03IKFCCPFF@?$DO?$DO?$DN@ 00000001400db0a0     libvcruntime:undname.obj
 0002:000320a4       ??_C@_03CDNPDDLA@?$DM?$DM?$DN@ 00000001400db0a4     libvcruntime:undname.obj
 0002:000320a8       ??_C@_02FGJGFEAB@?$CG?$DN@ 00000001400db0a8     libvcruntime:undname.obj
 0002:000320ac       ??_C@_02DHLNPPGH@?$HM?$DN@ 00000001400db0ac     libvcruntime:undname.obj
 0002:000320b0       ??_C@_02MHEGNOJ@?$FO?$DN@  00000001400db0b0     libvcruntime:undname.obj
 0002:000320b8       ??_C@_09IFPLHPGF@?$GAvftable?8@ 00000001400db0b8     libvcruntime:undname.obj
 0002:000320c8       ??_C@_09BLBHBJP@?$GAvbtable?8@ 00000001400db0c8     libvcruntime:undname.obj
 0002:000320d8       ??_C@_07FEEIOKP@?$GAvcall?8@ 00000001400db0d8     libvcruntime:undname.obj
 0002:000320e0       ??_C@_08LLFFHHDJ@?$GAtypeof?8@ 00000001400db0e0     libvcruntime:undname.obj
 0002:000320f0       ??_C@_0BF@KDPPACIK@?$GAlocal?5static?5guard?8@ 00000001400db0f0     libvcruntime:undname.obj
 0002:00032108       ??_C@_08OBABFOLI@?$GAstring?8@ 00000001400db108     libvcruntime:undname.obj
 0002:00032118       ??_C@_0BD@JDLKDPAB@?$GAvbase?5destructor?8@ 00000001400db118     libvcruntime:undname.obj
 0002:00032130       ??_C@_0BN@DEGPLNFK@?$GAvector?5deleting?5destructor?8@ 00000001400db130     libvcruntime:undname.obj
 0002:00032150       ??_C@_0BO@OBMKPJIG@?$GAdefault?5constructor?5closure?8@ 00000001400db150     libvcruntime:undname.obj
 0002:00032170       ??_C@_0BN@IMDCHIKM@?$GAscalar?5deleting?5destructor?8@ 00000001400db170     libvcruntime:undname.obj
 0002:00032190       ??_C@_0BO@PFGOCPJJ@?$GAvector?5constructor?5iterator?8@ 00000001400db190     libvcruntime:undname.obj
 0002:000321b0       ??_C@_0BN@LFPFMEDL@?$GAvector?5destructor?5iterator?8@ 00000001400db1b0     libvcruntime:undname.obj
 0002:000321d0       ??_C@_0CE@IKBNEHA@?$GAvector?5vbase?5constructor?5itera@ 00000001400db1d0     libvcruntime:undname.obj
 0002:000321f8       ??_C@_0BL@NILFHHPC@?$GAvirtual?5displacement?5map?8@ 00000001400db1f8     libvcruntime:undname.obj
 0002:00032218       ??_C@_0CB@JONCMFFK@?$GAeh?5vector?5constructor?5iterator@ 00000001400db218     libvcruntime:undname.obj
 0002:00032240       ??_C@_0CA@GCEOPDGL@?$GAeh?5vector?5destructor?5iterator?8@ 00000001400db240     libvcruntime:undname.obj
 0002:00032260       ??_C@_0CH@OOJPLCPH@?$GAeh?5vector?5vbase?5constructor?5it@ 00000001400db260     libvcruntime:undname.obj
 0002:00032288       ??_C@_0BL@LLKPOHJI@?$GAcopy?5constructor?5closure?8@ 00000001400db288     libvcruntime:undname.obj
 0002:000322a8       ??_C@_0BA@KBCDOMBN@?$GAudt?5returning?8@ 00000001400db2a8     libvcruntime:undname.obj
 0002:000322b8       ??_C@_03KLGMFNMG@?$GAEH@   00000001400db2b8     libvcruntime:undname.obj
 0002:000322bc       ??_C@_05KHLCHHI@?$GARTTI@  00000001400db2bc     libvcruntime:undname.obj
 0002:000322c8       ??_C@_0BA@KKLDJDLB@?$GAlocal?5vftable?8@ 00000001400db2c8     libvcruntime:undname.obj
 0002:000322d8       ??_C@_0CE@IIHCMGGL@?$GAlocal?5vftable?5constructor?5clos@ 00000001400db2d8     libvcruntime:undname.obj
 0002:000322fc       ??_C@_06FHBGPFGH@?5new?$FL?$FN@ 00000001400db2fc     libvcruntime:undname.obj
 0002:00032308       ??_C@_09LBNFPBCA@?5delete?$FL?$FN@ 00000001400db308     libvcruntime:undname.obj
 0002:00032318       ??_C@_0P@HJKNJFNN@?$GAomni?5callsig?8@ 00000001400db318     libvcruntime:undname.obj
 0002:00032328       ??_C@_0BL@CNOONJFP@?$GAplacement?5delete?5closure?8@ 00000001400db328     libvcruntime:undname.obj
 0002:00032348       ??_C@_0BN@CKNJLHMB@?$GAplacement?5delete?$FL?$FN?5closure?8@ 00000001400db348     libvcruntime:undname.obj
 0002:00032368       ??_C@_0CG@CFDHKGGD@?$GAmanaged?5vector?5constructor?5ite@ 00000001400db368     libvcruntime:undname.obj
 0002:00032390       ??_C@_0CF@IMGKMJNO@?$GAmanaged?5vector?5destructor?5iter@ 00000001400db390     libvcruntime:undname.obj
 0002:000323b8       ??_C@_0CG@HLDDJMAG@?$GAeh?5vector?5copy?5constructor?5ite@ 00000001400db3b8     libvcruntime:undname.obj
 0002:000323e0       ??_C@_0CM@FCBBDIGB@?$GAeh?5vector?5vbase?5copy?5construct@ 00000001400db3e0     libvcruntime:undname.obj
 0002:00032410       ??_C@_0BL@CLIPGLGB@?$GAdynamic?5initializer?5for?5?8@ 00000001400db410     libvcruntime:undname.obj
 0002:00032430       ??_C@_0CB@PDBIFEP@?$GAdynamic?5atexit?5destructor?5for?5@ 00000001400db430     libvcruntime:undname.obj
 0002:00032458       ??_C@_0CD@CGAJBKEJ@?$GAvector?5copy?5constructor?5iterat@ 00000001400db458     libvcruntime:undname.obj
 0002:00032480       ??_C@_0CJ@GJELGAMM@?$GAvector?5vbase?5copy?5constructor?5@ 00000001400db480     libvcruntime:undname.obj
 0002:000324b0       ??_C@_0CL@FGIJHLCE@?$GAmanaged?5vector?5copy?5constructo@ 00000001400db4b0     libvcruntime:undname.obj
 0002:000324e0       ??_C@_0BM@PMGGMLDN@?$GAlocal?5static?5thread?5guard?8@ 00000001400db4e0     libvcruntime:undname.obj
 0002:00032500       ??_C@_0N@BDNMDMOL@operator?5?$CC?$CC?5@ 00000001400db500     libvcruntime:undname.obj
 0002:00032510       ??_C@_0BC@GGEBGALA@operator?5co_await@ 00000001400db510     libvcruntime:undname.obj
 0002:00032528       ??_C@_0M@GAAIMMOH@operator?$DM?$DN?$DO@ 00000001400db528     libvcruntime:undname.obj
 0002:00032538       ??_C@_0BC@DAFEJGAK@?5Type?5Descriptor?8@ 00000001400db538     libvcruntime:undname.obj
 0002:00032550       ??_C@_0BM@LDKODKLH@?5Base?5Class?5Descriptor?5at?5?$CI@ 00000001400db550     libvcruntime:undname.obj
 0002:00032570       ??_C@_0BD@LGICGFMM@?5Base?5Class?5Array?8@ 00000001400db570     libvcruntime:undname.obj
 0002:00032588       ??_C@_0BN@MECKDCOJ@?5Class?5Hierarchy?5Descriptor?8@ 00000001400db588     libvcruntime:undname.obj
 0002:000325a8       ??_C@_0BK@CFCOFLF@?5Complete?5Object?5Locator?8@ 00000001400db5a8     libvcruntime:undname.obj
 0002:000325c8       ??_C@_0BG@JNJLAMPM@?$GAanonymous?5namespace?8@ 00000001400db5c8     libvcruntime:undname.obj
 0002:000325f8       ??_C@_1DM@KHCHBNEB@?$AAa?$AAp?$AAi?$AA?9?$AAm?$AAs?$AA?9?$AAw?$AAi?$AAn?$AA?9?$AAc?$AAo?$AAr?$AAe@ 00000001400db5f8     libvcruntime:winapi_downlevel.obj
 0002:00032638       ??_C@_1DK@LPPGFMPP@?$AAa?$AAp?$AAi?$AA?9?$AAm?$AAs?$AA?9?$AAw?$AAi?$AAn?$AA?9?$AAc?$AAo?$AAr?$AAe@ 00000001400db638     libvcruntime:winapi_downlevel.obj
 0002:00032678       ??_C@_1BC@GDMECMAK@?$AAk?$AAe?$AAr?$AAn?$AAe?$AAl?$AA3?$AA2@ 00000001400db678     libvcruntime:winapi_downlevel.obj
 0002:00032690       ??_C@_1BA@PFFKHIOG@?$AAa?$AAp?$AAi?$AA?9?$AAm?$AAs?$AA?9@ 00000001400db690     libvcruntime:winapi_downlevel.obj
 0002:000326a8       ??_C@_08KNHFBNJ@FlsAlloc@  00000001400db6a8     libvcruntime:winapi_downlevel.obj
 0002:000326c0       ??_C@_07PEJMOBNF@FlsFree@  00000001400db6c0     libvcruntime:winapi_downlevel.obj
 0002:000326d0       ??_C@_0M@GDNOONDI@FlsGetValue@ 00000001400db6d0     libvcruntime:winapi_downlevel.obj
 0002:000326e8       ??_C@_0M@JCPCPOEF@FlsSetValue@ 00000001400db6e8     libvcruntime:winapi_downlevel.obj
 0002:00032700       ??_C@_0BM@HCFOFFN@InitializeCriticalSectionEx@ 00000001400db700     libvcruntime:winapi_downlevel.obj
 0002:00032720       ?standard_lookup_table_spectre@__crt_stdio_output@@3V?$spectre_mitigated_lookup_table@Ustate_transition_pair@__crt_stdio_output@@$0IA@@1@B 00000001400db720     libucrt:output.obj
 0002:00032820       ?format_validation_lookup_table_spectre@__crt_stdio_output@@3V?$spectre_mitigated_lookup_table@Ustate_transition_pair@__crt_stdio_output@@$0IA@@1@B 00000001400db820     libucrt:output.obj
 0002:000329c0       ??_C@_1O@CEDCILHN@?$AA?$CI?$AAn?$AAu?$AAl?$AAl?$AA?$CJ@ 00000001400db9c0     libucrt:output.obj
 0002:000329d0       ?large_power_data@?1??multiply_by_power_of_ten@__crt_strtox@@YA_NAEAUbig_integer@2@I@Z@4QBIB 00000001400db9d0     libucrt:input.obj
 0002:000332e0       ?large_power_indices@?1??multiply_by_power_of_ten@__crt_strtox@@YA_NAEAUbig_integer@2@I@Z@4QBUunpack_index@?1??12@YA_N0I@Z@B 00000001400dc2e0     libucrt:input.obj
 0002:00033378       ?small_powers_of_ten@?1??multiply_by_power_of_ten@__crt_strtox@@YA_NAEAUbig_integer@2@I@Z@4QBIB 00000001400dc378     libucrt:input.obj
 0002:000333a0       ??_C@_1GE@DPGDJKLM@?$AAm?$AAi?$AAn?$AAk?$AAe?$AAr?$AAn?$AAe?$AAl?$AA?2?$AAc?$AAr?$AAt?$AAs?$AA?2@ 00000001400dc3a0     libucrt:input.obj
 0002:00033410       ??_C@_1FM@FELNCOBF@?$AA_?$AA_?$AAc?$AAr?$AAt?$AA_?$AAs?$AAt?$AAr?$AAt?$AAo?$AAx?$AA?3?$AA?3?$AAf@ 00000001400dc410     libucrt:input.obj
 0002:00033470       ??_C@_1BG@GEMHBGAF@?$AA_?$AAi?$AAs?$AA_?$AAd?$AAo?$AAu?$AAb?$AAl?$AAe@ 00000001400dc470     libucrt:input.obj
 0002:00033490       ??_C@_1FK@JOJELFFO@?$AA_?$AA_?$AAc?$AAr?$AAt?$AA_?$AAs?$AAt?$AAr?$AAt?$AAo?$AAx?$AA?3?$AA?3?$AAf@ 00000001400dc490     libucrt:input.obj
 0002:000334f0       ??_C@_1BI@BANMPGJI@?$AA?$CB?$AA_?$AAi?$AAs?$AA_?$AAd?$AAo?$AAu?$AAb?$AAl?$AAe@ 00000001400dc4f0     libucrt:input.obj
 0002:00033510       ?constraints@?1??is_length_valid@__crt_stdio_input@@YA_NW4conversion_mode@2@W4length_modifier@2@@Z@4QAY0M@$$CBEA 00000001400dc510     libucrt:input.obj
 0002:00033588       ?inf_uppercase@?1???$parse_floating_point_possible_infinity@DV?$input_adapter_character_source@V?$string_input_adapter@D@__crt_stdio_input@@@__crt_strtox@@_K@__crt_strtox@@YA?AW4floating_point_parse_result@1@AEADAEAV?$input_adapter_character_source@V?$string_input_adapter@D@__crt_stdio_input@@@1@_K@Z@4QBDB 00000001400dc588     libucrt:input.obj
 0002:0003358c       ?inf_lowercase@?1???$parse_floating_point_possible_infinity@DV?$input_adapter_character_source@V?$string_input_adapter@D@__crt_stdio_input@@@__crt_strtox@@_K@__crt_strtox@@YA?AW4floating_point_parse_result@1@AEADAEAV?$input_adapter_character_source@V?$string_input_adapter@D@__crt_stdio_input@@@1@_K@Z@4QBDB 00000001400dc58c     libucrt:input.obj
 0002:00033590       ?inity_uppercase@?1???$parse_floating_point_possible_infinity@DV?$input_adapter_character_source@V?$string_input_adapter@D@__crt_stdio_input@@@__crt_strtox@@_K@__crt_strtox@@YA?AW4floating_point_parse_result@1@AEADAEAV?$input_adapter_character_source@V?$string_input_adapter@D@__crt_stdio_input@@@1@_K@Z@4QBDB 00000001400dc590     libucrt:input.obj
 0002:00033598       ?inity_lowercase@?1???$parse_floating_point_possible_infinity@DV?$input_adapter_character_source@V?$string_input_adapter@D@__crt_stdio_input@@@__crt_strtox@@_K@__crt_strtox@@YA?AW4floating_point_parse_result@1@AEADAEAV?$input_adapter_character_source@V?$string_input_adapter@D@__crt_stdio_input@@@1@_K@Z@4QBDB 00000001400dc598     libucrt:input.obj
 0002:000335a0       ?uppercase@?1???$parse_floating_point_possible_nan@DV?$input_adapter_character_source@V?$string_input_adapter@D@__crt_stdio_input@@@__crt_strtox@@_K@__crt_strtox@@YA?AW4floating_point_parse_result@1@AEADAEAV?$input_adapter_character_source@V?$string_input_adapter@D@__crt_stdio_input@@@1@_K@Z@4QBDB 00000001400dc5a0     libucrt:input.obj
 0002:000335a4       ?lowercase@?1???$parse_floating_point_possible_nan@DV?$input_adapter_character_source@V?$string_input_adapter@D@__crt_stdio_input@@@__crt_strtox@@_K@__crt_strtox@@YA?AW4floating_point_parse_result@1@AEADAEAV?$input_adapter_character_source@V?$string_input_adapter@D@__crt_stdio_input@@@1@_K@Z@4QBDB 00000001400dc5a4     libucrt:input.obj
 0002:000335a8       ?uppercase@?1???$parse_floating_point_possible_nan_is_snan@DV?$input_adapter_character_source@V?$string_input_adapter@D@__crt_stdio_input@@@__crt_strtox@@@__crt_strtox@@YA_NAEADAEAV?$input_adapter_character_source@V?$string_input_adapter@D@__crt_stdio_input@@@1@@Z@4QBDB 00000001400dc5a8     libucrt:input.obj
 0002:000335b0       ?lowercase@?1???$parse_floating_point_possible_nan_is_snan@DV?$input_adapter_character_source@V?$string_input_adapter@D@__crt_stdio_input@@@__crt_strtox@@@__crt_strtox@@YA_NAEADAEAV?$input_adapter_character_source@V?$string_input_adapter@D@__crt_stdio_input@@@1@@Z@4QBDB 00000001400dc5b0     libucrt:input.obj
 0002:000335b8       ?uppercase@?1???$parse_floating_point_possible_nan_is_ind@DV?$input_adapter_character_source@V?$string_input_adapter@D@__crt_stdio_input@@@__crt_strtox@@@__crt_strtox@@YA_NAEADAEAV?$input_adapter_character_source@V?$string_input_adapter@D@__crt_stdio_input@@@1@@Z@4QBDB 00000001400dc5b8     libucrt:input.obj
 0002:000335bc       ?lowercase@?1???$parse_floating_point_possible_nan_is_ind@DV?$input_adapter_character_source@V?$string_input_adapter@D@__crt_stdio_input@@@__crt_strtox@@@__crt_strtox@@YA_NAEADAEAV?$input_adapter_character_source@V?$string_input_adapter@D@__crt_stdio_input@@@1@@Z@4QBDB 00000001400dc5bc     libucrt:input.obj
 0002:000336dc       ??_C@_05OOAOEJGP@fmodf@    00000001400dc6dc     libucrt:fmodf.obj
 0002:000336e4       ??_C@_05KGFAIMPG@sqrtf@    00000001400dc6e4     libucrt:sqrtf.obj
 0002:000336ec       ??_C@_05FFFCHCED@acosf@    00000001400dc6ec     libucrt:acosf.obj
 0002:000336f4       __real@3b81ce6b            00000001400dc6f4     libucrt:acosf.obj
 0002:000336f8       __real@3c91a62633145c07    00000001400dc6f8     libucrt:acosf.obj
 0002:00033700       __real@3d678bdd            00000001400dc700     libucrt:acosf.obj
 0002:00033704       __real@3e3c94dc            00000001400dc704     libucrt:acosf.obj
 0002:00033708       __real@3f561f0d            00000001400dc708     libucrt:acosf.obj
 0002:0003370c       __real@3f8d6fa5            00000001400dc70c     libucrt:acosf.obj
 0002:00033710       __real@3ff921fb54442d18    00000001400dc710     libucrt:acosf.obj
 0002:00033718       __real@400921fb54442d18    00000001400dc718     libucrt:acosf.obj
 0002:00033720       __real@bc5b3fe1            00000001400dc720     libucrt:acosf.obj
 0002:00034620       __newctype                 00000001400dd620     libucrt:ctype.obj
 0002:00034920       __newclmap                 00000001400dd920     libucrt:ctype.obj
 0002:00034aa0       __newcumap                 00000001400ddaa0     libucrt:ctype.obj
 0002:00034c20       _wctype                    00000001400ddc20     libucrt:ctype.obj
 0002:00034e30       __acrt_exception_action_table 00000001400dde30     libucrt:exception_filter.obj
 0002:00034ef0       __acrt_signal_action_table_count 00000001400ddef0     libucrt:exception_filter.obj
 0002:00034ef8       __acrt_signal_action_first_fpe_index 00000001400ddef8     libucrt:exception_filter.obj
 0002:00034f00       __acrt_signal_action_fpe_count 00000001400ddf00     libucrt:exception_filter.obj
 0002:00034f58       ??_C@_1BI@BGOHAHKC@?$AAm?$AAs?$AAc?$AAo?$AAr?$AAe?$AAe?$AA?4?$AAd?$AAl?$AAl@ 00000001400ddf58     libucrt:exit.obj
 0002:00034f70       ??_C@_0P@MIGLKIOC@CorExitProcess@ 00000001400ddf70     libucrt:exit.obj
 0002:00035150       __lc_category              00000001400de150     libucrt:wsetlocale.obj
 0002:000351e0       ??_C@_1O@GIFLHMA@?$AAL?$AAC?$AA_?$AAA?$AAL?$AAL@ 00000001400de1e0     libucrt:wsetlocale.obj
 0002:000351f0       ??_C@_1BG@PPOMIBNJ@?$AAL?$AAC?$AA_?$AAC?$AAO?$AAL?$AAL?$AAA?$AAT?$AAE@ 00000001400de1f0     libucrt:wsetlocale.obj
 0002:00035208       ??_C@_1BC@FFJGAPJM@?$AAL?$AAC?$AA_?$AAC?$AAT?$AAY?$AAP?$AAE@ 00000001400de208     libucrt:wsetlocale.obj
 0002:00035220       ??_C@_1BI@PCKFNJFB@?$AAL?$AAC?$AA_?$AAM?$AAO?$AAN?$AAE?$AAT?$AAA?$AAR?$AAY@ 00000001400de220     libucrt:wsetlocale.obj
 0002:00035238       ??_C@_1BG@ENIEDKID@?$AAL?$AAC?$AA_?$AAN?$AAU?$AAM?$AAE?$AAR?$AAI?$AAC@ 00000001400de238     libucrt:wsetlocale.obj
 0002:00035250       ??_C@_1BA@HAAOMIIG@?$AAL?$AAC?$AA_?$AAT?$AAI?$AAM?$AAE@ 00000001400de250     libucrt:wsetlocale.obj
 0002:00035260       ??_C@_15NBPDDFIP@?$AA?$DN?$AA?$DL@ 00000001400de260     libucrt:wsetlocale.obj
 0002:00035268       ??_C@_13PJJBFPED@?$AA?$DL@ 00000001400de268     libucrt:wsetlocale.obj
 0002:0003526c       ??_C@_13NMPKAAJP@?$AA?$DN@ 00000001400de26c     libucrt:wsetlocale.obj
 0002:00035270       ??_C@_17EFJLDFDO@?$AA?9?$AA_?$AA?4@ 00000001400de270     libucrt:wsetlocale.obj
 0002:00035278       ??_C@_13FHBKNHDA@?$AAC@    00000001400de278     libucrt:wsetlocale.obj
 0002:00035280       ??_C@_17MBJJLFDM@?$AA_?$AA?4?$AA?0@ 00000001400de280     libucrt:wsetlocale.obj
 0002:00035288       ??_C@_13ENNFDPBH@?$AA_@    00000001400de288     libucrt:wsetlocale.obj
 0002:0003528c       ??_C@_13JOFGPIOO@?$AA?4@   00000001400de28c     libucrt:wsetlocale.obj
 0002:00035310       __lc_time_c                00000001400de310     libucrt:nlsdata.obj
 0002:000355d0       ??_C@_03KOEHGMDN@Sun@      00000001400de5d0     libucrt:nlsdata.obj
 0002:000355d4       ??_C@_03PDAGKDH@Mon@       00000001400de5d4     libucrt:nlsdata.obj
 0002:000355d8       ??_C@_03NAGEINEP@Tue@      00000001400de5d8     libucrt:nlsdata.obj
 0002:000355dc       ??_C@_03MHOMLAJA@Wed@      00000001400de5dc     libucrt:nlsdata.obj
 0002:000355e0       ??_C@_03IOFIKPDN@Thu@      00000001400de5e0     libucrt:nlsdata.obj
 0002:000355e4       ??_C@_03IDIOELNC@Fri@      00000001400de5e4     libucrt:nlsdata.obj
 0002:000355e8       ??_C@_03FEFJNEK@Sat@       00000001400de5e8     libucrt:nlsdata.obj
 0002:000355ec       ??_C@_06OOPIFAJ@Sunday@    00000001400de5ec     libucrt:nlsdata.obj
 0002:000355f4       ??_C@_06JLEDEDGH@Monday@   00000001400de5f4     libucrt:nlsdata.obj
 0002:00035600       ??_C@_07BAAGCFCM@Tuesday@  00000001400de600     libucrt:nlsdata.obj
 0002:00035608       ??_C@_09DLIGFAKA@Wednesday@ 00000001400de608     libucrt:nlsdata.obj
 0002:00035618       ??_C@_08HACCIKIA@Thursday@ 00000001400de618     libucrt:nlsdata.obj
 0002:00035624       ??_C@_06JECMNKMI@Friday@   00000001400de624     libucrt:nlsdata.obj
 0002:00035630       ??_C@_08INBOOONO@Saturday@ 00000001400de630     libucrt:nlsdata.obj
 0002:0003563c       ??_C@_03JIHJHPIE@Jan@      00000001400de63c     libucrt:nlsdata.obj
 0002:00035640       ??_C@_03HJBDCHOM@Feb@      00000001400de640     libucrt:nlsdata.obj
 0002:00035644       ??_C@_03ODNJBKGA@Mar@      00000001400de644     libucrt:nlsdata.obj
 0002:00035648       ??_C@_03LEOLGMJP@Apr@      00000001400de648     libucrt:nlsdata.obj
 0002:0003564c       ??_C@_03CNMDKL@May@        00000001400de64c     libucrt:nlsdata.obj
 0002:00035650       ??_C@_03IDFGHECI@Jun@      00000001400de650     libucrt:nlsdata.obj
 0002:00035654       ??_C@_03LBGABGKK@Jul@      00000001400de654     libucrt:nlsdata.obj
 0002:00035658       ??_C@_03IFJFEIGA@Aug@      00000001400de658     libucrt:nlsdata.obj
 0002:0003565c       ??_C@_03GGCAPAJC@Sep@      00000001400de65c     libucrt:nlsdata.obj
 0002:00035660       ??_C@_03BMAOKBAD@Oct@      00000001400de660     libucrt:nlsdata.obj
 0002:00035664       ??_C@_03JPJOFNIA@Nov@      00000001400de664     libucrt:nlsdata.obj
 0002:00035668       ??_C@_03MKABNOCG@Dec@      00000001400de668     libucrt:nlsdata.obj
 0002:00035670       ??_C@_07CGJPFGJA@January@  00000001400de670     libucrt:nlsdata.obj
 0002:00035678       ??_C@_08GNJGEPFN@February@ 00000001400de678     libucrt:nlsdata.obj
 0002:00035684       ??_C@_05HPCKOFNC@March@    00000001400de684     libucrt:nlsdata.obj
 0002:0003568c       ??_C@_05DMJDNLEJ@April@    00000001400de68c     libucrt:nlsdata.obj
 0002:00035694       ??_C@_04CNLMGBGM@June@     00000001400de694     libucrt:nlsdata.obj
 0002:0003569c       ??_C@_04MIEPOIFP@July@     00000001400de69c     libucrt:nlsdata.obj
 0002:000356a4       ??_C@_06LBBHFDDG@August@   00000001400de6a4     libucrt:nlsdata.obj
 0002:000356b0       ??_C@_09BHHEALKD@September@ 00000001400de6b0     libucrt:nlsdata.obj
 0002:000356c0       ??_C@_07JJNFCEND@October@  00000001400de6c0     libucrt:nlsdata.obj
 0002:000356c8       ??_C@_08HCHEGEOA@November@ 00000001400de6c8     libucrt:nlsdata.obj
 0002:000356d8       ??_C@_08EDHMEBNP@December@ 00000001400de6d8     libucrt:nlsdata.obj
 0002:000356e4       ??_C@_02DEDBPAFC@AM@       00000001400de6e4     libucrt:nlsdata.obj
 0002:000356e8       ??_C@_02CJNFDJBF@PM@       00000001400de6e8     libucrt:nlsdata.obj
 0002:000356f0       ??_C@_08BPBNCDIB@MM?1dd?1yy@ 00000001400de6f0     libucrt:nlsdata.obj
 0002:00035700       ??_C@_0BE@CKGJFCPC@dddd?0?5MMMM?5dd?0?5yyyy@ 00000001400de700     libucrt:nlsdata.obj
 0002:00035718       ??_C@_08JCCMCCIL@HH?3mm?3ss@ 00000001400de718     libucrt:nlsdata.obj
 0002:00035728       ??_C@_17MBGCMIPB@?$AAS?$AAu?$AAn@ 00000001400de728     libucrt:nlsdata.obj
 0002:00035730       ??_C@_17KBOMKBF@?$AAM?$AAo?$AAn@ 00000001400de730     libucrt:nlsdata.obj
 0002:00035738       ??_C@_17BMKGEGOJ@?$AAT?$AAu?$AAe@ 00000001400de738     libucrt:nlsdata.obj
 0002:00035740       ??_C@_17CJEDCEPE@?$AAW?$AAe?$AAd@ 00000001400de740     libucrt:nlsdata.obj
 0002:00035748       ??_C@_17PDPHAADD@?$AAT?$AAh?$AAu@ 00000001400de748     libucrt:nlsdata.obj
 0002:00035750       ??_C@_17HFOLPPLP@?$AAF?$AAr?$AAi@ 00000001400de750     libucrt:nlsdata.obj
 0002:00035758       ??_C@_17GGIBDPIH@?$AAS?$AAa?$AAt@ 00000001400de758     libucrt:nlsdata.obj
 0002:00035760       ??_C@_1O@IHNHDHPB@?$AAS?$AAu?$AAn?$AAd?$AAa?$AAy@ 00000001400de760     libucrt:nlsdata.obj
 0002:00035770       ??_C@_1O@MMNBFLIA@?$AAM?$AAo?$AAn?$AAd?$AAa?$AAy@ 00000001400de770     libucrt:nlsdata.obj
 0002:00035780       ??_C@_1BA@ENFBFFEK@?$AAT?$AAu?$AAe?$AAs?$AAd?$AAa?$AAy@ 00000001400de780     libucrt:nlsdata.obj
 0002:00035790       ??_C@_1BE@EBOGMDOH@?$AAW?$AAe?$AAd?$AAn?$AAe?$AAs?$AAd?$AAa?$AAy@ 00000001400de790     libucrt:nlsdata.obj
 0002:000357a8       ??_C@_1BC@HHMNLIHE@?$AAT?$AAh?$AAu?$AAr?$AAs?$AAd?$AAa?$AAy@ 00000001400de7a8     libucrt:nlsdata.obj
 0002:000357c0       ??_C@_1O@PDICJHAG@?$AAF?$AAr?$AAi?$AAd?$AAa?$AAy@ 00000001400de7c0     libucrt:nlsdata.obj
 0002:000357d0       ??_C@_1BC@ENMNNPAJ@?$AAS?$AAa?$AAt?$AAu?$AAr?$AAd?$AAa?$AAy@ 00000001400de7d0     libucrt:nlsdata.obj
 0002:000357e8       ??_C@_17DKNBKCHM@?$AAJ?$AAa?$AAn@ 00000001400de7e8     libucrt:nlsdata.obj
 0002:000357f0       ??_C@_17LMDJEKJN@?$AAF?$AAe?$AAb@ 00000001400de7f0     libucrt:nlsdata.obj
 0002:000357f8       ??_C@_17CKNLEDEC@?$AAM?$AAa?$AAr@ 00000001400de7f8     libucrt:nlsdata.obj
 0002:00035800       ??_C@_17LFPOIHDD@?$AAA?$AAp?$AAr@ 00000001400de800     libucrt:nlsdata.obj
 0002:00035808       ??_C@_17PNNKMEED@?$AAM?$AAa?$AAy@ 00000001400de808     libucrt:nlsdata.obj
 0002:00035810       ??_C@_17KCJGOCPB@?$AAJ?$AAu?$AAn@ 00000001400de810     libucrt:nlsdata.obj
 0002:00035818       ??_C@_17IJPCKHK@?$AAJ?$AAu?$AAl@ 00000001400de818     libucrt:nlsdata.obj
 0002:00035820       ??_C@_17ICPELBCN@?$AAA?$AAu?$AAg@ 00000001400de820     libucrt:nlsdata.obj
 0002:00035828       ??_C@_17HCHCOKMG@?$AAS?$AAe?$AAp@ 00000001400de828     libucrt:nlsdata.obj
 0002:00035830       ??_C@_17FNLKOI@?$AAO?$AAc?$AAt@ 00000001400de830     libucrt:nlsdata.obj
 0002:00035838       ??_C@_17BBDMLCIG@?$AAN?$AAo?$AAv@ 00000001400de838     libucrt:nlsdata.obj
 0002:00035840       ??_C@_17EGKACKIF@?$AAD?$AAe?$AAc@ 00000001400de840     libucrt:nlsdata.obj
 0002:00035848       ??_C@_1BA@EFMEIEBA@?$AAJ?$AAa?$AAn?$AAu?$AAa?$AAr?$AAy@ 00000001400de848     libucrt:nlsdata.obj
 0002:00035858       ??_C@_1BC@JGDDFFAM@?$AAF?$AAe?$AAb?$AAr?$AAu?$AAa?$AAr?$AAy@ 00000001400de858     libucrt:nlsdata.obj
 0002:00035870       ??_C@_1M@IKEENEDF@?$AAM?$AAa?$AAr?$AAc?$AAh@ 00000001400de870     libucrt:nlsdata.obj
 0002:00035880       ??_C@_1M@GJNLMHFD@?$AAA?$AAp?$AAr?$AAi?$AAl@ 00000001400de880     libucrt:nlsdata.obj
 0002:00035890       ??_C@_19EPFLPGAP@?$AAJ?$AAu?$AAn?$AAe@ 00000001400de890     libucrt:nlsdata.obj
 0002:000358a0       ??_C@_19BIFMLPCD@?$AAJ?$AAu?$AAl?$AAy@ 00000001400de8a0     libucrt:nlsdata.obj
 0002:000358b0       ??_C@_1O@PAHLKOAC@?$AAA?$AAu?$AAg?$AAu?$AAs?$AAt@ 00000001400de8b0     libucrt:nlsdata.obj
 0002:000358c0       ??_C@_1BE@DKAAMBJL@?$AAS?$AAe?$AAp?$AAt?$AAe?$AAm?$AAb?$AAe?$AAr@ 00000001400de8c0     libucrt:nlsdata.obj
 0002:000358d8       ??_C@_1BA@EPANDLNG@?$AAO?$AAc?$AAt?$AAo?$AAb?$AAe?$AAr@ 00000001400de8d8     libucrt:nlsdata.obj
 0002:000358e8       ??_C@_1BC@BGLIFPF@?$AAN?$AAo?$AAv?$AAe?$AAm?$AAb?$AAe?$AAr@ 00000001400de8e8     libucrt:nlsdata.obj
 0002:00035900       ??_C@_1BC@FEMKIFH@?$AAD?$AAe?$AAc?$AAe?$AAm?$AAb?$AAe?$AAr@ 00000001400de900     libucrt:nlsdata.obj
 0002:00035914       ??_C@_15ODEHAHHF@?$AAA?$AAM@ 00000001400de914     libucrt:nlsdata.obj
 0002:0003591c       ??_C@_15CLMNNGEL@?$AAP?$AAM@ 00000001400de91c     libucrt:nlsdata.obj
 0002:00035928       ??_C@_1BC@IEBCMHCM@?$AAM?$AAM?$AA?1?$AAd?$AAd?$AA?1?$AAy?$AAy@ 00000001400de928     libucrt:nlsdata.obj
 0002:00035940       ??_C@_1CI@KNAKOEBC@?$AAd?$AAd?$AAd?$AAd?$AA?0?$AA?5?$AAM?$AAM?$AAM?$AAM?$AA?5?$AAd?$AAd?$AA?0?$AA?5@ 00000001400de940     libucrt:nlsdata.obj
 0002:00035968       ??_C@_1BC@GDGBMEMK@?$AAH?$AAH?$AA?3?$AAm?$AAm?$AA?3?$AAs?$AAs@ 00000001400de968     libucrt:nlsdata.obj
 0002:00035980       ??_C@_1M@BMHNFIME@?$AAe?$AAn?$AA?9?$AAU?$AAS@ 00000001400de980     libucrt:nlsdata.obj
 0002:00035a10       ??_C@_03OEIAHPBN@INF@      00000001400dea10     libucrt:cvt.obj
 0002:00035a14       ??_C@_03LKNCIKJB@NAN@      00000001400dea14     libucrt:cvt.obj
 0002:00035a18       ??_C@_09OFJJIMPC@NAN?$CISNAN?$CJ@ 00000001400dea18     libucrt:cvt.obj
 0002:00035a28       ??_C@_08IKHNHAJ@NAN?$CIIND?$CJ@ 00000001400dea28     libucrt:cvt.obj
 0002:00035a34       ??_C@_05KLBDPFGC@e?$CL000@ 00000001400dea34     libucrt:cvt.obj
 0002:00035a3c       ?ccs@?1???$__acrt_stdio_parse_mode@D@@YA?AU__acrt_stdio_stream_mode@@QEBD@Z@4QBDB 00000001400dea3c     libucrt:openfile.obj
 0002:00035a40       ?utf8_encoding@?1???$__acrt_stdio_parse_mode@D@@YA?AU__acrt_stdio_stream_mode@@QEBD@Z@4QBDB 00000001400dea40     libucrt:openfile.obj
 0002:00035a48       ?utf16_encoding@?1???$__acrt_stdio_parse_mode@D@@YA?AU__acrt_stdio_stream_mode@@QEBD@Z@4QBDB 00000001400dea48     libucrt:openfile.obj
 0002:00035a50       ?unicode_encoding@?1???$__acrt_stdio_parse_mode@D@@YA?AU__acrt_stdio_stream_mode@@QEBD@Z@4QBDB 00000001400dea50     libucrt:openfile.obj
 0002:00035a58       ?ccs@?1???$__acrt_stdio_parse_mode@_W@@YA?AU__acrt_stdio_stream_mode@@QEB_W@Z@4QB_WB 00000001400dea58     libucrt:openfile.obj
 0002:00035a60       ?utf8_encoding@?1???$__acrt_stdio_parse_mode@_W@@YA?AU__acrt_stdio_stream_mode@@QEB_W@Z@4QB_WB 00000001400dea60     libucrt:openfile.obj
 0002:00035a70       ?utf16_encoding@?1???$__acrt_stdio_parse_mode@_W@@YA?AU__acrt_stdio_stream_mode@@QEB_W@Z@4QB_WB 00000001400dea70     libucrt:openfile.obj
 0002:00035a80       ?unicode_encoding@?1???$__acrt_stdio_parse_mode@_W@@YA?AU__acrt_stdio_stream_mode@@QEB_W@Z@4QB_WB 00000001400dea80     libucrt:openfile.obj
 0002:00035b80       ??_C@_1EA@JGEFHKEI@?$AAa?$AAp?$AAi?$AA?9?$AAm?$AAs?$AA?9?$AAw?$AAi?$AAn?$AA?9?$AAc?$AAo?$AAr?$AAe@ 00000001400deb80     libucrt:winapi_thunks.obj
 0002:00035bc0       ??_C@_1DM@LFJCLCKP@?$AAa?$AAp?$AAi?$AA?9?$AAm?$AAs?$AA?9?$AAw?$AAi?$AAn?$AA?9?$AAc?$AAo?$AAr?$AAe@ 00000001400debc0     libucrt:winapi_thunks.obj
 0002:00035c00       ??_C@_1DI@KMEPCBPN@?$AAa?$AAp?$AAi?$AA?9?$AAm?$AAs?$AA?9?$AAw?$AAi?$AAn?$AA?9?$AAc?$AAo?$AAr?$AAe@ 00000001400dec00     libucrt:winapi_thunks.obj
 0002:00035c38       ??_C@_1DI@IJCEHOCB@?$AAa?$AAp?$AAi?$AA?9?$AAm?$AAs?$AA?9?$AAw?$AAi?$AAn?$AA?9?$AAc?$AAo?$AAr?$AAe@ 00000001400dec38     libucrt:winapi_thunks.obj
 0002:00035c70       ??_C@_1DI@FFFOPEOO@?$AAa?$AAp?$AAi?$AA?9?$AAm?$AAs?$AA?9?$AAw?$AAi?$AAn?$AA?9?$AAc?$AAo?$AAr?$AAe@ 00000001400dec70     libucrt:winapi_thunks.obj
 0002:00035cb0       ??_C@_1EI@MPIAOHOC@?$AAa?$AAp?$AAi?$AA?9?$AAm?$AAs?$AA?9?$AAw?$AAi?$AAn?$AA?9?$AAc?$AAo?$AAr?$AAe@ 00000001400decb0     libucrt:winapi_thunks.obj
 0002:00035d00       ??_C@_1FK@FPHCKFIE@?$AAa?$AAp?$AAi?$AA?9?$AAm?$AAs?$AA?9?$AAw?$AAi?$AAn?$AA?9?$AAc?$AAo?$AAr?$AAe@ 00000001400ded00     libucrt:winapi_thunks.obj
 0002:00035d60       ??_C@_1EM@DILCGIIO@?$AAa?$AAp?$AAi?$AA?9?$AAm?$AAs?$AA?9?$AAw?$AAi?$AAn?$AA?9?$AAc?$AAo?$AAr?$AAe@ 00000001400ded60     libucrt:winapi_thunks.obj
 0002:00035db0       ??_C@_1DM@LNCGDDPN@?$AAa?$AAp?$AAi?$AA?9?$AAm?$AAs?$AA?9?$AAw?$AAi?$AAn?$AA?9?$AAc?$AAo?$AAr?$AAe@ 00000001400dedb0     libucrt:winapi_thunks.obj
 0002:00035df0       ??_C@_1DO@FPAPJEMD@?$AAa?$AAp?$AAi?$AA?9?$AAm?$AAs?$AA?9?$AAw?$AAi?$AAn?$AA?9?$AAc?$AAo?$AAr?$AAe@ 00000001400dedf0     libucrt:winapi_thunks.obj
 0002:00035e30       ??_C@_1DK@NDHNAHIO@?$AAa?$AAp?$AAi?$AA?9?$AAm?$AAs?$AA?9?$AAw?$AAi?$AAn?$AA?9?$AAc?$AAo?$AAr?$AAe@ 00000001400dee30     libucrt:winapi_thunks.obj
 0002:00035e70       ??_C@_1DM@KGHDGBCM@?$AAa?$AAp?$AAi?$AA?9?$AAm?$AAs?$AA?9?$AAw?$AAi?$AAn?$AA?9?$AAc?$AAo?$AAr?$AAe@ 00000001400dee70     libucrt:winapi_thunks.obj
 0002:00035eb0       ??_C@_1EO@IJIOEFOH@?$AAa?$AAp?$AAi?$AA?9?$AAm?$AAs?$AA?9?$AAw?$AAi?$AAn?$AA?9?$AAr?$AAt?$AAc?$AAo@ 00000001400deeb0     libucrt:winapi_thunks.obj
 0002:00035f00       ??_C@_1FG@HHGEKANL@?$AAa?$AAp?$AAi?$AA?9?$AAm?$AAs?$AA?9?$AAw?$AAi?$AAn?$AA?9?$AAs?$AAe?$AAc?$AAu@ 00000001400def00     libucrt:winapi_thunks.obj
 0002:00035f60       ??_C@_1EG@DBIOJECG@?$AAe?$AAx?$AAt?$AA?9?$AAm?$AAs?$AA?9?$AAw?$AAi?$AAn?$AA?9?$AAn?$AAt?$AAu?$AAs@ 00000001400def60     libucrt:winapi_thunks.obj
 0002:00035fb0       ??_C@_1EO@FIHMJCLF@?$AAe?$AAx?$AAt?$AA?9?$AAm?$AAs?$AA?9?$AAw?$AAi?$AAn?$AA?9?$AAn?$AAt?$AAu?$AAs@ 00000001400defb0     libucrt:winapi_thunks.obj
 0002:00036000       ??_C@_1BC@DNHGCMLG@?$AAa?$AAd?$AAv?$AAa?$AAp?$AAi?$AA3?$AA2@ 00000001400df000     libucrt:winapi_thunks.obj
 0002:00036018       ??_C@_1BG@CJPGBMEF@?$AAk?$AAe?$AAr?$AAn?$AAe?$AAl?$AAb?$AAa?$AAs?$AAe@ 00000001400df018     libucrt:winapi_thunks.obj
 0002:00036030       ??_C@_1M@OAIMIKLP@?$AAn?$AAt?$AAd?$AAl?$AAl@ 00000001400df030     libucrt:winapi_thunks.obj
 0002:00036040       ??_C@_1EG@DPGNFKGC@?$AAa?$AAp?$AAi?$AA?9?$AAm?$AAs?$AA?9?$AAw?$AAi?$AAn?$AA?9?$AAa?$AAp?$AAp?$AAm@ 00000001400df040     libucrt:winapi_thunks.obj
 0002:00036088       ??_C@_1O@BCCLBEOE@?$AAu?$AAs?$AAe?$AAr?$AA3?$AA2@ 00000001400df088     libucrt:winapi_thunks.obj
 0002:00036098       ??_C@_1BA@IAIFMGEF@?$AAe?$AAx?$AAt?$AA?9?$AAm?$AAs?$AA?9@ 00000001400df098     libucrt:winapi_thunks.obj
 0002:000360b0       ??_C@_0BA@FHFNEAED@AreFileApisANSI@ 00000001400df0b0     libucrt:winapi_thunks.obj
 0002:000360c8       ??_C@_0BA@IHGNDAEB@CompareStringEx@ 00000001400df0c8     libucrt:winapi_thunks.obj
 0002:000360e0       ??_C@_0BE@LJANKFHF@EnumSystemLocalesEx@ 00000001400df0e0     libucrt:winapi_thunks.obj
 0002:00036100       ??_C@_0N@MFBBDCAC@FlsGetValue2@ 00000001400df100     libucrt:winapi_thunks.obj
 0002:00036118       ??_C@_0BA@EPCJIIPD@GetDateFormatEx@ 00000001400df118     libucrt:winapi_thunks.obj
 0002:00036130       ??_C@_0BA@ONOKGCMP@GetLocaleInfoEx@ 00000001400df130     libucrt:winapi_thunks.obj
 0002:00036148       ??_C@_0BA@CIJJKCJJ@GetTimeFormatEx@ 00000001400df148     libucrt:winapi_thunks.obj
 0002:00036160       ??_C@_0BJ@PBCCBIPI@GetUserDefaultLocaleName@ 00000001400df160     libucrt:winapi_thunks.obj
 0002:00036188       ??_C@_0BC@CELBKLLA@IsValidLocaleName@ 00000001400df188     libucrt:winapi_thunks.obj
 0002:000361a8       ??_C@_0O@KKBNKAPF@LCMapStringEx@ 00000001400df1a8     libucrt:winapi_thunks.obj
 0002:000361c0       ??_C@_0BB@CDHDDLLP@LCIDToLocaleName@ 00000001400df1c0     libucrt:winapi_thunks.obj
 0002:000361e0       ??_C@_0BB@HBDEELFH@LocaleNameToLCID@ 00000001400df1e0     libucrt:winapi_thunks.obj
 0002:000361f8       ??_C@_0CF@OJOFEIGO@AppPolicyGetProcessTerminationM@ 00000001400df1f8     libucrt:winapi_thunks.obj
 0002:00036390       ??_C@_04LAGPAAHP@sinf@     00000001400df390     libucrt:sincos_special.obj
 0002:00036398       ??_C@_04OBBKPIAC@cosf@     00000001400df398     libucrt:sincos_special.obj
 0002:000363a0       __Lcosfarray               00000001400df3a0     libucrt:lsincosf_array.obj
 0002:000363d0       __Lsinfarray               00000001400df3d0     libucrt:lsincosf_array.obj
 0002:00036430       __L_2_by_pi_bits           00000001400df430     libucrt:l2_by_pi_bits.obj
 0002:00036580       __log_256_lead             00000001400df580     libucrt:log_256_lead_tail_table.obj
 0002:00036d90       __log_256_tail             00000001400dfd90     libucrt:log_256_lead_tail_table.obj
 0002:000375a0       __log_F_inv_qword          00000001400e05a0     libucrt:log_f_inv_qword_table.obj
 0002:00037db0       ??_C@_05HGHHAHAP@log10@    00000001400e0db0     libucrt:log_special.obj
 0002:00037dc0       __log_128_lead             00000001400e0dc0     libucrt:log_128_lead_tail_table.obj
 0002:00037fd0       __log_128_tail             00000001400e0fd0     libucrt:log_128_lead_tail_table.obj
 0002:000381e0       __log_F_inv_dword          00000001400e11e0     libucrt:log_f_inv_dword_table.obj
 0002:000383f0       __two_to_jby64_table       00000001400e13f0     libucrt:two_to_jby64_table.obj
 0002:00038638       ??_C@_1M@HPNHIDJI@?$AAj?$AAa?$AA?9?$AAJ?$AAP@ 00000001400e1638     libucrt:mbctype.obj
 0002:00038648       ??_C@_1M@BIBDDEMK@?$AAz?$AAh?$AA?9?$AAC?$AAN@ 00000001400e1648     libucrt:mbctype.obj
 0002:00038658       ??_C@_1M@JLOOOEGK@?$AAk?$AAo?$AA?9?$AAK?$AAR@ 00000001400e1658     libucrt:mbctype.obj
 0002:00038668       ??_C@_1M@CLNBBOPM@?$AAz?$AAh?$AA?9?$AAT?$AAW@ 00000001400e1668     libucrt:mbctype.obj
 0002:00038680       __acrt_rg_language         00000001400e1680     libucrt:get_qualified_locale.obj
 0002:00038a90       __acrt_rg_language_count   00000001400e1a90     libucrt:get_qualified_locale.obj
 0002:00038aa0       __acrt_rg_country          00000001400e1aa0     libucrt:get_qualified_locale.obj
 0002:00038c10       __acrt_rg_country_count    00000001400e1c10     libucrt:get_qualified_locale.obj
 0002:00038c18       ??_C@_1BC@LLOKLNP@?$AAa?$AAm?$AAe?$AAr?$AAi?$AAc?$AAa?$AAn@ 00000001400e1c18     libucrt:get_qualified_locale.obj
 0002:00038c30       ??_C@_1CC@HEIGCDGG@?$AAa?$AAm?$AAe?$AAr?$AAi?$AAc?$AAa?$AAn?$AA?5?$AAe?$AAn?$AAg?$AAl?$AAi?$AAs@ 00000001400e1c30     libucrt:get_qualified_locale.obj
 0002:00038c58       ??_C@_1CC@IHCNOMIN@?$AAa?$AAm?$AAe?$AAr?$AAi?$AAc?$AAa?$AAn?$AA?9?$AAe?$AAn?$AAg?$AAl?$AAi?$AAs@ 00000001400e1c58     libucrt:get_qualified_locale.obj
 0002:00038c80       ??_C@_1BG@GKAGPCGG@?$AAa?$AAu?$AAs?$AAt?$AAr?$AAa?$AAl?$AAi?$AAa?$AAn@ 00000001400e1c80     libucrt:get_qualified_locale.obj
 0002:00038c98       ??_C@_1BA@GMENCENF@?$AAb?$AAe?$AAl?$AAg?$AAi?$AAa?$AAn@ 00000001400e1c98     libucrt:get_qualified_locale.obj
 0002:00038ca8       ??_C@_1BC@PJMIIAAN@?$AAc?$AAa?$AAn?$AAa?$AAd?$AAi?$AAa?$AAn@ 00000001400e1ca8     libucrt:get_qualified_locale.obj
 0002:00038cc0       ??_C@_17NOIMNFBF@?$AAc?$AAh?$AAh@ 00000001400e1cc0     libucrt:get_qualified_locale.obj
 0002:00038cc8       ??_C@_17GGDALCHA@?$AAc?$AAh?$AAi@ 00000001400e1cc8     libucrt:get_qualified_locale.obj
 0002:00038cd0       ??_C@_1BA@NPNJKIBL@?$AAc?$AAh?$AAi?$AAn?$AAe?$AAs?$AAe@ 00000001400e1cd0     libucrt:get_qualified_locale.obj
 0002:00038ce0       ??_C@_1CC@DINBAMMJ@?$AAc?$AAh?$AAi?$AAn?$AAe?$AAs?$AAe?$AA?9?$AAh?$AAo?$AAn?$AAg?$AAk?$AAo?$AAn@ 00000001400e1ce0     libucrt:get_qualified_locale.obj
 0002:00038d08       ??_C@_1CG@IOBJPACO@?$AAc?$AAh?$AAi?$AAn?$AAe?$AAs?$AAe?$AA?9?$AAs?$AAi?$AAm?$AAp?$AAl?$AAi?$AAf@ 00000001400e1d08     libucrt:get_qualified_locale.obj
 0002:00038d30       ??_C@_1CE@GAJNDCKG@?$AAc?$AAh?$AAi?$AAn?$AAe?$AAs?$AAe?$AA?9?$AAs?$AAi?$AAn?$AAg?$AAa?$AAp?$AAo@ 00000001400e1d30     libucrt:get_qualified_locale.obj
 0002:00038d58       ??_C@_1CI@PAJPIOOD@?$AAc?$AAh?$AAi?$AAn?$AAe?$AAs?$AAe?$AA?9?$AAt?$AAr?$AAa?$AAd?$AAi?$AAt?$AAi@ 00000001400e1d58     libucrt:get_qualified_locale.obj
 0002:00038d80       ??_C@_1BM@NILJBMMD@?$AAd?$AAu?$AAt?$AAc?$AAh?$AA?9?$AAb?$AAe?$AAl?$AAg?$AAi?$AAa?$AAn@ 00000001400e1d80     libucrt:get_qualified_locale.obj
 0002:00038da0       ??_C@_1CC@OOJPJNEJ@?$AAe?$AAn?$AAg?$AAl?$AAi?$AAs?$AAh?$AA?9?$AAa?$AAm?$AAe?$AAr?$AAi?$AAc?$AAa@ 00000001400e1da0     libucrt:get_qualified_locale.obj
 0002:00038dc8       ??_C@_1BI@IOLFEEM@?$AAe?$AAn?$AAg?$AAl?$AAi?$AAs?$AAh?$AA?9?$AAa?$AAu?$AAs@ 00000001400e1dc8     libucrt:get_qualified_locale.obj
 0002:00038de0       ??_C@_1BO@HFFNLENJ@?$AAe?$AAn?$AAg?$AAl?$AAi?$AAs?$AAh?$AA?9?$AAb?$AAe?$AAl?$AAi?$AAz?$AAe@ 00000001400e1de0     libucrt:get_qualified_locale.obj
 0002:00038e00       ??_C@_1BI@HAPKJMPO@?$AAe?$AAn?$AAg?$AAl?$AAi?$AAs?$AAh?$AA?9?$AAc?$AAa?$AAn@ 00000001400e1e00     libucrt:get_qualified_locale.obj
 0002:00038e18       ??_C@_1CE@HLNDMIOJ@?$AAe?$AAn?$AAg?$AAl?$AAi?$AAs?$AAh?$AA?9?$AAc?$AAa?$AAr?$AAi?$AAb?$AAb?$AAe@ 00000001400e1e18     libucrt:get_qualified_locale.obj
 0002:00038e40       ??_C@_1BI@LDHJHHAC@?$AAe?$AAn?$AAg?$AAl?$AAi?$AAs?$AAh?$AA?9?$AAi?$AAr?$AAe@ 00000001400e1e40     libucrt:get_qualified_locale.obj
 0002:00038e58       ??_C@_1CA@NJMMCFOC@?$AAe?$AAn?$AAg?$AAl?$AAi?$AAs?$AAh?$AA?9?$AAj?$AAa?$AAm?$AAa?$AAi?$AAc?$AAa@ 00000001400e1e58     libucrt:get_qualified_locale.obj
 0002:00038e78       ??_C@_1BG@BHJEBBGG@?$AAe?$AAn?$AAg?$AAl?$AAi?$AAs?$AAh?$AA?9?$AAn?$AAz@ 00000001400e1e78     libucrt:get_qualified_locale.obj
 0002:00038e90       ??_C@_1CK@FGOEJJCO@?$AAe?$AAn?$AAg?$AAl?$AAi?$AAs?$AAh?$AA?9?$AAs?$AAo?$AAu?$AAt?$AAh?$AA?5?$AAa@ 00000001400e1e90     libucrt:get_qualified_locale.obj
 0002:00038ec0       ??_C@_1DE@PDBJPCJ@?$AAe?$AAn?$AAg?$AAl?$AAi?$AAs?$AAh?$AA?9?$AAt?$AAr?$AAi?$AAn?$AAi?$AAd?$AAa@ 00000001400e1ec0     libucrt:get_qualified_locale.obj
 0002:00038ef8       ??_C@_1BG@JGCANDME@?$AAe?$AAn?$AAg?$AAl?$AAi?$AAs?$AAh?$AA?9?$AAu?$AAk@ 00000001400e1ef8     libucrt:get_qualified_locale.obj
 0002:00038f10       ??_C@_1BG@DINKMLE@?$AAe?$AAn?$AAg?$AAl?$AAi?$AAs?$AAh?$AA?9?$AAu?$AAs@ 00000001400e1f10     libucrt:get_qualified_locale.obj
 0002:00038f28       ??_C@_1BI@NMFDBHJE@?$AAe?$AAn?$AAg?$AAl?$AAi?$AAs?$AAh?$AA?9?$AAu?$AAs?$AAa@ 00000001400e1f28     libucrt:get_qualified_locale.obj
 0002:00038f40       ??_C@_1BO@OIHKJKII@?$AAf?$AAr?$AAe?$AAn?$AAc?$AAh?$AA?9?$AAb?$AAe?$AAl?$AAg?$AAi?$AAa?$AAn@ 00000001400e1f40     libucrt:get_qualified_locale.obj
 0002:00038f60       ??_C@_1CA@NKAELJKI@?$AAf?$AAr?$AAe?$AAn?$AAc?$AAh?$AA?9?$AAc?$AAa?$AAn?$AAa?$AAd?$AAi?$AAa?$AAn@ 00000001400e1f60     libucrt:get_qualified_locale.obj
 0002:00038f80       ??_C@_1CE@MGKCNLGN@?$AAf?$AAr?$AAe?$AAn?$AAc?$AAh?$AA?9?$AAl?$AAu?$AAx?$AAe?$AAm?$AAb?$AAo?$AAu@ 00000001400e1f80     libucrt:get_qualified_locale.obj
 0002:00038fa8       ??_C@_1BK@CEGEAILM@?$AAf?$AAr?$AAe?$AAn?$AAc?$AAh?$AA?9?$AAs?$AAw?$AAi?$AAs?$AAs@ 00000001400e1fa8     libucrt:get_qualified_locale.obj
 0002:00038fc8       ??_C@_1CA@PAFKEOCC@?$AAg?$AAe?$AAr?$AAm?$AAa?$AAn?$AA?9?$AAa?$AAu?$AAs?$AAt?$AAr?$AAi?$AAa?$AAn@ 00000001400e1fc8     libucrt:get_qualified_locale.obj
 0002:00038fe8       ??_C@_1CI@HCFHGOFD@?$AAg?$AAe?$AAr?$AAm?$AAa?$AAn?$AA?9?$AAl?$AAi?$AAc?$AAh?$AAt?$AAe?$AAn?$AAs@ 00000001400e1fe8     libucrt:get_qualified_locale.obj
 0002:00039010       ??_C@_1CE@FEDDNPDG@?$AAg?$AAe?$AAr?$AAm?$AAa?$AAn?$AA?9?$AAl?$AAu?$AAx?$AAe?$AAm?$AAb?$AAo?$AAu@ 00000001400e2010     libucrt:get_qualified_locale.obj
 0002:00039038       ??_C@_1BK@LIMINNMN@?$AAg?$AAe?$AAr?$AAm?$AAa?$AAn?$AA?9?$AAs?$AAw?$AAi?$AAs?$AAs@ 00000001400e2038     libucrt:get_qualified_locale.obj
 0002:00039058       ??_C@_1BM@LGMDBEPD@?$AAi?$AAr?$AAi?$AAs?$AAh?$AA?9?$AAe?$AAn?$AAg?$AAl?$AAi?$AAs?$AAh@ 00000001400e2058     libucrt:get_qualified_locale.obj
 0002:00039078       ??_C@_1BM@NNCFBAEE@?$AAi?$AAt?$AAa?$AAl?$AAi?$AAa?$AAn?$AA?9?$AAs?$AAw?$AAi?$AAs?$AAs@ 00000001400e2078     libucrt:get_qualified_locale.obj
 0002:00039098       ??_C@_1BE@FEDJNPIB@?$AAn?$AAo?$AAr?$AAw?$AAe?$AAg?$AAi?$AAa?$AAn@ 00000001400e2098     libucrt:get_qualified_locale.obj
 0002:000390b0       ??_C@_1CC@CILKDEIE@?$AAn?$AAo?$AAr?$AAw?$AAe?$AAg?$AAi?$AAa?$AAn?$AA?9?$AAb?$AAo?$AAk?$AAm?$AAa@ 00000001400e20b0     libucrt:get_qualified_locale.obj
 0002:000390d8       ??_C@_1CE@DHMMHEPL@?$AAn?$AAo?$AAr?$AAw?$AAe?$AAg?$AAi?$AAa?$AAn?$AA?9?$AAn?$AAy?$AAn?$AAo?$AAr@ 00000001400e20d8     libucrt:get_qualified_locale.obj
 0002:00039100       ??_C@_1CK@OPNMHECD@?$AAp?$AAo?$AAr?$AAt?$AAu?$AAg?$AAu?$AAe?$AAs?$AAe?$AA?9?$AAb?$AAr?$AAa?$AAz@ 00000001400e2100     libucrt:get_qualified_locale.obj
 0002:00039130       ??_C@_1CE@KEEHCDB@?$AAs?$AAp?$AAa?$AAn?$AAi?$AAs?$AAh?$AA?9?$AAa?$AAr?$AAg?$AAe?$AAn?$AAt?$AAi@ 00000001400e2130     libucrt:get_qualified_locale.obj
 0002:00039158       ??_C@_1CA@GIAOLHJD@?$AAs?$AAp?$AAa?$AAn?$AAi?$AAs?$AAh?$AA?9?$AAb?$AAo?$AAl?$AAi?$AAv?$AAi?$AAa@ 00000001400e2158     libucrt:get_qualified_locale.obj
 0002:00039178       ??_C@_1BM@OJNDFNPD@?$AAs?$AAp?$AAa?$AAn?$AAi?$AAs?$AAh?$AA?9?$AAc?$AAh?$AAi?$AAl?$AAe@ 00000001400e2178     libucrt:get_qualified_locale.obj
 0002:00039198       ??_C@_1CC@OCOLPALL@?$AAs?$AAp?$AAa?$AAn?$AAi?$AAs?$AAh?$AA?9?$AAc?$AAo?$AAl?$AAo?$AAm?$AAb?$AAi@ 00000001400e2198     libucrt:get_qualified_locale.obj
 0002:000391c0       ??_C@_1CG@BPOFMKBB@?$AAs?$AAp?$AAa?$AAn?$AAi?$AAs?$AAh?$AA?9?$AAc?$AAo?$AAs?$AAt?$AAa?$AA?5?$AAr@ 00000001400e21c0     libucrt:get_qualified_locale.obj
 0002:000391e8       ??_C@_1DG@IGOBAPBB@?$AAs?$AAp?$AAa?$AAn?$AAi?$AAs?$AAh?$AA?9?$AAd?$AAo?$AAm?$AAi?$AAn?$AAi?$AAc@ 00000001400e21e8     libucrt:get_qualified_locale.obj
 0002:00039220       ??_C@_1CA@JHAPGEGI@?$AAs?$AAp?$AAa?$AAn?$AAi?$AAs?$AAh?$AA?9?$AAe?$AAc?$AAu?$AAa?$AAd?$AAo?$AAr@ 00000001400e2220     libucrt:get_qualified_locale.obj
 0002:00039240       ??_C@_1CI@LAPALJPP@?$AAs?$AAp?$AAa?$AAn?$AAi?$AAs?$AAh?$AA?9?$AAe?$AAl?$AA?5?$AAs?$AAa?$AAl?$AAv@ 00000001400e2240     libucrt:get_qualified_locale.obj
 0002:00039268       ??_C@_1CE@PDGBOFOM@?$AAs?$AAp?$AAa?$AAn?$AAi?$AAs?$AAh?$AA?9?$AAg?$AAu?$AAa?$AAt?$AAe?$AAm?$AAa@ 00000001400e2268     libucrt:get_qualified_locale.obj
 0002:00039290       ??_C@_1CC@NBEBAODI@?$AAs?$AAp?$AAa?$AAn?$AAi?$AAs?$AAh?$AA?9?$AAh?$AAo?$AAn?$AAd?$AAu?$AAr?$AAa@ 00000001400e2290     libucrt:get_qualified_locale.obj
 0002:000392b8       ??_C@_1CA@LLKGHBMF@?$AAs?$AAp?$AAa?$AAn?$AAi?$AAs?$AAh?$AA?9?$AAm?$AAe?$AAx?$AAi?$AAc?$AAa?$AAn@ 00000001400e22b8     libucrt:get_qualified_locale.obj
 0002:000392d8       ??_C@_1BO@LKNDOIGD@?$AAs?$AAp?$AAa?$AAn?$AAi?$AAs?$AAh?$AA?9?$AAm?$AAo?$AAd?$AAe?$AAr?$AAn@ 00000001400e22d8     libucrt:get_qualified_locale.obj
 0002:000392f8       ??_C@_1CE@NMDMOEEB@?$AAs?$AAp?$AAa?$AAn?$AAi?$AAs?$AAh?$AA?9?$AAn?$AAi?$AAc?$AAa?$AAr?$AAa?$AAg@ 00000001400e22f8     libucrt:get_qualified_locale.obj
 0002:00039320       ??_C@_1BO@LLCBEJGB@?$AAs?$AAp?$AAa?$AAn?$AAi?$AAs?$AAh?$AA?9?$AAp?$AAa?$AAn?$AAa?$AAm?$AAa@ 00000001400e2320     libucrt:get_qualified_locale.obj
 0002:00039340       ??_C@_1CC@FKPGGIHO@?$AAs?$AAp?$AAa?$AAn?$AAi?$AAs?$AAh?$AA?9?$AAp?$AAa?$AAr?$AAa?$AAg?$AAu?$AAa@ 00000001400e2340     libucrt:get_qualified_locale.obj
 0002:00039368       ??_C@_1BK@CDEIHOOP@?$AAs?$AAp?$AAa?$AAn?$AAi?$AAs?$AAh?$AA?9?$AAp?$AAe?$AAr?$AAu@ 00000001400e2368     libucrt:get_qualified_locale.obj
 0002:00039388       ??_C@_1CI@GAHAKKGP@?$AAs?$AAp?$AAa?$AAn?$AAi?$AAs?$AAh?$AA?9?$AAp?$AAu?$AAe?$AAr?$AAt?$AAo?$AA?5@ 00000001400e2388     libucrt:get_qualified_locale.obj
 0002:000393b0       ??_C@_1CA@NKJBCAGP@?$AAs?$AAp?$AAa?$AAn?$AAi?$AAs?$AAh?$AA?9?$AAu?$AAr?$AAu?$AAg?$AAu?$AAa?$AAy@ 00000001400e23b0     libucrt:get_qualified_locale.obj
 0002:000393d0       ??_C@_1CE@ODILCONM@?$AAs?$AAp?$AAa?$AAn?$AAi?$AAs?$AAh?$AA?9?$AAv?$AAe?$AAn?$AAe?$AAz?$AAu?$AAe@ 00000001400e23d0     libucrt:get_qualified_locale.obj
 0002:000393f8       ??_C@_1CA@OBNMCGFO@?$AAs?$AAw?$AAe?$AAd?$AAi?$AAs?$AAh?$AA?9?$AAf?$AAi?$AAn?$AAl?$AAa?$AAn?$AAd@ 00000001400e23f8     libucrt:get_qualified_locale.obj
 0002:00039418       ??_C@_1M@PIPDDPPI@?$AAs?$AAw?$AAi?$AAs?$AAs@ 00000001400e2418     libucrt:get_qualified_locale.obj
 0002:00039424       ??_C@_15PJPFLCCM@?$AAu?$AAk@ 00000001400e2424     libucrt:get_qualified_locale.obj
 0002:0003942c       ??_C@_15GMFIMNFM@?$AAu?$AAs@ 00000001400e242c     libucrt:get_qualified_locale.obj
 0002:00039438       ??_C@_17HAEBFAGL@?$AAu?$AAs?$AAa@ 00000001400e2438     libucrt:get_qualified_locale.obj
 0002:00039440       ??_C@_1BA@DPFJEPHB@?$AAa?$AAm?$AAe?$AAr?$AAi?$AAc?$AAa@ 00000001400e2440     libucrt:get_qualified_locale.obj
 0002:00039450       ??_C@_1BA@ELOGGFK@?$AAb?$AAr?$AAi?$AAt?$AAa?$AAi?$AAn@ 00000001400e2450     libucrt:get_qualified_locale.obj
 0002:00039460       ??_C@_1M@GHBGIGDA@?$AAc?$AAh?$AAi?$AAn?$AAa@ 00000001400e2460     libucrt:get_qualified_locale.obj
 0002:00039470       ??_C@_1M@NCHEJOPO@?$AAc?$AAz?$AAe?$AAc?$AAh@ 00000001400e2470     libucrt:get_qualified_locale.obj
 0002:00039480       ??_C@_1BA@BKPAPBLA@?$AAe?$AAn?$AAg?$AAl?$AAa?$AAn?$AAd@ 00000001400e2480     libucrt:get_qualified_locale.obj
 0002:00039490       ??_C@_1BM@HKBCKIPC@?$AAg?$AAr?$AAe?$AAa?$AAt?$AA?5?$AAb?$AAr?$AAi?$AAt?$AAa?$AAi?$AAn@ 00000001400e2490     libucrt:get_qualified_locale.obj
 0002:000394b0       ??_C@_1BA@PPCHPGJB@?$AAh?$AAo?$AAl?$AAl?$AAa?$AAn?$AAd@ 00000001400e24b0     libucrt:get_qualified_locale.obj
 0002:000394c0       ??_C@_1BE@JBMPEGDG@?$AAh?$AAo?$AAn?$AAg?$AA?9?$AAk?$AAo?$AAn?$AAg@ 00000001400e24c0     libucrt:get_qualified_locale.obj
 0002:000394d8       ??_C@_1BI@KOELBBPJ@?$AAn?$AAe?$AAw?$AA?9?$AAz?$AAe?$AAa?$AAl?$AAa?$AAn?$AAd@ 00000001400e24d8     libucrt:get_qualified_locale.obj
 0002:000394f0       ??_C@_15HIEBHAIO@?$AAn?$AAz@ 00000001400e24f0     libucrt:get_qualified_locale.obj
 0002:000394f8       ??_C@_1BC@CHBCPFPI@?$AAp?$AAr?$AA?5?$AAc?$AAh?$AAi?$AAn?$AAa@ 00000001400e24f8     libucrt:get_qualified_locale.obj
 0002:00039510       ??_C@_1BC@JAOIIFKD@?$AAp?$AAr?$AA?9?$AAc?$AAh?$AAi?$AAn?$AAa@ 00000001400e2510     libucrt:get_qualified_locale.obj
 0002:00039528       ??_C@_1BI@BEHPPHKC@?$AAp?$AAu?$AAe?$AAr?$AAt?$AAo?$AA?9?$AAr?$AAi?$AAc?$AAo@ 00000001400e2528     libucrt:get_qualified_locale.obj
 0002:00039540       ??_C@_1O@PAEOFKDI@?$AAs?$AAl?$AAo?$AAv?$AAa?$AAk@ 00000001400e2540     libucrt:get_qualified_locale.obj
 0002:00039550       ??_C@_1BK@FIHMCKAM@?$AAs?$AAo?$AAu?$AAt?$AAh?$AA?5?$AAa?$AAf?$AAr?$AAi?$AAc?$AAa@ 00000001400e2550     libucrt:get_qualified_locale.obj
 0002:00039570       ??_C@_1BI@NAEOODKB@?$AAs?$AAo?$AAu?$AAt?$AAh?$AA?5?$AAk?$AAo?$AAr?$AAe?$AAa@ 00000001400e2570     libucrt:get_qualified_locale.obj
 0002:00039588       ??_C@_1BK@FBDGGIFF@?$AAs?$AAo?$AAu?$AAt?$AAh?$AA?9?$AAa?$AAf?$AAr?$AAi?$AAc?$AAa@ 00000001400e2588     libucrt:get_qualified_locale.obj
 0002:000395a8       ??_C@_1BI@GHLEJDPK@?$AAs?$AAo?$AAu?$AAt?$AAh?$AA?9?$AAk?$AAo?$AAr?$AAe?$AAa@ 00000001400e25a8     libucrt:get_qualified_locale.obj
 0002:000395c0       ??_C@_1CE@PLHLOMJF@?$AAt?$AAr?$AAi?$AAn?$AAi?$AAd?$AAa?$AAd?$AA?5?$AA?$CG?$AA?5?$AAt?$AAo?$AAb?$AAa@ 00000001400e25c0     libucrt:get_qualified_locale.obj
 0002:000395e8       ??_C@_1BO@MODIMHHI@?$AAu?$AAn?$AAi?$AAt?$AAe?$AAd?$AA?9?$AAk?$AAi?$AAn?$AAg?$AAd?$AAo?$AAm@ 00000001400e25e8     libucrt:get_qualified_locale.obj
 0002:00039608       ??_C@_1BM@FFHJONBJ@?$AAu?$AAn?$AAi?$AAt?$AAe?$AAd?$AA?9?$AAs?$AAt?$AAa?$AAt?$AAe?$AAs@ 00000001400e2608     libucrt:get_qualified_locale.obj
 0002:00039628       ??_C@_19MPDNHKDG@?$AAu?$AAt?$AAf?$AA8@ 00000001400e2628     libucrt:get_qualified_locale.obj
 0002:00039638       ??_C@_17DNCLJFIF@?$AAA?$AAC?$AAP@ 00000001400e2638     libucrt:get_qualified_locale.obj
 0002:00039640       ??_C@_1M@FPEIIFAM@?$AAu?$AAt?$AAf?$AA?9?$AA8@ 00000001400e2640     libucrt:get_qualified_locale.obj
 0002:00039650       ??_C@_17CIKBIHLH@?$AAO?$AAC?$AAP@ 00000001400e2650     libucrt:get_qualified_locale.obj
 0002:00039658       __rglangidNotDefault       00000001400e2658     libucrt:getqloc_downlevel.obj
 0002:0003966c       ??_C@_05DNEBIAHO@1?$CDINF@ 00000001400e266c     libucrt:cfout.obj
 0002:00039674       ??_C@_06IMKFLFPG@1?$CDQNAN@ 00000001400e2674     libucrt:cfout.obj
 0002:0003967c       ??_C@_06PGGFOGJG@1?$CDSNAN@ 00000001400e267c     libucrt:cfout.obj
 0002:00039684       ??_C@_05PHHOCPM@1?$CDIND@  00000001400e2684     libucrt:cfout.obj
 0002:0003a4d0       ??_C@_15EMKDOKLE@?$AAa?$AAr@ 00000001400e34d0     libucrt:lcidtoname_downlevel.obj
 0002:0003a4d8       ??_C@_15KNPADPLH@?$AAb?$AAg@ 00000001400e34d8     libucrt:lcidtoname_downlevel.obj
 0002:0003a4e0       ??_C@_15EDMHLDMO@?$AAc?$AAa@ 00000001400e34e0     libucrt:lcidtoname_downlevel.obj
 0002:0003a4e8       ??_C@_1O@BPEAJADD@?$AAz?$AAh?$AA?9?$AAC?$AAH?$AAS@ 00000001400e34e8     libucrt:lcidtoname_downlevel.obj
 0002:0003a4f8       ??_C@_15LJNHCMNK@?$AAc?$AAs@ 00000001400e34f8     libucrt:lcidtoname_downlevel.obj
 0002:0003a500       ??_C@_15FOMCIDHG@?$AAd?$AAa@ 00000001400e3500     libucrt:lcidtoname_downlevel.obj
 0002:0003a508       ??_C@_15NBKABECB@?$AAd?$AAe@ 00000001400e3508     libucrt:lcidtoname_downlevel.obj
 0002:0003a510       ??_C@_15GHPEIIAO@?$AAe?$AAl@ 00000001400e3510     libucrt:lcidtoname_downlevel.obj
 0002:0003a518       ??_C@_15MNPNEAIF@?$AAe?$AAn@ 00000001400e3518     libucrt:lcidtoname_downlevel.obj
 0002:0003a520       ??_C@_15GPIOMPMH@?$AAe?$AAs@ 00000001400e3520     libucrt:lcidtoname_downlevel.obj
 0002:0003a528       ??_C@_15NGLOAKJC@?$AAf?$AAi@ 00000001400e3528     libucrt:lcidtoname_downlevel.obj
 0002:0003a530       ??_C@_15FBKGNKAM@?$AAf?$AAr@ 00000001400e3530     libucrt:lcidtoname_downlevel.obj
 0002:0003a538       ??_C@_15KGGCNEFK@?$AAh?$AAe@ 00000001400e3538     libucrt:lcidtoname_downlevel.obj
 0002:0003a540       ??_C@_15PGHLIDMF@?$AAh?$AAu@ 00000001400e3540     libucrt:lcidtoname_downlevel.obj
 0002:0003a548       ??_C@_15BIEMAPLM@?$AAi?$AAs@ 00000001400e3548     libucrt:lcidtoname_downlevel.obj
 0002:0003a550       ??_C@_15IFJLDHAF@?$AAi?$AAt@ 00000001400e3550     libucrt:lcidtoname_downlevel.obj
 0002:0003a558       ??_C@_15GEMIOCAG@?$AAj?$AAa@ 00000001400e3558     libucrt:lcidtoname_downlevel.obj
 0002:0003a560       ??_C@_15EPELEGJA@?$AAk?$AAo@ 00000001400e3560     libucrt:lcidtoname_downlevel.obj
 0002:0003a568       ??_C@_15NDDHIMN@?$AAn?$AAl@ 00000001400e3568     libucrt:lcidtoname_downlevel.obj
 0002:0003a570       ??_C@_15DEOPBLCG@?$AAp?$AAl@ 00000001400e3570     libucrt:lcidtoname_downlevel.obj
 0002:0003a578       ??_C@_15KBECGEFG@?$AAp?$AAt@ 00000001400e3578     libucrt:lcidtoname_downlevel.obj
 0002:0003a580       ??_C@_15GLJCBFMD@?$AAr?$AAo@ 00000001400e3580     libucrt:lcidtoname_downlevel.obj
 0002:0003a588       ??_C@_15FEDGKCDI@?$AAr?$AAu@ 00000001400e3588     libucrt:lcidtoname_downlevel.obj
 0002:0003a590       ??_C@_15GLKMLLHM@?$AAh?$AAr@ 00000001400e3590     libucrt:lcidtoname_downlevel.obj
 0002:0003a598       ??_C@_15CPKMFBDB@?$AAs?$AAk@ 00000001400e3598     libucrt:lcidtoname_downlevel.obj
 0002:0003a5a0       ??_C@_15BAAIOGMK@?$AAs?$AAq@ 00000001400e35a0     libucrt:lcidtoname_downlevel.obj
 0002:0003a5a8       ??_C@_15INNPNOHD@?$AAs?$AAv@ 00000001400e35a8     libucrt:lcidtoname_downlevel.obj
 0002:0003a5b0       ??_C@_15CABMMOGH@?$AAt?$AAh@ 00000001400e35b0     libucrt:lcidtoname_downlevel.obj
 0002:0003a5b8       ??_C@_15BPLIHJJM@?$AAt?$AAr@ 00000001400e35b8     libucrt:lcidtoname_downlevel.obj
 0002:0003a5c0       ??_C@_15NEOEKKDJ@?$AAu?$AAr@ 00000001400e35c0     libucrt:lcidtoname_downlevel.obj
 0002:0003a5c8       ??_C@_15NFICGAJK@?$AAi?$AAd@ 00000001400e35c8     libucrt:lcidtoname_downlevel.obj
 0002:0003a5d0       ??_C@_15HPJPHDM@?$AAb?$AAe@ 00000001400e35d0     libucrt:lcidtoname_downlevel.obj
 0002:0003a5d8       ??_C@_15LCHLGJII@?$AAs?$AAl@ 00000001400e35d8     libucrt:lcidtoname_downlevel.obj
 0002:0003a5e0       ??_C@_15PCFJPHHO@?$AAe?$AAt@ 00000001400e35e0     libucrt:lcidtoname_downlevel.obj
 0002:0003a5e8       ??_C@_15HPFPGODN@?$AAl?$AAv@ 00000001400e35e8     libucrt:lcidtoname_downlevel.obj
 0002:0003a5f0       ??_C@_15NFFGKGLG@?$AAl?$AAt@ 00000001400e35f0     libucrt:lcidtoname_downlevel.obj
 0002:0003a5f8       ??_C@_15BDAKCCHN@?$AAf?$AAa@ 00000001400e35f8     libucrt:lcidtoname_downlevel.obj
 0002:0003a600       ??_C@_15NFGIAIAJ@?$AAv?$AAi@ 00000001400e3600     libucrt:lcidtoname_downlevel.obj
 0002:0003a608       ??_C@_15LMKNDMHN@?$AAh?$AAy@ 00000001400e3608     libucrt:lcidtoname_downlevel.obj
 0002:0003a610       ??_C@_15IJBHMCFL@?$AAa?$AAz@ 00000001400e3610     libucrt:lcidtoname_downlevel.obj
 0002:0003a618       ??_C@_15EKOFJABL@?$AAe?$AAu@ 00000001400e3618     libucrt:lcidtoname_downlevel.obj
 0002:0003a620       ??_C@_15BGHADCNK@?$AAm?$AAk@ 00000001400e3620     libucrt:lcidtoname_downlevel.obj
 0002:0003a628       ??_C@_15JDNICKHM@?$AAa?$AAf@ 00000001400e3628     libucrt:lcidtoname_downlevel.obj
 0002:0003a630       ??_C@_15KPJEDBKD@?$AAk?$AAa@ 00000001400e3630     libucrt:lcidtoname_downlevel.obj
 0002:0003a638       ??_C@_15PDNFFFEO@?$AAf?$AAo@ 00000001400e3638     libucrt:lcidtoname_downlevel.obj
 0002:0003a640       ??_C@_15OMLEGLOC@?$AAh?$AAi@ 00000001400e3640     libucrt:lcidtoname_downlevel.obj
 0002:0003a648       ??_C@_15IDNNENKK@?$AAm?$AAs@ 00000001400e3648     libucrt:lcidtoname_downlevel.obj
 0002:0003a650       ??_C@_15MACJNBMH@?$AAk?$AAk@ 00000001400e3650     libucrt:lcidtoname_downlevel.obj
 0002:0003a658       ??_C@_15DKDJEOND@?$AAk?$AAy@ 00000001400e3658     libucrt:lcidtoname_downlevel.obj
 0002:0003a660       ??_C@_15DFGDLJBG@?$AAs?$AAw@ 00000001400e3660     libucrt:lcidtoname_downlevel.obj
 0002:0003a668       ??_C@_15BBFAICNG@?$AAu?$AAz@ 00000001400e3668     libucrt:lcidtoname_downlevel.obj
 0002:0003a670       ??_C@_15DKNDCGEA@?$AAt?$AAt@ 00000001400e3670     libucrt:lcidtoname_downlevel.obj
 0002:0003a678       ??_C@_15MGIFMDPL@?$AAp?$AAa@ 00000001400e3678     libucrt:lcidtoname_downlevel.obj
 0002:0003a680       ??_C@_15HCNDBBA@?$AAg?$AAu@ 00000001400e3680     libucrt:lcidtoname_downlevel.obj
 0002:0003a688       ??_C@_15FNBEIBON@?$AAt?$AAa@ 00000001400e3688     libucrt:lcidtoname_downlevel.obj
 0002:0003a690       ??_C@_15NCHGBGLK@?$AAt?$AAe@ 00000001400e3690     libucrt:lcidtoname_downlevel.obj
 0002:0003a698       ??_C@_15PHPHCBPF@?$AAk?$AAn@ 00000001400e3698     libucrt:lcidtoname_downlevel.obj
 0002:0003a6a0       ??_C@_15DLGBCKMP@?$AAm?$AAr@ 00000001400e36a0     libucrt:lcidtoname_downlevel.obj
 0002:0003a6a8       ??_C@_15EABBLBFF@?$AAs?$AAa@ 00000001400e36a8     libucrt:lcidtoname_downlevel.obj
 0002:0003a6b0       ??_C@_15CBKOMCOI@?$AAm?$AAn@ 00000001400e36b0     libucrt:lcidtoname_downlevel.obj
 0002:0003a6b8       ??_C@_15CKDMCJAF@?$AAg?$AAl@ 00000001400e36b8     libucrt:lcidtoname_downlevel.obj
 0002:0003a6c0       ??_C@_17CNJFBPG@?$AAk?$AAo?$AAk@ 00000001400e36c0     libucrt:lcidtoname_downlevel.obj
 0002:0003a6c8       ??_C@_17FFBJICPL@?$AAs?$AAy?$AAr@ 00000001400e36c8     libucrt:lcidtoname_downlevel.obj
 0002:0003a6d0       ??_C@_17KPNDCPAF@?$AAd?$AAi?$AAv@ 00000001400e36d0     libucrt:lcidtoname_downlevel.obj
 0002:0003a6d8       ??_C@_1M@OKAHONE@?$AAa?$AAr?$AA?9?$AAS?$AAA@ 00000001400e36d8     libucrt:lcidtoname_downlevel.obj
 0002:0003a6e8       ??_C@_1M@FFFIGIGK@?$AAb?$AAg?$AA?9?$AAB?$AAG@ 00000001400e36e8     libucrt:lcidtoname_downlevel.obj
 0002:0003a6f8       ??_C@_1M@BJNKEDC@?$AAc?$AAa?$AA?9?$AAE?$AAS@ 00000001400e36f8     libucrt:lcidtoname_downlevel.obj
 0002:0003a708       ??_C@_1M@IJJHFJHA@?$AAc?$AAs?$AA?9?$AAC?$AAZ@ 00000001400e3708     libucrt:lcidtoname_downlevel.obj
 0002:0003a718       ??_C@_1M@CLPEOBGI@?$AAd?$AAa?$AA?9?$AAD?$AAK@ 00000001400e3718     libucrt:lcidtoname_downlevel.obj
 0002:0003a728       ??_C@_1M@MCMADGCB@?$AAd?$AAe?$AA?9?$AAD?$AAE@ 00000001400e3728     libucrt:lcidtoname_downlevel.obj
 0002:0003a738       ??_C@_1M@OOCKEMAM@?$AAe?$AAl?$AA?9?$AAG?$AAR@ 00000001400e3738     libucrt:lcidtoname_downlevel.obj
 0002:0003a748       ??_C@_1M@DDNJFGID@?$AAf?$AAi?$AA?9?$AAF?$AAI@ 00000001400e3748     libucrt:lcidtoname_downlevel.obj
 0002:0003a758       ??_C@_1M@GLIPPMAC@?$AAf?$AAr?$AA?9?$AAF?$AAR@ 00000001400e3758     libucrt:lcidtoname_downlevel.obj
 0002:0003a768       ??_C@_1M@GFMCHPE@?$AAh?$AAe?$AA?9?$AAI?$AAL@ 00000001400e3768     libucrt:lcidtoname_downlevel.obj
 0002:0003a778       ??_C@_1M@MHLPGNKM@?$AAh?$AAu?$AA?9?$AAH?$AAU@ 00000001400e3778     libucrt:lcidtoname_downlevel.obj
 0002:0003a788       ??_C@_1M@LPDDNNPN@?$AAi?$AAs?$AA?9?$AAI?$AAS@ 00000001400e3788     libucrt:lcidtoname_downlevel.obj
 0002:0003a798       ??_C@_1M@MADIPODN@?$AAi?$AAt?$AA?9?$AAI?$AAT@ 00000001400e3798     libucrt:lcidtoname_downlevel.obj
 0002:0003a7a8       ??_C@_1M@IHBJJGG@?$AAn?$AAl?$AA?9?$AAN?$AAL@ 00000001400e37a8     libucrt:lcidtoname_downlevel.obj
 0002:0003a7b8       ??_C@_1M@EANAGDL@?$AAn?$AAb?$AA?9?$AAN?$AAO@ 00000001400e37b8     libucrt:lcidtoname_downlevel.obj
 0002:0003a7c8       ??_C@_1M@NEIEMEGP@?$AAp?$AAl?$AA?9?$AAP?$AAL@ 00000001400e37c8     libucrt:lcidtoname_downlevel.obj
 0002:0003a7d8       ??_C@_1M@BOCFIGEP@?$AAp?$AAt?$AA?9?$AAB?$AAR@ 00000001400e37d8     libucrt:lcidtoname_downlevel.obj
 0002:0003a7e8       ??_C@_1M@IMPFOPBG@?$AAr?$AAo?$AA?9?$AAR?$AAO@ 00000001400e37e8     libucrt:lcidtoname_downlevel.obj
 0002:0003a7f8       ??_C@_1M@IDNNEJMM@?$AAr?$AAu?$AA?9?$AAR?$AAU@ 00000001400e37f8     libucrt:lcidtoname_downlevel.obj
 0002:0003a808       ??_C@_1M@LILEEOGM@?$AAh?$AAr?$AA?9?$AAH?$AAR@ 00000001400e3808     libucrt:lcidtoname_downlevel.obj
 0002:0003a818       ??_C@_1M@FKIFEHPB@?$AAs?$AAk?$AA?9?$AAS?$AAK@ 00000001400e3818     libucrt:lcidtoname_downlevel.obj
 0002:0003a828       ??_C@_1M@LJMAMNPJ@?$AAs?$AAq?$AA?9?$AAA?$AAL@ 00000001400e3828     libucrt:lcidtoname_downlevel.obj
 0002:0003a838       ??_C@_1M@GIAKDKJK@?$AAs?$AAv?$AA?9?$AAS?$AAE@ 00000001400e3838     libucrt:lcidtoname_downlevel.obj
 0002:0003a848       ??_C@_1M@MKJKIKCL@?$AAt?$AAh?$AA?9?$AAT?$AAH@ 00000001400e3848     libucrt:lcidtoname_downlevel.obj
 0002:0003a858       ??_C@_1M@MFLCCMPB@?$AAt?$AAr?$AA?9?$AAT?$AAR@ 00000001400e3858     libucrt:lcidtoname_downlevel.obj
 0002:0003a868       ??_C@_1M@OIJHDKJN@?$AAu?$AAr?$AA?9?$AAP?$AAK@ 00000001400e3868     libucrt:lcidtoname_downlevel.obj
 0002:0003a878       ??_C@_1M@LHIPCIEK@?$AAi?$AAd?$AA?9?$AAI?$AAD@ 00000001400e3878     libucrt:lcidtoname_downlevel.obj
 0002:0003a888       ??_C@_1M@MFMOBGI@?$AAu?$AAk?$AA?9?$AAU?$AAA@ 00000001400e3888     libucrt:lcidtoname_downlevel.obj
 0002:0003a898       ??_C@_1M@OBGLJIPL@?$AAb?$AAe?$AA?9?$AAB?$AAY@ 00000001400e3898     libucrt:lcidtoname_downlevel.obj
 0002:0003a8a8       ??_C@_1M@BCFAJEAD@?$AAs?$AAl?$AA?9?$AAS?$AAI@ 00000001400e38a8     libucrt:lcidtoname_downlevel.obj
 0002:0003a8b8       ??_C@_1M@FKFFEDDN@?$AAe?$AAt?$AA?9?$AAE?$AAE@ 00000001400e38b8     libucrt:lcidtoname_downlevel.obj
 0002:0003a8c8       ??_C@_1M@KGKKAACI@?$AAl?$AAv?$AA?9?$AAL?$AAV@ 00000001400e38c8     libucrt:lcidtoname_downlevel.obj
 0002:0003a8d8       ??_C@_1M@IFGBIJO@?$AAl?$AAt?$AA?9?$AAL?$AAT@ 00000001400e38d8     libucrt:lcidtoname_downlevel.obj
 0002:0003a8e8       ??_C@_1M@FGEAHEDM@?$AAf?$AAa?$AA?9?$AAI?$AAR@ 00000001400e38e8     libucrt:lcidtoname_downlevel.obj
 0002:0003a8f8       ??_C@_1M@KBMAIBFN@?$AAv?$AAi?$AA?9?$AAV?$AAN@ 00000001400e38f8     libucrt:lcidtoname_downlevel.obj
 0002:0003a908       ??_C@_1M@GPCBKDJK@?$AAh?$AAy?$AA?9?$AAA?$AAM@ 00000001400e3908     libucrt:lcidtoname_downlevel.obj
 0002:0003a918       ??_C@_1BG@BECMDDJB@?$AAa?$AAz?$AA?9?$AAA?$AAZ?$AA?9?$AAL?$AAa?$AAt?$AAn@ 00000001400e3918     libucrt:lcidtoname_downlevel.obj
 0002:0003a930       ??_C@_1M@MAOFCAEA@?$AAe?$AAu?$AA?9?$AAE?$AAS@ 00000001400e3930     libucrt:lcidtoname_downlevel.obj
 0002:0003a940       ??_C@_1M@IGHABKPI@?$AAm?$AAk?$AA?9?$AAM?$AAK@ 00000001400e3940     libucrt:lcidtoname_downlevel.obj
 0002:0003a950       ??_C@_1M@IAIGNEJG@?$AAt?$AAn?$AA?9?$AAZ?$AAA@ 00000001400e3950     libucrt:lcidtoname_downlevel.obj
 0002:0003a960       ??_C@_1M@IIJCOJFA@?$AAx?$AAh?$AA?9?$AAZ?$AAA@ 00000001400e3960     libucrt:lcidtoname_downlevel.obj
 0002:0003a970       ??_C@_1M@LGPJHNJH@?$AAz?$AAu?$AA?9?$AAZ?$AAA@ 00000001400e3970     libucrt:lcidtoname_downlevel.obj
 0002:0003a980       ??_C@_1M@HOKAOIO@?$AAa?$AAf?$AA?9?$AAZ?$AAA@ 00000001400e3980     libucrt:lcidtoname_downlevel.obj
 0002:0003a990       ??_C@_1M@DPCLHLIE@?$AAk?$AAa?$AA?9?$AAG?$AAE@ 00000001400e3990     libucrt:lcidtoname_downlevel.obj
 0002:0003a9a0       ??_C@_1M@BLKMHJBI@?$AAf?$AAo?$AA?9?$AAF?$AAO@ 00000001400e39a0     libucrt:lcidtoname_downlevel.obj
 0002:0003a9b0       ??_C@_1M@LGGJAPPB@?$AAh?$AAi?$AA?9?$AAI?$AAN@ 00000001400e39b0     libucrt:lcidtoname_downlevel.obj
 0002:0003a9c0       ??_C@_1M@FIKPIHFE@?$AAm?$AAt?$AA?9?$AAM?$AAT@ 00000001400e39c0     libucrt:lcidtoname_downlevel.obj
 0002:0003a9d0       ??_C@_1M@HEGGPBFA@?$AAs?$AAe?$AA?9?$AAN?$AAO@ 00000001400e39d0     libucrt:lcidtoname_downlevel.obj
 0002:0003a9e0       ??_C@_1M@EIBJEEPA@?$AAm?$AAs?$AA?9?$AAM?$AAY@ 00000001400e39e0     libucrt:lcidtoname_downlevel.obj
 0002:0003a9f0       ??_C@_1M@FHLBGMPP@?$AAk?$AAk?$AA?9?$AAK?$AAZ@ 00000001400e39f0     libucrt:lcidtoname_downlevel.obj
 0002:0003aa00       ??_C@_1M@NGJJLCGI@?$AAk?$AAy?$AA?9?$AAK?$AAG@ 00000001400e3a00     libucrt:lcidtoname_downlevel.obj
 0002:0003aa10       ??_C@_1M@GIENNBFC@?$AAs?$AAw?$AA?9?$AAK?$AAE@ 00000001400e3a10     libucrt:lcidtoname_downlevel.obj
 0002:0003aa20       ??_C@_1BG@NDGMJIMJ@?$AAu?$AAz?$AA?9?$AAU?$AAZ?$AA?9?$AAL?$AAa?$AAt?$AAn@ 00000001400e3a20     libucrt:lcidtoname_downlevel.obj
 0002:0003aa38       ??_C@_1M@IDCCIHBC@?$AAt?$AAt?$AA?9?$AAR?$AAU@ 00000001400e3a38     libucrt:lcidtoname_downlevel.obj
 0002:0003aa48       ??_C@_1M@LOICPMOJ@?$AAb?$AAn?$AA?9?$AAI?$AAN@ 00000001400e3a48     libucrt:lcidtoname_downlevel.obj
 0002:0003aa58       ??_C@_1M@KPKKNEAH@?$AAp?$AAa?$AA?9?$AAI?$AAN@ 00000001400e3a58     libucrt:lcidtoname_downlevel.obj
 0002:0003aa68       ??_C@_1M@PJGPPBOG@?$AAg?$AAu?$AA?9?$AAI?$AAN@ 00000001400e3a68     libucrt:lcidtoname_downlevel.obj
 0002:0003aa78       ??_C@_1M@KMKMOPHI@?$AAt?$AAa?$AA?9?$AAI?$AAN@ 00000001400e3a78     libucrt:lcidtoname_downlevel.obj
 0002:0003aa88       ??_C@_1M@KFEHEPAC@?$AAt?$AAe?$AA?9?$AAI?$AAN@ 00000001400e3a88     libucrt:lcidtoname_downlevel.obj
 0002:0003aa98       ??_C@_1M@CDCLMGHI@?$AAk?$AAn?$AA?9?$AAI?$AAN@ 00000001400e3a98     libucrt:lcidtoname_downlevel.obj
 0002:0003aaa8       ??_C@_1M@MIODLDKF@?$AAm?$AAl?$AA?9?$AAI?$AAN@ 00000001400e3aa8     libucrt:lcidtoname_downlevel.obj
 0002:0003aab8       ??_C@_1M@PBIEACPO@?$AAm?$AAr?$AA?9?$AAI?$AAN@ 00000001400e3ab8     libucrt:lcidtoname_downlevel.obj
 0002:0003aac8       ??_C@_1M@NIDEAGPH@?$AAs?$AAa?$AA?9?$AAI?$AAN@ 00000001400e3ac8     libucrt:lcidtoname_downlevel.obj
 0002:0003aad8       ??_C@_1M@FHIHCBIO@?$AAm?$AAn?$AA?9?$AAM?$AAN@ 00000001400e3ad8     libucrt:lcidtoname_downlevel.obj
 0002:0003aae8       ??_C@_1M@JAIJPENP@?$AAc?$AAy?$AA?9?$AAG?$AAB@ 00000001400e3ae8     libucrt:lcidtoname_downlevel.obj
 0002:0003aaf8       ??_C@_1M@PHGFBEPN@?$AAg?$AAl?$AA?9?$AAE?$AAS@ 00000001400e3af8     libucrt:lcidtoname_downlevel.obj
 0002:0003ab08       ??_C@_1O@KPIPDNCP@?$AAk?$AAo?$AAk?$AA?9?$AAI?$AAN@ 00000001400e3b08     libucrt:lcidtoname_downlevel.obj
 0002:0003ab18       ??_C@_1O@KNHJLDJA@?$AAs?$AAy?$AAr?$AA?9?$AAS?$AAY@ 00000001400e3b18     libucrt:lcidtoname_downlevel.obj
 0002:0003ab28       ??_C@_1O@MKEKBLAH@?$AAd?$AAi?$AAv?$AA?9?$AAM?$AAV@ 00000001400e3b28     libucrt:lcidtoname_downlevel.obj
 0002:0003ab38       ??_C@_1O@OHDCKDDF@?$AAq?$AAu?$AAz?$AA?9?$AAB?$AAO@ 00000001400e3b38     libucrt:lcidtoname_downlevel.obj
 0002:0003ab48       ??_C@_1M@LEPJNLFD@?$AAn?$AAs?$AA?9?$AAZ?$AAA@ 00000001400e3b48     libucrt:lcidtoname_downlevel.obj
 0002:0003ab58       ??_C@_1M@OMLEIIJB@?$AAm?$AAi?$AA?9?$AAN?$AAZ@ 00000001400e3b58     libucrt:lcidtoname_downlevel.obj
 0002:0003ab68       ??_C@_1M@PMPEAILG@?$AAa?$AAr?$AA?9?$AAI?$AAQ@ 00000001400e3b68     libucrt:lcidtoname_downlevel.obj
 0002:0003ab78       ??_C@_1M@CNKPNOEE@?$AAd?$AAe?$AA?9?$AAC?$AAH@ 00000001400e3b78     libucrt:lcidtoname_downlevel.obj
 0002:0003ab88       ??_C@_1M@LKMGMLKO@?$AAe?$AAn?$AA?9?$AAG?$AAB@ 00000001400e3b88     libucrt:lcidtoname_downlevel.obj
 0002:0003ab98       ??_C@_1M@PGKJFFGL@?$AAe?$AAs?$AA?9?$AAM?$AAX@ 00000001400e3b98     libucrt:lcidtoname_downlevel.obj
 0002:0003aba8       ??_C@_1M@DNNANBDC@?$AAf?$AAr?$AA?9?$AAB?$AAE@ 00000001400e3ba8     libucrt:lcidtoname_downlevel.obj
 0002:0003abb8       ??_C@_1M@HLGMDFHM@?$AAi?$AAt?$AA?9?$AAC?$AAH@ 00000001400e3bb8     libucrt:lcidtoname_downlevel.obj
 0002:0003abc8       ??_C@_1M@CLLBGJH@?$AAn?$AAl?$AA?9?$AAB?$AAE@ 00000001400e3bc8     libucrt:lcidtoname_downlevel.obj
 0002:0003abd8       ??_C@_1M@BODBOGLF@?$AAn?$AAn?$AA?9?$AAN?$AAO@ 00000001400e3bd8     libucrt:lcidtoname_downlevel.obj
 0002:0003abe8       ??_C@_1M@HFFAHKAD@?$AAp?$AAt?$AA?9?$AAP?$AAT@ 00000001400e3be8     libucrt:lcidtoname_downlevel.obj
 0002:0003abf8       ??_C@_1BG@LNOAKHIE@?$AAs?$AAr?$AA?9?$AAS?$AAP?$AA?9?$AAL?$AAa?$AAt?$AAn@ 00000001400e3bf8     libucrt:lcidtoname_downlevel.obj
 0002:0003ac10       ??_C@_1M@HBMHBGAK@?$AAs?$AAv?$AA?9?$AAF?$AAI@ 00000001400e3c10     libucrt:lcidtoname_downlevel.obj
 0002:0003ac20       ??_C@_1BG@DGCJGJBE@?$AAa?$AAz?$AA?9?$AAA?$AAZ?$AA?9?$AAC?$AAy?$AAr?$AAl@ 00000001400e3c20     libucrt:lcidtoname_downlevel.obj
 0002:0003ac38       ??_C@_1M@KEJDAAHB@?$AAs?$AAe?$AA?9?$AAS?$AAE@ 00000001400e3c38     libucrt:lcidtoname_downlevel.obj
 0002:0003ac48       ??_C@_1M@HEIBJJAD@?$AAm?$AAs?$AA?9?$AAB?$AAN@ 00000001400e3c48     libucrt:lcidtoname_downlevel.obj
 0002:0003ac58       ??_C@_1BG@PBGJMCEM@?$AAu?$AAz?$AA?9?$AAU?$AAZ?$AA?9?$AAC?$AAy?$AAr?$AAl@ 00000001400e3c58     libucrt:lcidtoname_downlevel.obj
 0002:0003ac70       ??_C@_1O@LAOBCMDF@?$AAq?$AAu?$AAz?$AA?9?$AAE?$AAC@ 00000001400e3c70     libucrt:lcidtoname_downlevel.obj
 0002:0003ac80       ??_C@_1M@POEEMAIO@?$AAa?$AAr?$AA?9?$AAE?$AAG@ 00000001400e3c80     libucrt:lcidtoname_downlevel.obj
 0002:0003ac90       ??_C@_1M@EFAKDEDL@?$AAz?$AAh?$AA?9?$AAH?$AAK@ 00000001400e3c90     libucrt:lcidtoname_downlevel.obj
 0002:0003aca0       ??_C@_1M@HKKIJHGI@?$AAd?$AAe?$AA?9?$AAA?$AAT@ 00000001400e3ca0     libucrt:lcidtoname_downlevel.obj
 0002:0003acb0       ??_C@_1M@KBFBEHJF@?$AAe?$AAn?$AA?9?$AAA?$AAU@ 00000001400e3cb0     libucrt:lcidtoname_downlevel.obj
 0002:0003acc0       ??_C@_1M@MNPLFAAH@?$AAe?$AAs?$AA?9?$AAE?$AAS@ 00000001400e3cc0     libucrt:lcidtoname_downlevel.obj
 0002:0003acd0       ??_C@_1M@HJOOJFMA@?$AAf?$AAr?$AA?9?$AAC?$AAA@ 00000001400e3cd0     libucrt:lcidtoname_downlevel.obj
 0002:0003ace0       ??_C@_1BG@JPOFPNAB@?$AAs?$AAr?$AA?9?$AAS?$AAP?$AA?9?$AAC?$AAy?$AAr?$AAl@ 00000001400e3ce0     libucrt:lcidtoname_downlevel.obj
 0002:0003acf8       ??_C@_1M@LNFOCMOB@?$AAs?$AAe?$AA?9?$AAF?$AAI@ 00000001400e3cf8     libucrt:lcidtoname_downlevel.obj
 0002:0003ad08       ??_C@_1O@MGJBOAMB@?$AAq?$AAu?$AAz?$AA?9?$AAP?$AAE@ 00000001400e3d08     libucrt:lcidtoname_downlevel.obj
 0002:0003ad18       ??_C@_1M@GJINLBOK@?$AAa?$AAr?$AA?9?$AAL?$AAY@ 00000001400e3d18     libucrt:lcidtoname_downlevel.obj
 0002:0003ad28       ??_C@_1M@GGMNHJNL@?$AAz?$AAh?$AA?9?$AAS?$AAG@ 00000001400e3d28     libucrt:lcidtoname_downlevel.obj
 0002:0003ad38       ??_C@_1M@HOIKODND@?$AAd?$AAe?$AA?9?$AAL?$AAU@ 00000001400e3d38     libucrt:lcidtoname_downlevel.obj
 0002:0003ad48       ??_C@_1M@DDOCCGFG@?$AAe?$AAn?$AA?9?$AAC?$AAA@ 00000001400e3d48     libucrt:lcidtoname_downlevel.obj
 0002:0003ad58       ??_C@_1M@BNOEMJLF@?$AAe?$AAs?$AA?9?$AAG?$AAT@ 00000001400e3d58     libucrt:lcidtoname_downlevel.obj
 0002:0003ad68       ??_C@_1M@EOGNKEK@?$AAf?$AAr?$AA?9?$AAC?$AAH@ 00000001400e3d68     libucrt:lcidtoname_downlevel.obj
 0002:0003ad78       ??_C@_1M@FLIDJFHL@?$AAh?$AAr?$AA?9?$AAB?$AAA@ 00000001400e3d78     libucrt:lcidtoname_downlevel.obj
 0002:0003ad88       ??_C@_1O@FMCELNAJ@?$AAs?$AAm?$AAj?$AA?9?$AAN?$AAO@ 00000001400e3d88     libucrt:lcidtoname_downlevel.obj
 0002:0003ad98       ??_C@_1M@JHGLJMGJ@?$AAa?$AAr?$AA?9?$AAD?$AAZ@ 00000001400e3d98     libucrt:lcidtoname_downlevel.obj
 0002:0003ada8       ??_C@_1M@JKKFDCNP@?$AAz?$AAh?$AA?9?$AAM?$AAO@ 00000001400e3da8     libucrt:lcidtoname_downlevel.obj
 0002:0003adb8       ??_C@_1M@GEEFALPE@?$AAd?$AAe?$AA?9?$AAL?$AAI@ 00000001400e3db8     libucrt:lcidtoname_downlevel.obj
 0002:0003adc8       ??_C@_1M@IGEOFBG@?$AAe?$AAn?$AA?9?$AAN?$AAZ@ 00000001400e3dc8     libucrt:lcidtoname_downlevel.obj
 0002:0003add8       ??_C@_1M@KDBONEHP@?$AAe?$AAs?$AA?9?$AAC?$AAR@ 00000001400e3dd8     libucrt:lcidtoname_downlevel.obj
 0002:0003ade8       ??_C@_1M@FHMDOHNN@?$AAf?$AAr?$AA?9?$AAL?$AAU@ 00000001400e3de8     libucrt:lcidtoname_downlevel.obj
 0002:0003adf8       ??_C@_1BG@NFKKMAFG@?$AAb?$AAs?$AA?9?$AAB?$AAA?$AA?9?$AAL?$AAa?$AAt?$AAn@ 00000001400e3df8     libucrt:lcidtoname_downlevel.obj
 0002:0003ae10       ??_C@_1O@IMNBEMCI@?$AAs?$AAm?$AAj?$AA?9?$AAS?$AAE@ 00000001400e3e10     libucrt:lcidtoname_downlevel.obj
 0002:0003ae20       ??_C@_1M@DHHMBNDP@?$AAa?$AAr?$AA?9?$AAM?$AAA@ 00000001400e3e20     libucrt:lcidtoname_downlevel.obj
 0002:0003ae30       ??_C@_1M@BNBLJCGH@?$AAe?$AAn?$AA?9?$AAI?$AAE@ 00000001400e3e30     libucrt:lcidtoname_downlevel.obj
 0002:0003ae40       ??_C@_1M@GEPAFMDL@?$AAe?$AAs?$AA?9?$AAP?$AAA@ 00000001400e3e40     libucrt:lcidtoname_downlevel.obj
 0002:0003ae50       ??_C@_1M@OJONDMDL@?$AAf?$AAr?$AA?9?$AAM?$AAC@ 00000001400e3e50     libucrt:lcidtoname_downlevel.obj
 0002:0003ae60       ??_C@_1BG@OBCNFJB@?$AAs?$AAr?$AA?9?$AAB?$AAA?$AA?9?$AAL?$AAa?$AAt?$AAn@ 00000001400e3e60     libucrt:lcidtoname_downlevel.obj
 0002:0003ae78       ??_C@_1O@KEMEEGPO@?$AAs?$AAm?$AAa?$AA?9?$AAN?$AAO@ 00000001400e3e78     libucrt:lcidtoname_downlevel.obj
 0002:0003ae88       ??_C@_1M@ELMGFODK@?$AAa?$AAr?$AA?9?$AAT?$AAN@ 00000001400e3e88     libucrt:lcidtoname_downlevel.obj
 0002:0003ae98       ??_C@_1M@BHDLHFAF@?$AAe?$AAn?$AA?9?$AAZ?$AAA@ 00000001400e3e98     libucrt:lcidtoname_downlevel.obj
 0002:0003aea8       ??_C@_1M@BMGIGLIF@?$AAe?$AAs?$AA?9?$AAD?$AAO@ 00000001400e3ea8     libucrt:lcidtoname_downlevel.obj
 0002:0003aeb8       ??_C@_1BG@CMBHIPBE@?$AAs?$AAr?$AA?9?$AAB?$AAA?$AA?9?$AAC?$AAy?$AAr?$AAl@ 00000001400e3eb8     libucrt:lcidtoname_downlevel.obj
 0002:0003aed0       ??_C@_1O@HEDBLHNP@?$AAs?$AAm?$AAa?$AA?9?$AAS?$AAE@ 00000001400e3ed0     libucrt:lcidtoname_downlevel.obj
 0002:0003aee0       ??_C@_1M@DAGCADIM@?$AAa?$AAr?$AA?9?$AAO?$AAM@ 00000001400e3ee0     libucrt:lcidtoname_downlevel.obj
 0002:0003aef0       ??_C@_1M@FODLMICG@?$AAe?$AAn?$AA?9?$AAJ?$AAM@ 00000001400e3ef0     libucrt:lcidtoname_downlevel.obj
 0002:0003af00       ??_C@_1M@DNMLCIHB@?$AAe?$AAs?$AA?9?$AAV?$AAE@ 00000001400e3f00     libucrt:lcidtoname_downlevel.obj
 0002:0003af10       ??_C@_1O@EOKHMKJK@?$AAs?$AAm?$AAs?$AA?9?$AAF?$AAI@ 00000001400e3f10     libucrt:lcidtoname_downlevel.obj
 0002:0003af20       ??_C@_1M@CAFJMKOF@?$AAa?$AAr?$AA?9?$AAY?$AAE@ 00000001400e3f20     libucrt:lcidtoname_downlevel.obj
 0002:0003af30       ??_C@_1M@CBFHIJLI@?$AAe?$AAn?$AA?9?$AAC?$AAB@ 00000001400e3f30     libucrt:lcidtoname_downlevel.obj
 0002:0003af40       ??_C@_1M@BGNFLDN@?$AAe?$AAs?$AA?9?$AAC?$AAO@ 00000001400e3f40     libucrt:lcidtoname_downlevel.obj
 0002:0003af50       ??_C@_1O@JMPHMAMC@?$AAs?$AAm?$AAn?$AA?9?$AAF?$AAI@ 00000001400e3f50     libucrt:lcidtoname_downlevel.obj
 0002:0003af60       ??_C@_1M@JLANABKE@?$AAa?$AAr?$AA?9?$AAS?$AAY@ 00000001400e3f60     libucrt:lcidtoname_downlevel.obj
 0002:0003af70       ??_C@_1M@HPKGCFGN@?$AAe?$AAn?$AA?9?$AAB?$AAZ@ 00000001400e3f70     libucrt:lcidtoname_downlevel.obj
 0002:0003af80       ??_C@_1M@OLJCMLGM@?$AAe?$AAs?$AA?9?$AAP?$AAE@ 00000001400e3f80     libucrt:lcidtoname_downlevel.obj
 0002:0003af90       ??_C@_1M@MKKGFKLE@?$AAa?$AAr?$AA?9?$AAJ?$AAO@ 00000001400e3f90     libucrt:lcidtoname_downlevel.obj
 0002:0003afa0       ??_C@_1M@EKPGLDNI@?$AAe?$AAn?$AA?9?$AAT?$AAT@ 00000001400e3fa0     libucrt:lcidtoname_downlevel.obj
 0002:0003afb0       ??_C@_1M@OONGHFHE@?$AAe?$AAs?$AA?9?$AAA?$AAR@ 00000001400e3fb0     libucrt:lcidtoname_downlevel.obj
 0002:0003afc0       ??_C@_1M@OOJFGBHE@?$AAa?$AAr?$AA?9?$AAL?$AAB@ 00000001400e3fc0     libucrt:lcidtoname_downlevel.obj
 0002:0003afd0       ??_C@_1M@GCEJHNEG@?$AAe?$AAn?$AA?9?$AAZ?$AAW@ 00000001400e3fd0     libucrt:lcidtoname_downlevel.obj
 0002:0003afe0       ??_C@_1M@JNOCAHJI@?$AAe?$AAs?$AA?9?$AAE?$AAC@ 00000001400e3fe0     libucrt:lcidtoname_downlevel.obj
 0002:0003aff0       ??_C@_1M@JEFHPGGB@?$AAa?$AAr?$AA?9?$AAK?$AAW@ 00000001400e3ff0     libucrt:lcidtoname_downlevel.obj
 0002:0003b000       ??_C@_1M@MLKIBJOJ@?$AAe?$AAn?$AA?9?$AAP?$AAH@ 00000001400e4000     libucrt:lcidtoname_downlevel.obj
 0002:0003b010       ??_C@_1M@BDNIPEND@?$AAe?$AAs?$AA?9?$AAC?$AAL@ 00000001400e4010     libucrt:lcidtoname_downlevel.obj
 0002:0003b020       ??_C@_1M@MPNMEKBD@?$AAa?$AAr?$AA?9?$AAA?$AAE@ 00000001400e4020     libucrt:lcidtoname_downlevel.obj
 0002:0003b030       ??_C@_1M@KBJALCPI@?$AAe?$AAs?$AA?9?$AAU?$AAY@ 00000001400e4030     libucrt:lcidtoname_downlevel.obj
 0002:0003b040       ??_C@_1M@LLCCOAGA@?$AAa?$AAr?$AA?9?$AAB?$AAH@ 00000001400e4040     libucrt:lcidtoname_downlevel.obj
 0002:0003b050       ??_C@_1M@PBFNCDEL@?$AAe?$AAs?$AA?9?$AAP?$AAY@ 00000001400e4050     libucrt:lcidtoname_downlevel.obj
 0002:0003b060       ??_C@_1M@EDGINPNP@?$AAa?$AAr?$AA?9?$AAQ?$AAA@ 00000001400e4060     libucrt:lcidtoname_downlevel.obj
 0002:0003b070       ??_C@_1M@MKDBIIJI@?$AAe?$AAs?$AA?9?$AAB?$AAO@ 00000001400e4070     libucrt:lcidtoname_downlevel.obj
 0002:0003b080       ??_C@_1M@CPKKEBLD@?$AAe?$AAs?$AA?9?$AAS?$AAV@ 00000001400e4080     libucrt:lcidtoname_downlevel.obj
 0002:0003b090       ??_C@_1M@NDBGMMJL@?$AAe?$AAs?$AA?9?$AAH?$AAN@ 00000001400e4090     libucrt:lcidtoname_downlevel.obj
 0002:0003b0a0       ??_C@_1M@JIJIBHDP@?$AAe?$AAs?$AA?9?$AAN?$AAI@ 00000001400e40a0     libucrt:lcidtoname_downlevel.obj
 0002:0003b0b0       ??_C@_1M@CGFMKEEK@?$AAe?$AAs?$AA?9?$AAP?$AAR@ 00000001400e40b0     libucrt:lcidtoname_downlevel.obj
 0002:0003b0c0       ??_C@_1O@ICJHKIIK@?$AAz?$AAh?$AA?9?$AAC?$AAH?$AAT@ 00000001400e40c0     libucrt:lcidtoname_downlevel.obj
 0002:0003b0d0       ??_C@_15CLNEJCE@?$AAs?$AAr@ 00000001400e40d0     libucrt:lcidtoname_downlevel.obj
 0002:0003bf20       ??_C@_1M@KAHEKEIG@?$AAa?$AAf?$AA?9?$AAz?$AAa@ 00000001400e4f20     libucrt:lcidtoname_downlevel.obj
 0002:0003bf30       ??_C@_1M@GIECOABL@?$AAa?$AAr?$AA?9?$AAa?$AAe@ 00000001400e4f30     libucrt:lcidtoname_downlevel.obj
 0002:0003bf40       ??_C@_1M@BMLMEKGI@?$AAa?$AAr?$AA?9?$AAb?$AAh@ 00000001400e4f40     libucrt:lcidtoname_downlevel.obj
 0002:0003bf50       ??_C@_1M@DAPFDGGB@?$AAa?$AAr?$AA?9?$AAd?$AAz@ 00000001400e4f50     libucrt:lcidtoname_downlevel.obj
 0002:0003bf60       ??_C@_1M@FJNKGKIG@?$AAa?$AAr?$AA?9?$AAe?$AAg@ 00000001400e4f60     libucrt:lcidtoname_downlevel.obj
 0002:0003bf70       ??_C@_1M@FLGKKCLO@?$AAa?$AAr?$AA?9?$AAi?$AAq@ 00000001400e4f70     libucrt:lcidtoname_downlevel.obj
 0002:0003bf80       ??_C@_1M@GNDIPALM@?$AAa?$AAr?$AA?9?$AAj?$AAo@ 00000001400e4f80     libucrt:lcidtoname_downlevel.obj
 0002:0003bf90       ??_C@_1M@DDMJFMGJ@?$AAa?$AAr?$AA?9?$AAk?$AAw@ 00000001400e4f90     libucrt:lcidtoname_downlevel.obj
 0002:0003bfa0       ??_C@_1M@EJALMLHM@?$AAa?$AAr?$AA?9?$AAl?$AAb@ 00000001400e4fa0     libucrt:lcidtoname_downlevel.obj
 0002:0003bfb0       ??_C@_1M@MOBDBLOC@?$AAa?$AAr?$AA?9?$AAl?$AAy@ 00000001400e4fb0     libucrt:lcidtoname_downlevel.obj
 0002:0003bfc0       ??_C@_1M@JAOCLHDH@?$AAa?$AAr?$AA?9?$AAm?$AAa@ 00000001400e4fc0     libucrt:lcidtoname_downlevel.obj
 0002:0003bfd0       ??_C@_1M@JHPMKJIE@?$AAa?$AAr?$AA?9?$AAo?$AAm@ 00000001400e4fd0     libucrt:lcidtoname_downlevel.obj
 0002:0003bfe0       ??_C@_1M@OEPGHFNH@?$AAa?$AAr?$AA?9?$AAq?$AAa@ 00000001400e4fe0     libucrt:lcidtoname_downlevel.obj
 0002:0003bff0       ??_C@_1M@KJDONENM@?$AAa?$AAr?$AA?9?$AAs?$AAa@ 00000001400e4ff0     libucrt:lcidtoname_downlevel.obj
 0002:0003c000       ??_C@_1M@DMJDKLKM@?$AAa?$AAr?$AA?9?$AAs?$AAy@ 00000001400e5000     libucrt:lcidtoname_downlevel.obj
 0002:0003c010       ??_C@_1M@OMFIPEDC@?$AAa?$AAr?$AA?9?$AAt?$AAn@ 00000001400e5010     libucrt:lcidtoname_downlevel.obj
 0002:0003c020       ??_C@_1M@IHMHGAON@?$AAa?$AAr?$AA?9?$AAy?$AAe@ 00000001400e5020     libucrt:lcidtoname_downlevel.obj
 0002:0003c030       ??_C@_1BG@KDCPGJGB@?$AAa?$AAz?$AA?9?$AAa?$AAz?$AA?9?$AAc?$AAy?$AAr?$AAl@ 00000001400e5030     libucrt:lcidtoname_downlevel.obj
 0002:0003c048       ??_C@_1BG@IBCKDDOE@?$AAa?$AAz?$AA?9?$AAa?$AAz?$AA?9?$AAl?$AAa?$AAt?$AAn@ 00000001400e5048     libucrt:lcidtoname_downlevel.obj
 0002:0003c060       ??_C@_1M@EGPFDCPD@?$AAb?$AAe?$AA?9?$AAb?$AAy@ 00000001400e5060     libucrt:lcidtoname_downlevel.obj
 0002:0003c070       ??_C@_1M@PCMGMCGC@?$AAb?$AAg?$AA?9?$AAb?$AAg@ 00000001400e5070     libucrt:lcidtoname_downlevel.obj
 0002:0003c080       ??_C@_1M@BJBMFGOB@?$AAb?$AAn?$AA?9?$AAi?$AAn@ 00000001400e5080     libucrt:lcidtoname_downlevel.obj
 0002:0003c090       ??_C@_1BG@EAKMMACD@?$AAb?$AAs?$AA?9?$AAb?$AAa?$AA?9?$AAl?$AAa?$AAt?$AAn@ 00000001400e5090     libucrt:lcidtoname_downlevel.obj
 0002:0003c0a8       ??_C@_1M@KGADAODK@?$AAc?$AAa?$AA?9?$AAe?$AAs@ 00000001400e50a8     libucrt:lcidtoname_downlevel.obj
 0002:0003c0b8       ??_C@_1M@COAJPDHI@?$AAc?$AAs?$AA?9?$AAc?$AAz@ 00000001400e50b8     libucrt:lcidtoname_downlevel.obj
 0002:0003c0c8       ??_C@_1M@DHBHFONH@?$AAc?$AAy?$AA?9?$AAg?$AAb@ 00000001400e50c8     libucrt:lcidtoname_downlevel.obj
 0002:0003c0d8       ??_C@_1M@IMGKELGA@?$AAd?$AAa?$AA?9?$AAd?$AAk@ 00000001400e50d8     libucrt:lcidtoname_downlevel.obj
 0002:0003c0e8       ??_C@_1M@NNDGDNGA@?$AAd?$AAe?$AA?9?$AAa?$AAt@ 00000001400e50e8     libucrt:lcidtoname_downlevel.obj
 0002:0003c0f8       ??_C@_1M@IKDBHEEM@?$AAd?$AAe?$AA?9?$AAc?$AAh@ 00000001400e50f8     libucrt:lcidtoname_downlevel.obj
 0002:0003c108       ??_C@_1M@GFFOJMCJ@?$AAd?$AAe?$AA?9?$AAd?$AAe@ 00000001400e5108     libucrt:lcidtoname_downlevel.obj
 0002:0003c118       ??_C@_1M@MDNLKBPM@?$AAd?$AAe?$AA?9?$AAl?$AAi@ 00000001400e5118     libucrt:lcidtoname_downlevel.obj
 0002:0003c128       ??_C@_1M@NJBEEJNL@?$AAd?$AAe?$AA?9?$AAl?$AAu@ 00000001400e5128     libucrt:lcidtoname_downlevel.obj
 0002:0003c138       ??_C@_1O@GNNELBAP@?$AAd?$AAi?$AAv?$AA?9?$AAm?$AAv@ 00000001400e5138     libucrt:lcidtoname_downlevel.obj
 0002:0003c148       ??_C@_1M@EJLEOGAE@?$AAe?$AAl?$AA?9?$AAg?$AAr@ 00000001400e5148     libucrt:lcidtoname_downlevel.obj
 0002:0003c158       ??_C@_1M@GMPONJN@?$AAe?$AAn?$AA?9?$AAa?$AAu@ 00000001400e5158     libucrt:lcidtoname_downlevel.obj
 0002:0003c168       ??_C@_1M@NIDIIPGF@?$AAe?$AAn?$AA?9?$AAb?$AAz@ 00000001400e5168     libucrt:lcidtoname_downlevel.obj
 0002:0003c178       ??_C@_1M@JEHMIMFO@?$AAe?$AAn?$AA?9?$AAc?$AAa@ 00000001400e5178     libucrt:lcidtoname_downlevel.obj
 0002:0003c188       ??_C@_1M@IGMJCDLA@?$AAe?$AAn?$AA?9?$AAc?$AAb@ 00000001400e5188     libucrt:lcidtoname_downlevel.obj
 0002:0003c198       ??_C@_1M@BNFIGBKG@?$AAe?$AAn?$AA?9?$AAg?$AAb@ 00000001400e5198     libucrt:lcidtoname_downlevel.obj
 0002:0003c1a8       ??_C@_1M@LKIFDIGP@?$AAe?$AAn?$AA?9?$AAi?$AAe@ 00000001400e51a8     libucrt:lcidtoname_downlevel.obj
 0002:0003c1b8       ??_C@_1M@PJKFGCCO@?$AAe?$AAn?$AA?9?$AAj?$AAm@ 00000001400e51b8     libucrt:lcidtoname_downlevel.obj
 0002:0003c1c8       ??_C@_1M@KPPKEPBO@?$AAe?$AAn?$AA?9?$AAn?$AAz@ 00000001400e51c8     libucrt:lcidtoname_downlevel.obj
 0002:0003c1d8       ??_C@_1M@GMDGLDOB@?$AAe?$AAn?$AA?9?$AAp?$AAh@ 00000001400e51d8     libucrt:lcidtoname_downlevel.obj
 0002:0003c1e8       ??_C@_1M@ONGIBJNA@?$AAe?$AAn?$AA?9?$AAt?$AAt@ 00000001400e51e8     libucrt:lcidtoname_downlevel.obj
 0002:0003c1f8       ??_C@_1M@LLODPCMM@?$AAe?$AAn?$AA?9?$AAu?$AAs@ 00000001400e51f8     libucrt:lcidtoname_downlevel.obj
 0002:0003c208       ??_C@_1M@LAKFNPAN@?$AAe?$AAn?$AA?9?$AAz?$AAa@ 00000001400e5208     libucrt:lcidtoname_downlevel.obj
 0002:0003c218       ??_C@_1M@MFNHNHEO@?$AAe?$AAn?$AA?9?$AAz?$AAw@ 00000001400e5218     libucrt:lcidtoname_downlevel.obj
 0002:0003c228       ??_C@_1M@EJEINPHM@?$AAe?$AAs?$AA?9?$AAa?$AAr@ 00000001400e5228     libucrt:lcidtoname_downlevel.obj
 0002:0003c238       ??_C@_1M@GNKPCCJA@?$AAe?$AAs?$AA?9?$AAb?$AAo@ 00000001400e5238     libucrt:lcidtoname_downlevel.obj
 0002:0003c248       ??_C@_1M@LEEGFONL@?$AAe?$AAs?$AA?9?$AAc?$AAl@ 00000001400e5248     libucrt:lcidtoname_downlevel.obj
 0002:0003c258       ??_C@_1M@KGPDPBDF@?$AAe?$AAs?$AA?9?$AAc?$AAo@ 00000001400e5258     libucrt:lcidtoname_downlevel.obj
 0002:0003c268       ??_C@_1M@EIAHOHH@?$AAe?$AAs?$AA?9?$AAc?$AAr@ 00000001400e5268     libucrt:lcidtoname_downlevel.obj
 0002:0003c278       ??_C@_1M@LLPGMBIN@?$AAe?$AAs?$AA?9?$AAd?$AAo@ 00000001400e5278     libucrt:lcidtoname_downlevel.obj
 0002:0003c288       ??_C@_1M@DKHMKNJA@?$AAe?$AAs?$AA?9?$AAe?$AAc@ 00000001400e5288     libucrt:lcidtoname_downlevel.obj
 0002:0003c298       ??_C@_1M@GKGFPKAP@?$AAe?$AAs?$AA?9?$AAe?$AAs@ 00000001400e5298     libucrt:lcidtoname_downlevel.obj
 0002:0003c2a8       ??_C@_1M@LKHKGDLN@?$AAe?$AAs?$AA?9?$AAg?$AAt@ 00000001400e52a8     libucrt:lcidtoname_downlevel.obj
 0002:0003c2b8       ??_C@_1M@HEIIGGJD@?$AAe?$AAs?$AA?9?$AAh?$AAn@ 00000001400e52b8     libucrt:lcidtoname_downlevel.obj
 0002:0003c2c8       ??_C@_1M@FBDHPPGD@?$AAe?$AAs?$AA?9?$AAm?$AAx@ 00000001400e52c8     libucrt:lcidtoname_downlevel.obj
 0002:0003c2d8       ??_C@_1M@DPAGLNDH@?$AAe?$AAs?$AA?9?$AAn?$AAi@ 00000001400e52d8     libucrt:lcidtoname_downlevel.obj
 0002:0003c2e8       ??_C@_1M@MDGOPGDD@?$AAe?$AAs?$AA?9?$AAp?$AAa@ 00000001400e52e8     libucrt:lcidtoname_downlevel.obj
 0002:0003c2f8       ??_C@_1M@EMAMGBGE@?$AAe?$AAs?$AA?9?$AAp?$AAe@ 00000001400e52f8     libucrt:lcidtoname_downlevel.obj
 0002:0003c308       ??_C@_1M@IBMCAOEC@?$AAe?$AAs?$AA?9?$AAp?$AAr@ 00000001400e5308     libucrt:lcidtoname_downlevel.obj
 0002:0003c318       ??_C@_1M@FGMDIJED@?$AAe?$AAs?$AA?9?$AAp?$AAy@ 00000001400e5318     libucrt:lcidtoname_downlevel.obj
 0002:0003c328       ??_C@_1M@IIDEOLLL@?$AAe?$AAs?$AA?9?$AAs?$AAv@ 00000001400e5328     libucrt:lcidtoname_downlevel.obj
 0002:0003c338       ??_C@_1M@GAOBIPA@?$AAe?$AAs?$AA?9?$AAu?$AAy@ 00000001400e5338     libucrt:lcidtoname_downlevel.obj
 0002:0003c348       ??_C@_1M@JKFFICHJ@?$AAe?$AAs?$AA?9?$AAv?$AAe@ 00000001400e5348     libucrt:lcidtoname_downlevel.obj
 0002:0003c358       ??_C@_1M@PNMLOJDF@?$AAe?$AAt?$AA?9?$AAe?$AAe@ 00000001400e5358     libucrt:lcidtoname_downlevel.obj
 0002:0003c368       ??_C@_1M@GHHLIKEI@?$AAe?$AAu?$AA?9?$AAe?$AAs@ 00000001400e5368     libucrt:lcidtoname_downlevel.obj
 0002:0003c378       ??_C@_1M@PBNONODE@?$AAf?$AAa?$AA?9?$AAi?$AAr@ 00000001400e5378     libucrt:lcidtoname_downlevel.obj
 0002:0003c388       ??_C@_1M@JEEHPMIL@?$AAf?$AAi?$AA?9?$AAf?$AAi@ 00000001400e5388     libucrt:lcidtoname_downlevel.obj
 0002:0003c398       ??_C@_1M@LMDCNDBA@?$AAf?$AAo?$AA?9?$AAf?$AAo@ 00000001400e5398     libucrt:lcidtoname_downlevel.obj
 0002:0003c3a8       ??_C@_1M@JKEOHLDK@?$AAf?$AAr?$AA?9?$AAb?$AAe@ 00000001400e53a8     libucrt:lcidtoname_downlevel.obj
 0002:0003c3b8       ??_C@_1M@NOHADPMI@?$AAf?$AAr?$AA?9?$AAc?$AAa@ 00000001400e53b8     libucrt:lcidtoname_downlevel.obj
 0002:0003c3c8       ??_C@_1M@KDHIHAEC@?$AAf?$AAr?$AA?9?$AAc?$AAh@ 00000001400e53c8     libucrt:lcidtoname_downlevel.obj
 0002:0003c3d8       ??_C@_1M@MMBBFGAK@?$AAf?$AAr?$AA?9?$AAf?$AAr@ 00000001400e53d8     libucrt:lcidtoname_downlevel.obj
 0002:0003c3e8       ??_C@_1M@PAFNENNF@?$AAf?$AAr?$AA?9?$AAl?$AAu@ 00000001400e53e8     libucrt:lcidtoname_downlevel.obj
 0002:0003c3f8       ??_C@_1M@EOHDJGDD@?$AAf?$AAr?$AA?9?$AAm?$AAc@ 00000001400e53f8     libucrt:lcidtoname_downlevel.obj
 0002:0003c408       ??_C@_1M@FAPLLOPF@?$AAg?$AAl?$AA?9?$AAe?$AAs@ 00000001400e5408     libucrt:lcidtoname_downlevel.obj
 0002:0003c418       ??_C@_1M@FOPBFLOO@?$AAg?$AAu?$AA?9?$AAi?$AAn@ 00000001400e5418     libucrt:lcidtoname_downlevel.obj
 0002:0003c428       ??_C@_1M@KBMCINPM@?$AAh?$AAe?$AA?9?$AAi?$AAl@ 00000001400e5428     libucrt:lcidtoname_downlevel.obj
 0002:0003c438       ??_C@_1M@BBPHKFPJ@?$AAh?$AAi?$AA?9?$AAi?$AAn@ 00000001400e5438     libucrt:lcidtoname_downlevel.obj
 0002:0003c448       ??_C@_1M@PMBNDPHD@?$AAh?$AAr?$AA?9?$AAb?$AAa@ 00000001400e5448     libucrt:lcidtoname_downlevel.obj
 0002:0003c458       ??_C@_1M@BPCKOEGE@?$AAh?$AAr?$AA?9?$AAh?$AAr@ 00000001400e5458     libucrt:lcidtoname_downlevel.obj
 0002:0003c468       ??_C@_1M@GACBMHKE@?$AAh?$AAu?$AA?9?$AAh?$AAu@ 00000001400e5468     libucrt:lcidtoname_downlevel.obj
 0002:0003c478       ??_C@_1M@MILPAJJC@?$AAh?$AAy?$AA?9?$AAa?$AAm@ 00000001400e5478     libucrt:lcidtoname_downlevel.obj
 0002:0003c488       ??_C@_1M@BABBICEC@?$AAi?$AAd?$AA?9?$AAi?$AAd@ 00000001400e5488     libucrt:lcidtoname_downlevel.obj
 0002:0003c498       ??_C@_1M@BIKNHHPF@?$AAi?$AAs?$AA?9?$AAi?$AAs@ 00000001400e5498     libucrt:lcidtoname_downlevel.obj
 0002:0003c4a8       ??_C@_1M@NMPCJPHE@?$AAi?$AAt?$AA?9?$AAc?$AAh@ 00000001400e54a8     libucrt:lcidtoname_downlevel.obj
 0002:0003c4b8       ??_C@_1M@GHKGFEDF@?$AAi?$AAt?$AA?9?$AAi?$AAt@ 00000001400e54b8     libucrt:lcidtoname_downlevel.obj
 0002:0003c4c8       ??_C@_1M@NIEJCJJA@?$AAj?$AAa?$AA?9?$AAj?$AAp@ 00000001400e54c8     libucrt:lcidtoname_downlevel.obj
 0002:0003c4d8       ??_C@_1M@JILFNBIM@?$AAk?$AAa?$AA?9?$AAg?$AAe@ 00000001400e54d8     libucrt:lcidtoname_downlevel.obj
 0002:0003c4e8       ??_C@_1M@PACPMGPH@?$AAk?$AAk?$AA?9?$AAk?$AAz@ 00000001400e54e8     libucrt:lcidtoname_downlevel.obj
 0002:0003c4f8       ??_C@_1M@IELFGMHA@?$AAk?$AAn?$AA?9?$AAi?$AAn@ 00000001400e54f8     libucrt:lcidtoname_downlevel.obj
 0002:0003c508       ??_C@_1O@IBBJHCH@?$AAk?$AAo?$AAk?$AA?9?$AAi?$AAn@ 00000001400e5508     libucrt:lcidtoname_downlevel.obj
 0002:0003c518       ??_C@_1M@DMHAEOGC@?$AAk?$AAo?$AA?9?$AAk?$AAr@ 00000001400e5518     libucrt:lcidtoname_downlevel.obj
 0002:0003c528       ??_C@_1M@HBAHBIGA@?$AAk?$AAy?$AA?9?$AAk?$AAg@ 00000001400e5528     libucrt:lcidtoname_downlevel.obj
 0002:0003c538       ??_C@_1M@KPMILCJG@?$AAl?$AAt?$AA?9?$AAl?$AAt@ 00000001400e5538     libucrt:lcidtoname_downlevel.obj
 0002:0003c548       ??_C@_1M@BDEKKCA@?$AAl?$AAv?$AA?9?$AAl?$AAv@ 00000001400e5548     libucrt:lcidtoname_downlevel.obj
 0002:0003c558       ??_C@_1M@ELCKCCJJ@?$AAm?$AAi?$AA?9?$AAn?$AAz@ 00000001400e5558     libucrt:lcidtoname_downlevel.obj
 0002:0003c568       ??_C@_1M@CBOOLAPA@?$AAm?$AAk?$AA?9?$AAm?$AAk@ 00000001400e5568     libucrt:lcidtoname_downlevel.obj
 0002:0003c578       ??_C@_1M@GPHNBJKN@?$AAm?$AAl?$AA?9?$AAi?$AAn@ 00000001400e5578     libucrt:lcidtoname_downlevel.obj
 0002:0003c588       ??_C@_1M@PABJILIG@?$AAm?$AAn?$AA?9?$AAm?$AAn@ 00000001400e5588     libucrt:lcidtoname_downlevel.obj
 0002:0003c598       ??_C@_1M@FGBKKIPG@?$AAm?$AAr?$AA?9?$AAi?$AAn@ 00000001400e5598     libucrt:lcidtoname_downlevel.obj
 0002:0003c5a8       ??_C@_1M@NDBPDDAL@?$AAm?$AAs?$AA?9?$AAb?$AAn@ 00000001400e55a8     libucrt:lcidtoname_downlevel.obj
 0002:0003c5b8       ??_C@_1M@OPIHOOPI@?$AAm?$AAs?$AA?9?$AAm?$AAy@ 00000001400e55b8     libucrt:lcidtoname_downlevel.obj
 0002:0003c5c8       ??_C@_1M@PPDBCNFM@?$AAm?$AAt?$AA?9?$AAm?$AAt@ 00000001400e55c8     libucrt:lcidtoname_downlevel.obj
 0002:0003c5d8       ??_C@_1M@KDJDKMDD@?$AAn?$AAb?$AA?9?$AAn?$AAo@ 00000001400e55d8     libucrt:lcidtoname_downlevel.obj
 0002:0003c5e8       ??_C@_1M@KFCFLMJP@?$AAn?$AAl?$AA?9?$AAb?$AAe@ 00000001400e55e8     libucrt:lcidtoname_downlevel.obj
 0002:0003c5f8       ??_C@_1M@KPOPDDGO@?$AAn?$AAl?$AA?9?$AAn?$AAl@ 00000001400e55f8     libucrt:lcidtoname_downlevel.obj
 0002:0003c608       ??_C@_1M@LJKPEMLN@?$AAn?$AAn?$AA?9?$AAn?$AAo@ 00000001400e5608     libucrt:lcidtoname_downlevel.obj
 0002:0003c618       ??_C@_1M@BDGHHBFL@?$AAn?$AAs?$AA?9?$AAz?$AAa@ 00000001400e5618     libucrt:lcidtoname_downlevel.obj
 0002:0003c628       ??_C@_1M@IDEHOAP@?$AAp?$AAa?$AA?9?$AAi?$AAn@ 00000001400e5628     libucrt:lcidtoname_downlevel.obj
 0002:0003c638       ??_C@_1M@HDBKGOGH@?$AAp?$AAl?$AA?9?$AAp?$AAl@ 00000001400e5638     libucrt:lcidtoname_downlevel.obj
 0002:0003c648       ??_C@_1M@LJLLCMEH@?$AAp?$AAt?$AA?9?$AAb?$AAr@ 00000001400e5648     libucrt:lcidtoname_downlevel.obj
 0002:0003c658       ??_C@_1M@NCMONAAL@?$AAp?$AAt?$AA?9?$AAp?$AAt@ 00000001400e5658     libucrt:lcidtoname_downlevel.obj
 0002:0003c668       ??_C@_1O@EAKMAJDN@?$AAq?$AAu?$AAz?$AA?9?$AAb?$AAo@ 00000001400e5668     libucrt:lcidtoname_downlevel.obj
 0002:0003c678       ??_C@_1O@BHHPIGDN@?$AAq?$AAu?$AAz?$AA?9?$AAe?$AAc@ 00000001400e5678     libucrt:lcidtoname_downlevel.obj
 0002:0003c688       ??_C@_1O@GBAPEKMJ@?$AAq?$AAu?$AAz?$AA?9?$AAp?$AAe@ 00000001400e5688     libucrt:lcidtoname_downlevel.obj
 0002:0003c698       ??_C@_1M@CLGLEFBO@?$AAr?$AAo?$AA?9?$AAr?$AAo@ 00000001400e5698     libucrt:lcidtoname_downlevel.obj
 0002:0003c6a8       ??_C@_1M@CEEDODME@?$AAr?$AAu?$AA?9?$AAr?$AAu@ 00000001400e56a8     libucrt:lcidtoname_downlevel.obj
 0002:0003c6b8       ??_C@_1M@HPKKKMPP@?$AAs?$AAa?$AA?9?$AAi?$AAn@ 00000001400e56b8     libucrt:lcidtoname_downlevel.obj
 0002:0003c6c8       ??_C@_1M@BKMAIGOJ@?$AAs?$AAe?$AA?9?$AAf?$AAi@ 00000001400e56c8     libucrt:lcidtoname_downlevel.obj
 0002:0003c6d8       ??_C@_1M@NDPIFLFI@?$AAs?$AAe?$AA?9?$AAn?$AAo@ 00000001400e56d8     libucrt:lcidtoname_downlevel.obj
 0002:0003c6e8       ??_C@_1M@DANKKHJ@?$AAs?$AAe?$AA?9?$AAs?$AAe@ 00000001400e56e8     libucrt:lcidtoname_downlevel.obj
 0002:0003c6f8       ??_C@_1M@PNBLONPJ@?$AAs?$AAk?$AA?9?$AAs?$AAk@ 00000001400e56f8     libucrt:lcidtoname_downlevel.obj
 0002:0003c708       ??_C@_1M@LFMODOAL@?$AAs?$AAl?$AA?9?$AAs?$AAi@ 00000001400e5708     libucrt:lcidtoname_downlevel.obj
 0002:0003c718       ??_C@_1O@DFKOMPG@?$AAs?$AAm?$AAa?$AA?9?$AAn?$AAo@ 00000001400e5718     libucrt:lcidtoname_downlevel.obj
 0002:0003c728       ??_C@_1O@NDKPBNNH@?$AAs?$AAm?$AAa?$AA?9?$AAs?$AAe@ 00000001400e5728     libucrt:lcidtoname_downlevel.obj
 0002:0003c738       ??_C@_1O@PLLKBHAB@?$AAs?$AAm?$AAj?$AA?9?$AAn?$AAo@ 00000001400e5738     libucrt:lcidtoname_downlevel.obj
 0002:0003c748       ??_C@_1O@CLEPOGCA@?$AAs?$AAm?$AAj?$AA?9?$AAs?$AAe@ 00000001400e5748     libucrt:lcidtoname_downlevel.obj
 0002:0003c758       ??_C@_1O@DLGJGKMK@?$AAs?$AAm?$AAn?$AA?9?$AAf?$AAi@ 00000001400e5758     libucrt:lcidtoname_downlevel.obj
 0002:0003c768       ??_C@_1O@OJDJGAJC@?$AAs?$AAm?$AAs?$AA?9?$AAf?$AAi@ 00000001400e5768     libucrt:lcidtoname_downlevel.obj
 0002:0003c778       ??_C@_1M@BOFOGHPB@?$AAs?$AAq?$AA?9?$AAa?$AAl@ 00000001400e5778     libucrt:lcidtoname_downlevel.obj
 0002:0003c788       ??_C@_1BG@LJBBIPGB@?$AAs?$AAr?$AA?9?$AAb?$AAa?$AA?9?$AAc?$AAy?$AAr?$AAl@ 00000001400e5788     libucrt:lcidtoname_downlevel.obj
 0002:0003c7a0       ??_C@_1BG@JLBENFOE@?$AAs?$AAr?$AA?9?$AAb?$AAa?$AA?9?$AAl?$AAa?$AAt?$AAn@ 00000001400e57a0     libucrt:lcidtoname_downlevel.obj
 0002:0003c7b8       ??_C@_1BG@KODPNHE@?$AAs?$AAr?$AA?9?$AAs?$AAp?$AA?9?$AAc?$AAy?$AAr?$AAl@ 00000001400e57b8     libucrt:lcidtoname_downlevel.obj
 0002:0003c7d0       ??_C@_1BG@CIOGKHPB@?$AAs?$AAr?$AA?9?$AAs?$AAp?$AA?9?$AAl?$AAa?$AAt?$AAn@ 00000001400e57d0     libucrt:lcidtoname_downlevel.obj
 0002:0003c7e8       ??_C@_1M@NGFJLMAC@?$AAs?$AAv?$AA?9?$AAf?$AAi@ 00000001400e57e8     libucrt:lcidtoname_downlevel.obj
 0002:0003c7f8       ??_C@_1M@MPJEJAJC@?$AAs?$AAv?$AA?9?$AAs?$AAe@ 00000001400e57f8     libucrt:lcidtoname_downlevel.obj
 0002:0003c808       ??_C@_1M@MPNDHLFK@?$AAs?$AAw?$AA?9?$AAk?$AAe@ 00000001400e5808     libucrt:lcidtoname_downlevel.obj
 0002:0003c818       ??_C@_1O@KOHBJJI@?$AAs?$AAy?$AAr?$AA?9?$AAs?$AAy@ 00000001400e5818     libucrt:lcidtoname_downlevel.obj
 0002:0003c828       ??_C@_1M@LDCEFHA@?$AAt?$AAa?$AA?9?$AAi?$AAn@ 00000001400e5828     libucrt:lcidtoname_downlevel.obj
 0002:0003c838       ??_C@_1M@CNJOFAK@?$AAt?$AAe?$AA?9?$AAi?$AAn@ 00000001400e5838     libucrt:lcidtoname_downlevel.obj
 0002:0003c848       ??_C@_1M@GNAECACD@?$AAt?$AAh?$AA?9?$AAt?$AAh@ 00000001400e5848     libucrt:lcidtoname_downlevel.obj
 0002:0003c858       ??_C@_1M@CHBIHOJO@?$AAt?$AAn?$AA?9?$AAz?$AAa@ 00000001400e5858     libucrt:lcidtoname_downlevel.obj
 0002:0003c868       ??_C@_1M@GCCMIGPJ@?$AAt?$AAr?$AA?9?$AAt?$AAr@ 00000001400e5868     libucrt:lcidtoname_downlevel.obj
 0002:0003c878       ??_C@_1M@CELMCNBK@?$AAt?$AAt?$AA?9?$AAr?$AAu@ 00000001400e5878     libucrt:lcidtoname_downlevel.obj
 0002:0003c888       ??_C@_1M@KLMCELGA@?$AAu?$AAk?$AA?9?$AAu?$AAa@ 00000001400e5888     libucrt:lcidtoname_downlevel.obj
 0002:0003c898       ??_C@_1M@EPAJJAJF@?$AAu?$AAr?$AA?9?$AAp?$AAk@ 00000001400e5898     libucrt:lcidtoname_downlevel.obj
 0002:0003c8a8       ??_C@_1BG@GEGPMCDJ@?$AAu?$AAz?$AA?9?$AAu?$AAz?$AA?9?$AAc?$AAy?$AAr?$AAl@ 00000001400e58a8     libucrt:lcidtoname_downlevel.obj
 0002:0003c8c0       ??_C@_1BG@EGGKJILM@?$AAu?$AAz?$AA?9?$AAu?$AAz?$AA?9?$AAl?$AAa?$AAt?$AAn@ 00000001400e58c0     libucrt:lcidtoname_downlevel.obj
 0002:0003c8d8       ??_C@_1M@GFOCLFF@?$AAv?$AAi?$AA?9?$AAv?$AAn@ 00000001400e58d8     libucrt:lcidtoname_downlevel.obj
 0002:0003c8e8       ??_C@_1M@CPAMEDFI@?$AAx?$AAh?$AA?9?$AAz?$AAa@ 00000001400e58e8     libucrt:lcidtoname_downlevel.obj
 0002:0003c8f8       ??_C@_1O@EBKIFIGN@?$AAz?$AAh?$AA?9?$AAc?$AAh?$AAs@ 00000001400e58f8     libucrt:lcidtoname_downlevel.obj
 0002:0003c908       ??_C@_1O@NMHPGANE@?$AAz?$AAh?$AA?9?$AAc?$AAh?$AAt@ 00000001400e5908     libucrt:lcidtoname_downlevel.obj
 0002:0003c918       ??_C@_1M@LPINJOMC@?$AAz?$AAh?$AA?9?$AAc?$AAn@ 00000001400e5918     libucrt:lcidtoname_downlevel.obj
 0002:0003c928       ??_C@_1M@OCJEJODD@?$AAz?$AAh?$AA?9?$AAh?$AAk@ 00000001400e5928     libucrt:lcidtoname_downlevel.obj
 0002:0003c938       ??_C@_1M@DNDLJINH@?$AAz?$AAh?$AA?9?$AAm?$AAo@ 00000001400e5938     libucrt:lcidtoname_downlevel.obj
 0002:0003c948       ??_C@_1M@MBFDNDND@?$AAz?$AAh?$AA?9?$AAs?$AAg@ 00000001400e5948     libucrt:lcidtoname_downlevel.obj
 0002:0003c958       ??_C@_1M@IMEPLEPE@?$AAz?$AAh?$AA?9?$AAt?$AAw@ 00000001400e5958     libucrt:lcidtoname_downlevel.obj
 0002:0003c968       ??_C@_1M@BBGHNHJP@?$AAz?$AAu?$AA?9?$AAz?$AAa@ 00000001400e5968     libucrt:lcidtoname_downlevel.obj
 0002:0003cbd0       ??_C@_1BA@BALFACEM@?$AAC?$AAO?$AAN?$AAO?$AAU?$AAT?$AA$@ 00000001400e5bd0     libucrt:initcon.obj
 0002:0003cbe0       __log10_256_lead           00000001400e5be0     libucrt:log10_256_lead_tail_table.obj
 0002:0003d3f0       __log10_256_tail           00000001400e63f0     libucrt:log10_256_lead_tail_table.obj
 0002:0003dbf8       _Asan_string_should_annotate 00000001400e6bf8     libcpmt:asan_noop.obj
 0002:0003dbf8       _Asan_string_should_annotate_default 00000001400e6bf8     libcpmt:asan_noop.obj
 0002:0003dbf9       _Asan_vector_should_annotate_default 00000001400e6bf9     libcpmt:asan_noop.obj
 0002:0003dc00       _load_config_used          00000001400e6c00     LIBCMT:loadcfg.obj
 0002:0003df00       _tls_used                  00000001400e6f00     LIBCMT:tlssup.obj
 0002:0003df28       ??_R4exception@std@@6B@    00000001400e6f28     main.obj
 0002:0003df50       ??_R3exception@std@@8      00000001400e6f50     main.obj
 0002:0003df68       ??_R2exception@std@@8      00000001400e6f68     main.obj
 0002:0003df78       ??_R1A@?0A@EA@exception@std@@8 00000001400e6f78     main.obj
 0002:0003dfa0       ??_R4bad_array_new_length@std@@6B@ 00000001400e6fa0     main.obj
 0002:0003dfc8       ??_R3bad_array_new_length@std@@8 00000001400e6fc8     main.obj
 0002:0003dfe0       ??_R2bad_array_new_length@std@@8 00000001400e6fe0     main.obj
 0002:0003e000       ??_R1A@?0A@EA@bad_array_new_length@std@@8 00000001400e7000     main.obj
 0002:0003e028       ??_R1A@?0A@EA@bad_alloc@std@@8 00000001400e7028     main.obj
 0002:0003e050       ??_R3bad_alloc@std@@8      00000001400e7050     main.obj
 0002:0003e068       ??_R2bad_alloc@std@@8      00000001400e7068     main.obj
 0002:0003e080       ??_R4bad_alloc@std@@6B@    00000001400e7080     main.obj
 0002:0003e0a8       ??_R4bad_cast@std@@6B@     00000001400e70a8     main.obj
 0002:0003e0d0       ??_R3bad_cast@std@@8       00000001400e70d0     main.obj
 0002:0003e0e8       ??_R2bad_cast@std@@8       00000001400e70e8     main.obj
 0002:0003e100       ??_R1A@?0A@EA@bad_cast@std@@8 00000001400e7100     main.obj
 0002:0003e128       ??_R4runtime_error@std@@6B@ 00000001400e7128     main.obj
 0002:0003e150       ??_R3runtime_error@std@@8  00000001400e7150     main.obj
 0002:0003e168       ??_R2runtime_error@std@@8  00000001400e7168     main.obj
 0002:0003e180       ??_R1A@?0A@EA@runtime_error@std@@8 00000001400e7180     main.obj
 0002:0003e1a8       ??_R3error_category@std@@8 00000001400e71a8     main.obj
 0002:0003e1c0       ??_R2error_category@std@@8 00000001400e71c0     main.obj
 0002:0003e1d0       ??_R1A@?0A@EA@error_category@std@@8 00000001400e71d0     main.obj
 0002:0003e1f8       ??_R4_System_error@std@@6B@ 00000001400e71f8     main.obj
 0002:0003e220       ??_R3_System_error@std@@8  00000001400e7220     main.obj
 0002:0003e238       ??_R2_System_error@std@@8  00000001400e7238     main.obj
 0002:0003e258       ??_R1A@?0A@EA@_System_error@std@@8 00000001400e7258     main.obj
 0002:0003e280       ??_R4system_error@std@@6B@ 00000001400e7280     main.obj
 0002:0003e2a8       ??_R3system_error@std@@8   00000001400e72a8     main.obj
 0002:0003e2c0       ??_R2system_error@std@@8   00000001400e72c0     main.obj
 0002:0003e2e8       ??_R1A@?0A@EA@system_error@std@@8 00000001400e72e8     main.obj
 0002:0003e310       ??_R4_Generic_error_category@std@@6B@ 00000001400e7310     main.obj
 0002:0003e338       ??_R3_Generic_error_category@std@@8 00000001400e7338     main.obj
 0002:0003e350       ??_R2_Generic_error_category@std@@8 00000001400e7350     main.obj
 0002:0003e368       ??_R1A@?0A@EA@_Generic_error_category@std@@8 00000001400e7368     main.obj
 0002:0003e390       ??_R4_System_error_category@std@@6B@ 00000001400e7390     main.obj
 0002:0003e3b8       ??_R3_System_error_category@std@@8 00000001400e73b8     main.obj
 0002:0003e3d0       ??_R2_System_error_category@std@@8 00000001400e73d0     main.obj
 0002:0003e3e8       ??_R1A@?0A@EA@_System_error_category@std@@8 00000001400e73e8     main.obj
 0002:0003e410       ??_R4_Facet_base@std@@6B@  00000001400e7410     main.obj
 0002:0003e438       ??_R3_Facet_base@std@@8    00000001400e7438     main.obj
 0002:0003e450       ??_R2_Facet_base@std@@8    00000001400e7450     main.obj
 0002:0003e460       ??_R1A@?0A@EA@_Facet_base@std@@8 00000001400e7460     main.obj
 0002:0003e488       ??_R3facet@locale@std@@8   00000001400e7488     main.obj
 0002:0003e4a0       ??_R2facet@locale@std@@8   00000001400e74a0     main.obj
 0002:0003e4c0       ??_R1A@?0A@EA@facet@locale@std@@8 00000001400e74c0     main.obj
 0002:0003e4e8       ??_R17?0A@EA@_Crt_new_delete@std@@8 00000001400e74e8     main.obj
 0002:0003e510       ??_R3_Crt_new_delete@std@@8 00000001400e7510     main.obj
 0002:0003e528       ??_R2_Crt_new_delete@std@@8 00000001400e7528     main.obj
 0002:0003e538       ??_R1A@?0A@EA@_Crt_new_delete@std@@8 00000001400e7538     main.obj
 0002:0003e560       ??_R4format_error@std@@6B@ 00000001400e7560     main.obj
 0002:0003e588       ??_R3format_error@std@@8   00000001400e7588     main.obj
 0002:0003e5a0       ??_R2format_error@std@@8   00000001400e75a0     main.obj
 0002:0003e5c0       ??_R1A@?0A@EA@format_error@std@@8 00000001400e75c0     main.obj
 0002:0003e5e8       ??_R3?$_Fmt_buffer@_W@std@@8 00000001400e75e8     main.obj
 0002:0003e600       ??_R2?$_Fmt_buffer@_W@std@@8 00000001400e7600     main.obj
 0002:0003e610       ??_R1A@?0A@EA@?$_Fmt_buffer@_W@std@@8 00000001400e7610     main.obj
 0002:0003e638       ??_R4filesystem_error@filesystem@std@@6B@ 00000001400e7638     main.obj
 0002:0003e660       ??_R3filesystem_error@filesystem@std@@8 00000001400e7660     main.obj
 0002:0003e678       ??_R2filesystem_error@filesystem@std@@8 00000001400e7678     main.obj
 0002:0003e6a8       ??_R1A@?0A@EA@filesystem_error@filesystem@std@@8 00000001400e76a8     main.obj
 0002:0003e6d0       ??_R4?$_Fmt_iterator_buffer@V?$back_insert_iterator@V?$basic_string@_WU?$char_traits@_W@std@@V?$allocator@_W@2@@std@@@std@@_WU_Fmt_buffer_traits@2@@std@@6B@ 00000001400e76d0     main.obj
 0002:0003e6f8       ??_R3?$_Fmt_iterator_buffer@V?$back_insert_iterator@V?$basic_string@_WU?$char_traits@_W@std@@V?$allocator@_W@2@@std@@@std@@_WU_Fmt_buffer_traits@2@@std@@8 00000001400e76f8     main.obj
 0002:0003e710       ??_R2?$_Fmt_iterator_buffer@V?$back_insert_iterator@V?$basic_string@_WU?$char_traits@_W@std@@V?$allocator@_W@2@@std@@@std@@_WU_Fmt_buffer_traits@2@@std@@8 00000001400e7710     main.obj
 0002:0003e730       ??_R1A@?0A@EA@?$_Fmt_iterator_buffer@V?$back_insert_iterator@V?$basic_string@_WU?$char_traits@_W@std@@V?$allocator@_W@2@@std@@@std@@_WU_Fmt_buffer_traits@2@@std@@8 00000001400e7730     main.obj
 0002:0003e758       ??_R1CA@?0A@EA@_Fmt_buffer_traits@std@@8 00000001400e7758     main.obj
 0002:0003e780       ??_R3_Fmt_buffer_traits@std@@8 00000001400e7780     main.obj
 0002:0003e798       ??_R2_Fmt_buffer_traits@std@@8 00000001400e7798     main.obj
 0002:0003e7a8       ??_R1A@?0A@EA@_Fmt_buffer_traits@std@@8 00000001400e77a8     main.obj
 0002:0003e7d0       ??_R4?$numpunct@_W@std@@6B@ 00000001400e77d0     main.obj
 0002:0003e7f8       ??_R3?$numpunct@_W@std@@8  00000001400e77f8     main.obj
 0002:0003e810       ??_R2?$numpunct@_W@std@@8  00000001400e7810     main.obj
 0002:0003e838       ??_R1A@?0A@EA@?$numpunct@_W@std@@8 00000001400e7838     main.obj
 0002:0003e860       ??_R4logic_error@std@@6B@  00000001400e7860     libcpmt:xthrow.obj
 0002:0003e888       ??_R3logic_error@std@@8    00000001400e7888     libcpmt:xthrow.obj
 0002:0003e8a0       ??_R2logic_error@std@@8    00000001400e78a0     libcpmt:xthrow.obj
 0002:0003e8b8       ??_R1A@?0A@EA@logic_error@std@@8 00000001400e78b8     libcpmt:xthrow.obj
 0002:0003e8e0       ??_R4length_error@std@@6B@ 00000001400e78e0     libcpmt:xthrow.obj
 0002:0003e908       ??_R3length_error@std@@8   00000001400e7908     libcpmt:xthrow.obj
 0002:0003e920       ??_R2length_error@std@@8   00000001400e7920     libcpmt:xthrow.obj
 0002:0003e940       ??_R1A@?0A@EA@length_error@std@@8 00000001400e7940     libcpmt:xthrow.obj
 0002:0003e968       ??_R4out_of_range@std@@6B@ 00000001400e7968     libcpmt:xthrow.obj
 0002:0003e990       ??_R3out_of_range@std@@8   00000001400e7990     libcpmt:xthrow.obj
 0002:0003e9a8       ??_R2out_of_range@std@@8   00000001400e79a8     libcpmt:xthrow.obj
 0002:0003e9c8       ??_R1A@?0A@EA@out_of_range@std@@8 00000001400e79c8     libcpmt:xthrow.obj
 0002:0003e9f0       ??_R4_Locimp@locale@std@@6B@ 00000001400e79f0     libcpmt:locale0.obj
 0002:0003ea18       ??_R3_Locimp@locale@std@@8 00000001400e7a18     libcpmt:locale0.obj
 0002:0003ea30       ??_R2_Locimp@locale@std@@8 00000001400e7a30     libcpmt:locale0.obj
 0002:0003ea58       ??_R1A@?0A@EA@_Locimp@locale@std@@8 00000001400e7a58     libcpmt:locale0.obj
 0002:0003ea80       ??_R4type_info@@6B@        00000001400e7a80     LIBCMT:std_type_info_static.obj
 0002:0003eaa8       ??_R3type_info@@8          00000001400e7aa8     LIBCMT:std_type_info_static.obj
 0002:0003eac0       ??_R2type_info@@8          00000001400e7ac0     LIBCMT:std_type_info_static.obj
 0002:0003ead0       ??_R1A@?0A@EA@type_info@@8 00000001400e7ad0     LIBCMT:std_type_info_static.obj
 0002:0003eaf8       ??_R4bad_exception@std@@6B@ 00000001400e7af8     libvcruntime:frame.obj
 0002:0003eb20       ??_R3bad_exception@std@@8  00000001400e7b20     libvcruntime:frame.obj
 0002:0003eb38       ??_R2bad_exception@std@@8  00000001400e7b38     libvcruntime:frame.obj
 0002:0003eb50       ??_R1A@?0A@EA@bad_exception@std@@8 00000001400e7b50     libvcruntime:frame.obj
 0002:0003eb74       __volatile_metadata        00000001400e7b74     <linker-defined>
 0002:0003f588       __rtc_iaa                  00000001400e8588     LIBCMT:initsect.obj
 0002:0003f590       __rtc_izz                  00000001400e8590     LIBCMT:initsect.obj
 0002:0003f598       __rtc_taa                  00000001400e8598     LIBCMT:initsect.obj
 0002:0003f5a0       __rtc_tzz                  00000001400e85a0     LIBCMT:initsect.obj
 0002:0003f5b0       _tls_start                 00000001400e85b0     LIBCMT:tlssup.obj
 0002:0003f5c0       ?buf@?1??decrypt@?$ObfWStr@$0FEBLBAMN@$0BI@@detail@obf@@QEBAPEB_WXZ@4PA_WA 00000001400e85c0     main.obj
 0002:0003f5f0       ?buf@?1??decrypt@?$ObfWStr@$0FEAJMGFE@$0EN@@detail@obf@@QEBAPEB_WXZ@4PA_WA 00000001400e85f0     main.obj
 0002:0003f690       ?buf@?1??decrypt@?$ObfStr@$0FDPGONNL@$08@detail@obf@@QEBAPEBDXZ@4PADA 00000001400e8690     main.obj
 0002:0003f69c       ?buf@?1??decrypt@?$ObfStr@$0FDODJEKC@$05@detail@obf@@QEBAPEBDXZ@4PADA 00000001400e869c     main.obj
 0002:0003f6a4       ?buf@?1??decrypt@?$ObfStr@$0FDNALKCJ@$05@detail@obf@@QEBAPEBDXZ@4PADA 00000001400e86a4     main.obj
 0002:0003f6ac       ?buf@?1??decrypt@?$ObfStr@$0FDLNGBLA@$06@detail@obf@@QEBAPEBDXZ@4PADA 00000001400e86ac     main.obj
 0002:0003f6b3       ?buf@?1??decrypt@?$ObfStr@$0FDKKBHDH@$00@detail@obf@@QEBAPEBDXZ@4PADA 00000001400e86b3     main.obj
 0002:0003f6b8       ?buf@?1??decrypt@?$ObfStr@$0FDJHDOLO@$0BE@@detail@obf@@QEBAPEBDXZ@4PADA 00000001400e86b8     main.obj
 0002:0003f6d0       ?buf@?1??decrypt@?$ObfStr@$0FDIFOEAF@$0BO@@detail@obf@@QEBAPEBDXZ@4PADA 00000001400e86d0     main.obj
 0002:0003f6f0       ?buf@?1??decrypt@?$ObfStr@$0FDHCILIM@$0CG@@detail@obf@@QEBAPEBDXZ@4PADA 00000001400e86f0     main.obj
 0002:0003f716       ?buf@?1??decrypt@?$ObfStr@$0FDFPLBBD@$00@detail@obf@@QEBAPEBDXZ@4PADA 00000001400e8716     main.obj
 0002:0003f718       ?buf@?1??decrypt@?$ObfStr@$0FDEMFIJK@$0BK@@detail@obf@@QEBAPEBDXZ@4PADA 00000001400e8718     main.obj
 0002:0003f738       ?buf@?1??decrypt@?$ObfStr@$0FDDJAOGB@$0BN@@detail@obf@@QEBAPEBDXZ@4PADA 00000001400e8738     main.obj
 0002:0003f760       ?buf@?1??decrypt@?$ObfWStr@$0FDCGDFOI@$0EJ@@detail@obf@@QEBAPEB_WXZ@4PA_WA 00000001400e8760     main.obj
 0002:0003f7f8       ?buf@?1??decrypt@?$ObfStr@$0FDBENLGP@$0BH@@detail@obf@@QEBAPEBDXZ@4PADA 00000001400e87f8     main.obj
 0002:0003f810       ?buf@?1??decrypt@?$ObfStr@$0FDABICPG@$0BH@@detail@obf@@QEBAPEBDXZ@4PADA 00000001400e8810     main.obj
 0002:0003f828       ?buf@?1??decrypt@?$ObfStr@$0FCOOKIHN@$08@detail@obf@@QEBAPEBDXZ@4PADA 00000001400e8828     main.obj
 0002:0003f838       ?buf@?1??decrypt@?$ObfStr@$0FCNLFPME@$0BJ@@detail@obf@@QEBAPEBDXZ@4PADA 00000001400e8838     main.obj
 0002:0003f858       ?buf@?1??decrypt@?$ObfStr@$0FCMIAFEL@$0M@@detail@obf@@QEBAPEBDXZ@4PADA 00000001400e8858     main.obj
 0002:0003f864       ?buf@?1??decrypt@?$ObfStr@$0FCLFCMNC@$03@detail@obf@@QEBAPEBDXZ@4PADA 00000001400e8864     main.obj
 0002:0003f868       ?buf@?1??decrypt@?$ObfStr@$0FCKDNCFJ@$0CN@@detail@obf@@QEBAPEBDXZ@4PADA 00000001400e8868     main.obj
 0002:0003f8a0       ?buf@?1??decrypt@?$ObfWStr@$0FCJAPJCA@$0CL@@detail@obf@@QEBAPEB_WXZ@4PA_WA 00000001400e88a0     main.obj
 0002:0003f8f8       ?buf@?1??decrypt@?$ObfStr@$0FCHNKAKH@$08@detail@obf@@QEBAPEBDXZ@4PADA 00000001400e88f8     main.obj
 0002:0003f908       ?buf@?1??decrypt@?$ObfStr@$0FCGKFGCO@$0CE@@detail@obf@@QEBAPEBDXZ@4PADA 00000001400e8908     main.obj
 0002:0003f930       ?buf@?1??decrypt@?$ObfStr@$0FCFHHNLF@$0CJ@@detail@obf@@QEBAPEBDXZ@4PADA 00000001400e8930     main.obj
 0002:0003f960       ?buf@?1??decrypt@?$ObfStr@$0FCEECDDM@$0CM@@detail@obf@@QEBAPEBDXZ@4PADA 00000001400e8960     main.obj
 0002:0003f990       ?buf@?1??decrypt@?$ObfStr@$0FCDCMKID@$0N@@detail@obf@@QEBAPEBDXZ@4PADA 00000001400e8990     main.obj
 0002:0003f9a0       ?buf@?1??decrypt@?$ObfWStr@$0FCAMKHJB@$0BJ@@detail@obf@@QEBAPEB_WXZ@4PA_WA 00000001400e89a0     main.obj
 0002:0003f9e0       ?buf@?1??decrypt@?$ObfWStr@$0FBGCBBFA@$0CL@@detail@obf@@QEBAPEB_WXZ@4PA_WA 00000001400e89e0     main.obj
 0002:0003fa38       ?buf@?1??decrypt@?$ObfStr@$0FAJDFJBN@$0M@@detail@obf@@QEBAPEBDXZ@4PADA 00000001400e8a38     main.obj
 0002:0003fa48       ?buf@?1??decrypt@?$ObfStr@$0FAIAAAOE@$0N@@detail@obf@@QEBAPEBDXZ@4PADA 00000001400e8a48     main.obj
 0002:0003fa58       ?buf@?1??decrypt@?$ObfStr@$0FAGNDGGL@$0BD@@detail@obf@@QEBAPEBDXZ@4PADA 00000001400e8a58     main.obj
 0002:0003fa70       ?buf@?1??decrypt@?$ObfStr@$0FAFLNNPC@$0P@@detail@obf@@QEBAPEBDXZ@4PADA 00000001400e8a70     main.obj
 0002:0003fa80       ?buf@?1??decrypt@?$ObfStr@$0FAEIIDHJ@$0O@@detail@obf@@QEBAPEBDXZ@4PADA 00000001400e8a80     main.obj
 0002:0003fa90       ?buf@?1??decrypt@?$ObfStr@$0FADFKKMA@$0O@@detail@obf@@QEBAPEBDXZ@4PADA 00000001400e8a90     main.obj
 0002:0003faa0       ?buf@?1??decrypt@?$ObfStr@$0FACCFAEH@$0N@@detail@obf@@QEBAPEBDXZ@4PADA 00000001400e8aa0     main.obj
 0002:0003fab0       ?buf@?1??decrypt@?$ObfStr@$0FAAPAHMO@$0P@@detail@obf@@QEBAPEBDXZ@4PADA 00000001400e8ab0     main.obj
 0002:0003fac0       ?buf@?1??decrypt@?$ObfStr@$0EPPMCNFF@$0BD@@detail@obf@@QEBAPEBDXZ@4PADA 00000001400e8ac0     main.obj
 0002:0003fad8       ?buf@?1??decrypt@?$ObfStr@$0EPOKNENM@$0P@@detail@obf@@QEBAPEBDXZ@4PADA 00000001400e8ad8     main.obj
 0002:0003fae8       ?buf@?1??decrypt@?$ObfStr@$0EPNHPLKD@$0N@@detail@obf@@QEBAPEBDXZ@4PADA 00000001400e8ae8     main.obj
 0002:0003fb00       ?buf@?1??decrypt@?$ObfWStr@$0EPMEKBCK@$0CF@@detail@obf@@QEBAPEB_WXZ@4PA_WA 00000001400e8b00     main.obj
 0002:0003fb50       ?buf@?1??decrypt@?$ObfWStr@$0EPLBEILB@$08@detail@obf@@QEBAPEB_WXZ@4PA_WA 00000001400e8b50     main.obj
 0002:0003fb68       ?buf@?1??decrypt@?$ObfStr@$0EPJOHODI@$08@detail@obf@@QEBAPEBDXZ@4PADA 00000001400e8b68     main.obj
 0002:0003fb74       ?buf@?1??decrypt@?$ObfStr@$0EPILCFLP@$06@detail@obf@@QEBAPEBDXZ@4PADA 00000001400e8b74     main.obj
 0002:0003fb7c       ?buf@?1??decrypt@?$ObfStr@$0EPHJMLAG@$06@detail@obf@@QEBAPEBDXZ@4PADA 00000001400e8b7c     main.obj
 0002:0003fb84       ?buf@?1??decrypt@?$ObfStr@$0EPGGPCIN@$06@detail@obf@@QEBAPEBDXZ@4PADA 00000001400e8b84     main.obj
 0002:0003fb8c       ?buf@?1??decrypt@?$ObfStr@$0EPFDJIBE@$06@detail@obf@@QEBAPEBDXZ@4PADA 00000001400e8b8c     main.obj
 0002:0003fb98       ?buf@?1??decrypt@?$ObfStr@$0EPCNHFGC@$0N@@detail@obf@@QEBAPEBDXZ@4PADA 00000001400e8b98     main.obj
 0002:0003fba8       ?buf@?1??decrypt@?$ObfStr@$0EPBKBMOJ@$08@detail@obf@@QEBAPEBDXZ@4PADA 00000001400e8ba8     main.obj
 0002:0003fbb8       ?buf@?1??decrypt@?$ObfWStr@$0EOPFOJPH@$06@detail@obf@@QEBAPEB_WXZ@4PA_WA 00000001400e8bb8     main.obj
 0002:0003fbc8       ?buf@?1??decrypt@?$ObfStr@$0EOOCJPHO@$06@detail@obf@@QEBAPEBDXZ@4PADA 00000001400e8bc8     main.obj
 0002:0003fbd0       ?buf@?1??decrypt@?$ObfStr@$0EOMPEGMF@$0BJ@@detail@obf@@QEBAPEBDXZ@4PADA 00000001400e8bd0     main.obj
 0002:0003fbf0       ?buf@?1??decrypt@?$ObfWStr@$0EOLMGMEM@$09@detail@obf@@QEBAPEB_WXZ@4PA_WA 00000001400e8bf0     main.obj
 0002:0003fc08       ?buf@?1??decrypt@?$ObfStr@$0EOKJBDND@$0O@@detail@obf@@QEBAPEBDXZ@4PADA 00000001400e8c08     main.obj
 0002:0003fc18       ?buf@?1??decrypt@?$ObfWStr@$0EOJGDJFK@$09@detail@obf@@QEBAPEB_WXZ@4PA_WA 00000001400e8c18     main.obj
 0002:0003fc30       ?buf@?1??decrypt@?$ObfWStr@$0EOFOLNCP@$0BD@@detail@obf@@QEBAPEB_WXZ@4PA_WA 00000001400e8c30     main.obj
 0002:0003fc58       ?buf@?1??decrypt@?$ObfWStr@$0EOELGELG@$0BB@@detail@obf@@QEBAPEB_WXZ@4PA_WA 00000001400e8c58     main.obj
 0002:0003fc80       ?buf@?1??decrypt@?$ObfWStr@$0EODIAKDN@$0BD@@detail@obf@@QEBAPEB_WXZ@4PA_WA 00000001400e8c80     main.obj
 0002:0003fca8       ?buf@?1??decrypt@?$ObfWStr@$0EOCFDBIE@$0BB@@detail@obf@@QEBAPEB_WXZ@4PA_WA 00000001400e8ca8     main.obj
 0002:0003fcd0       ?buf@?1??decrypt@?$ObfWStr@$0EOBDOHAL@$0BI@@detail@obf@@QEBAPEB_WXZ@4PA_WA 00000001400e8cd0     main.obj
 0002:0003fd00       ?buf@?1??decrypt@?$ObfWStr@$0EOAAIOJC@$0O@@detail@obf@@QEBAPEB_WXZ@4PA_WA 00000001400e8d00     main.obj
 0002:0003fd20       ?buf@?1??decrypt@?$ObfStr@$0ENNKFLOA@$0CE@@detail@obf@@QEBAPEBDXZ@4PADA 00000001400e8d20     main.obj
 0002:0003fd48       ?buf@?1??decrypt@?$ObfStr@$0ENMHABGH@$0BI@@detail@obf@@QEBAPEBDXZ@4PADA 00000001400e8d48     main.obj
 0002:0003fd60       ?buf@?1??decrypt@?$ObfWStr@$0ENKCNOHF@$0BC@@detail@obf@@QEBAPEB_WXZ@4PA_WA 00000001400e8d60     main.obj
 0002:0003fd90       ?buf@?1??decrypt@?$ObfWStr@$0ENIPIFPM@$0CM@@detail@obf@@QEBAPEB_WXZ@4PA_WA 00000001400e8d90     main.obj
 0002:0003fde8       ?buf@?1??decrypt@?$ObfWStr@$0ENHMKLED@$07@detail@obf@@QEBAPEB_WXZ@4PA_WA 00000001400e8de8     main.obj
 0002:0003fdf8       ?buf@?1??decrypt@?$ObfWStr@$0ENGJFCMK@$07@detail@obf@@QEBAPEB_WXZ@4PA_WA 00000001400e8df8     main.obj
 0002:0003fe08       ?buf@?1??decrypt@?$ObfWStr@$0ENFGHIFB@$07@detail@obf@@QEBAPEB_WXZ@4PA_WA 00000001400e8e08     main.obj
 0002:0003fe18       ?buf@?1??decrypt@?$ObfWStr@$0ENDBNFFP@$04@detail@obf@@QEBAPEB_WXZ@4PA_WA 00000001400e8e18     main.obj
 0002:0003fe28       ?buf@?1??decrypt@?$ObfWStr@$0ENBOPMCG@$04@detail@obf@@QEBAPEB_WXZ@4PA_WA 00000001400e8e28     main.obj
 0002:0003fe38       ?buf@?1??decrypt@?$ObfWStr@$0ENALKDKN@$0BC@@detail@obf@@QEBAPEB_WXZ@4PA_WA 00000001400e8e38     main.obj
 0002:0003fe60       ?buf@?1??decrypt@?$ObfWStr@$0EMPIEJDE@$0EB@@detail@obf@@QEBAPEB_WXZ@4PA_WA 00000001400e8e60     main.obj
 0002:0003fee8       ?buf@?1??decrypt@?$ObfStr@$0ELMLOCKE@$0O@@detail@obf@@QEBAPEBDXZ@4PADA 00000001400e8ee8     main.obj
 0002:0003fef8       ?buf@?1??decrypt@?$ObfStr@$0ELLIIICL@$0BB@@detail@obf@@QEBAPEBDXZ@4PADA 00000001400e8ef8     main.obj
 0002:0003ff10       ?buf@?1??decrypt@?$ObfStr@$0ELKFLPLC@$0BL@@detail@obf@@QEBAPEBDXZ@4PADA 00000001400e8f10     main.obj
 0002:0003ff30       ?buf@?1??decrypt@?$ObfStr@$0ELJCGFDJ@$0BC@@detail@obf@@QEBAPEBDXZ@4PADA 00000001400e8f30     main.obj
 0002:0003ff48       ?buf@?1??decrypt@?$ObfStr@$0ELHPAMIA@$0BC@@detail@obf@@QEBAPEBDXZ@4PADA 00000001400e8f48     main.obj
 0002:0003ff60       ?buf@?1??decrypt@?$ObfStr@$0ELGMDCAH@$0BN@@detail@obf@@QEBAPEBDXZ@4PADA 00000001400e8f60     main.obj
 0002:0003ff80       ?buf@?1??decrypt@?$ObfStr@$0ELFKNJIO@$0BM@@detail@obf@@QEBAPEBDXZ@4PADA 00000001400e8f80     main.obj
 0002:0003ffa0       ?buf@?1??decrypt@?$ObfWStr@$0ELEHIPBF@$0L@@detail@obf@@QEBAPEB_WXZ@4PA_WA 00000001400e8fa0     main.obj
 0002:0003ffb8       ?buf@?1??decrypt@?$ObfStr@$0EKPLCJHB@$0BO@@detail@obf@@QEBAPEBDXZ@4PADA 00000001400e8fb8     main.obj
 0002:0003ffd8       ?buf@?1??decrypt@?$ObfWStr@$0EKOJNAPI@$09@detail@obf@@QEBAPEB_WXZ@4PA_WA 00000001400e8fd8     main.obj
 0002:0003fff0       ?buf@?1??decrypt@?$ObfStr@$0EGCAFIDP@$0BA@@detail@obf@@QEBAPEBDXZ@4PADA 00000001400e8ff0     main.obj
 0002:00040000       ?buf@?1??decrypt@?$ObfStr@$0EGANAPIG@$0M@@detail@obf@@QEBAPEBDXZ@4PADA 00000001400e9000     main.obj
 0002:00040010       ?buf@?1??decrypt@?$ObfStr@$0EFPKDFAN@$0P@@detail@obf@@QEBAPEBDXZ@4PADA 00000001400e9010     main.obj
 0002:00040020       ?buf@?1??decrypt@?$ObfStr@$0EFOINMJE@$0BB@@detail@obf@@QEBAPEBDXZ@4PADA 00000001400e9020     main.obj
 0002:00040038       ?buf@?1??decrypt@?$ObfStr@$0EFNFICBL@$0O@@detail@obf@@QEBAPEBDXZ@4PADA 00000001400e9038     main.obj
 0002:00040048       ?buf@?1??decrypt@?$ObfStr@$0EFMCKJOC@$0BA@@detail@obf@@QEBAPEBDXZ@4PADA 00000001400e9048     main.obj
 0002:00040058       ?buf@?1??decrypt@?$ObfWStr@$0EFKPFPGJ@$0N@@detail@obf@@QEBAPEB_WXZ@4PA_WA 00000001400e9058     main.obj
 0002:00040078       ?buf@?1??decrypt@?$ObfStr@$0EFJMAGPA@$0BD@@detail@obf@@QEBAPEBDXZ@4PADA 00000001400e9078     main.obj
 0002:00040090       ?buf@?1??decrypt@?$ObfStr@$0EFIJCMHH@$0BA@@detail@obf@@QEBAPEBDXZ@4PADA 00000001400e9090     main.obj
 0002:000400a0       ?buf@?1??decrypt@?$ObfStr@$0EFHHNDPO@$0BE@@detail@obf@@QEBAPEBDXZ@4PADA 00000001400e90a0     main.obj
 0002:000400b8       ?buf@?1??decrypt@?$ObfStr@$0EFGEPJEF@$0BH@@detail@obf@@QEBAPEBDXZ@4PADA 00000001400e90b8     main.obj
 0002:000400d0       ?buf@?1??decrypt@?$ObfStr@$0EFFBKAMM@$0BD@@detail@obf@@QEBAPEBDXZ@4PADA 00000001400e90d0     main.obj
 0002:000400e8       ?buf@?1??decrypt@?$ObfStr@$0EFDOFGFD@$0BD@@detail@obf@@QEBAPEBDXZ@4PADA 00000001400e90e8     main.obj
 0002:00040100       ?buf@?1??decrypt@?$ObfStr@$0EFCLHNNK@$0P@@detail@obf@@QEBAPEBDXZ@4PADA 00000001400e9100     main.obj
 0002:00040110       ?buf@?1??decrypt@?$ObfStr@$0EFBICEKB@$0BD@@detail@obf@@QEBAPEBDXZ@4PADA 00000001400e9110     main.obj
 0002:00040128       ?buf@?1??decrypt@?$ObfStr@$0EFAGMKCI@$0M@@detail@obf@@QEBAPEBDXZ@4PADA 00000001400e9128     main.obj
 0002:00040138       ?buf@?1??decrypt@?$ObfStr@$0EEPDPBKP@$0BA@@detail@obf@@QEBAPEBDXZ@4PADA 00000001400e9138     main.obj
 0002:00040148       ?buf@?1??decrypt@?$ObfWStr@$0EEOAKHDG@$0M@@detail@obf@@QEBAPEB_WXZ@4PA_WA 00000001400e9148     main.obj
 0002:00040160       ?buf@?1??decrypt@?$ObfStr@$0EEMNEOLN@$0O@@detail@obf@@QEBAPEBDXZ@4PADA 00000001400e9160     main.obj
 0002:00040170       ?buf@?1??decrypt@?$ObfStr@$0EELKHEAE@$0O@@detail@obf@@QEBAPEBDXZ@4PADA 00000001400e9170     main.obj
 0002:00040180       ?buf@?1??decrypt@?$ObfStr@$0EEKHBLIL@$0L@@detail@obf@@QEBAPEBDXZ@4PADA 00000001400e9180     main.obj
 0002:00040190       ?buf@?1??decrypt@?$ObfStr@$0EEJFMBBC@$0BC@@detail@obf@@QEBAPEBDXZ@4PADA 00000001400e9190     main.obj
 0002:000401a8       ?buf@?1??decrypt@?$ObfStr@$0EEICOIJJ@$0N@@detail@obf@@QEBAPEBDXZ@4PADA 00000001400e91a8     main.obj
 0002:000401b8       ?buf@?1??decrypt@?$ObfStr@$0EEGPJOGA@$0BB@@detail@obf@@QEBAPEBDXZ@4PADA 00000001400e91b8     main.obj
 0002:000401d0       ?buf@?1??decrypt@?$ObfStr@$0EEFMEFOH@$0P@@detail@obf@@QEBAPEBDXZ@4PADA 00000001400e91d0     main.obj
 0002:000401e0       ?buf@?1??decrypt@?$ObfWStr@$0EEEJGLGO@$0M@@detail@obf@@QEBAPEB_WXZ@4PA_WA 00000001400e91e0     main.obj
 0002:000401f8       ?buf@?1??decrypt@?$ObfStr@$0EEDGBCPF@$0BD@@detail@obf@@QEBAPEBDXZ@4PADA 00000001400e91f8     main.obj
 0002:00040210       ?buf@?1??decrypt@?$ObfStr@$0EECDDIHM@$0P@@detail@obf@@QEBAPEBDXZ@4PADA 00000001400e9210     main.obj
 0002:00040220       ?buf@?1??decrypt@?$ObfStr@$0EEBBOPMD@$0N@@detail@obf@@QEBAPEBDXZ@4PADA 00000001400e9220     main.obj
 0002:00040230       ?buf@?1??decrypt@?$ObfStr@$0EDPOJFEK@$0O@@detail@obf@@QEBAPEBDXZ@4PADA 00000001400e9230     main.obj
 0002:00040240       ?buf@?1??decrypt@?$ObfStr@$0EDOLLMNB@$0N@@detail@obf@@QEBAPEBDXZ@4PADA 00000001400e9240     main.obj
 0002:00040250       ?buf@?1??decrypt@?$ObfStr@$0EDNIGCFI@$0N@@detail@obf@@QEBAPEBDXZ@4PADA 00000001400e9250     main.obj
 0002:00040260       ?buf@?1??decrypt@?$ObfStr@$0EDMFAJNP@$0O@@detail@obf@@QEBAPEBDXZ@4PADA 00000001400e9260     main.obj
 0002:00040270       ?buf@?1??decrypt@?$ObfStr@$0EDLCDAKG@$0O@@detail@obf@@QEBAPEBDXZ@4PADA 00000001400e9270     main.obj
 0002:00040280       ?buf@?1??decrypt@?$ObfStr@$0EDKAOGCN@$0BE@@detail@obf@@QEBAPEBDXZ@4PADA 00000001400e9280     main.obj
 0002:00040298       ?buf@?1??decrypt@?$ObfStr@$0EDININLE@$0BA@@detail@obf@@QEBAPEBDXZ@4PADA 00000001400e9298     main.obj
 0002:000402a8       ?buf@?1??decrypt@?$ObfStr@$0EDHKLDDL@$0BF@@detail@obf@@QEBAPEBDXZ@4PADA 00000001400e92a8     main.obj
 0002:000402c0       ?buf@?1??decrypt@?$ObfStr@$0EDGHFKIC@$0BE@@detail@obf@@QEBAPEBDXZ@4PADA 00000001400e92c0     main.obj
 0002:000402d8       ?buf@?1??decrypt@?$ObfStr@$0EDFEAAAJ@$0BK@@detail@obf@@QEBAPEBDXZ@4PADA 00000001400e92d8     main.obj
 0002:000402f8       ?buf@?1??decrypt@?$ObfStr@$0EDEBDHJA@$0BI@@detail@obf@@QEBAPEBDXZ@4PADA 00000001400e92f8     main.obj
 0002:00040310       ?buf@?1??decrypt@?$ObfStr@$0EDCPNNBH@$0BI@@detail@obf@@QEBAPEBDXZ@4PADA 00000001400e9310     main.obj
 0002:00040328       ?buf@?1??decrypt@?$ObfStr@$0EDBMIEJO@$0N@@detail@obf@@QEBAPEBDXZ@4PADA 00000001400e9328     main.obj
 0002:00040338       ?buf@?1??decrypt@?$ObfStr@$0EDAJKKGF@$0BK@@detail@obf@@QEBAPEBDXZ@4PADA 00000001400e9338     main.obj
 0002:00040358       ?buf@?1??decrypt@?$ObfStr@$0ECPGFBOM@$0BB@@detail@obf@@QEBAPEBDXZ@4PADA 00000001400e9358     main.obj
 0002:00040370       ?buf@?1??decrypt@?$ObfStr@$0ECODAHHD@$0M@@detail@obf@@QEBAPEBDXZ@4PADA 00000001400e9370     main.obj
 0002:00040380       ?buf@?1??decrypt@?$ObfStr@$0ECNACOPK@$0BB@@detail@obf@@QEBAPEBDXZ@4PADA 00000001400e9380     main.obj
 0002:00040398       ?buf@?1??decrypt@?$ObfStr@$0ECLONEEB@$0BH@@detail@obf@@QEBAPEBDXZ@4PADA 00000001400e9398     main.obj
 0002:000403b0       ?buf@?1??decrypt@?$ObfStr@$0ECKLPLMI@$0BC@@detail@obf@@QEBAPEBDXZ@4PADA 00000001400e93b0     main.obj
 0002:000403c8       ?buf@?1??decrypt@?$ObfStr@$0ECJIKBEP@$0M@@detail@obf@@QEBAPEBDXZ@4PADA 00000001400e93c8     main.obj
 0002:000403d8       ?buf@?1??decrypt@?$ObfStr@$0ECIFEING@$0BC@@detail@obf@@QEBAPEBDXZ@4PADA 00000001400e93d8     main.obj
 0002:000403f0       ?buf@?1??decrypt@?$ObfStr@$0ECHCHOFN@$0BM@@detail@obf@@QEBAPEBDXZ@4PADA 00000001400e93f0     main.obj
 0002:00040410       ?buf@?1??decrypt@?$ObfStr@$0ECFPCFCE@$0BJ@@detail@obf@@QEBAPEBDXZ@4PADA 00000001400e9410     main.obj
 0002:00040430       ?buf@?1??decrypt@?$ObfStr@$0ECENMMKL@$0P@@detail@obf@@QEBAPEBDXZ@4PADA 00000001400e9430     main.obj
 0002:00040440       ?buf@?1??decrypt@?$ObfStr@$0ECDKPCDC@$0P@@detail@obf@@QEBAPEBDXZ@4PADA 00000001400e9440     main.obj
 0002:00040450       ?buf@?1??decrypt@?$ObfStr@$0ECCHJJLJ@$0P@@detail@obf@@QEBAPEBDXZ@4PADA 00000001400e9450     main.obj
 0002:00040460       ?buf@?1??decrypt@?$ObfStr@$0ECBEEPAA@$0N@@detail@obf@@QEBAPEBDXZ@4PADA 00000001400e9460     main.obj
 0002:00040470       ?buf@?1??decrypt@?$ObfStr@$0ECABHGIH@$0N@@detail@obf@@QEBAPEBDXZ@4PADA 00000001400e9470     main.obj
 0002:00040480       ?buf@?1??decrypt@?$ObfStr@$0EBOOBMAO@$0BI@@detail@obf@@QEBAPEBDXZ@4PADA 00000001400e9480     main.obj
 0002:00040498       ?buf@?1??decrypt@?$ObfStr@$0EBNMMDJF@$0BI@@detail@obf@@QEBAPEBDXZ@4PADA 00000001400e9498     main.obj
 0002:000404b0       ?buf@?1??decrypt@?$ObfStr@$0EBMJOJBM@$0BJ@@detail@obf@@QEBAPEBDXZ@4PADA 00000001400e94b0     main.obj
 0002:000404d0       ?buf@?1??decrypt@?$ObfStr@$0EBLGJAOD@$0BK@@detail@obf@@QEBAPEBDXZ@4PADA 00000001400e94d0     main.obj
 0002:000404f0       ?buf@?1??decrypt@?$ObfStr@$0EBKDEGGK@$0BE@@detail@obf@@QEBAPEBDXZ@4PADA 00000001400e94f0     main.obj
 0002:00040508       ?buf@?1??decrypt@?$ObfStr@$0EBJAGNPB@$0BG@@detail@obf@@QEBAPEBDXZ@4PADA 00000001400e9508     main.obj
 0002:00040520       ?buf@?1??decrypt@?$ObfStr@$0EBHNBDHI@$0BF@@detail@obf@@QEBAPEBDXZ@4PADA 00000001400e9520     main.obj
 0002:00040538       ?buf@?1??decrypt@?$ObfStr@$0EBGKDKPP@$0BF@@detail@obf@@QEBAPEBDXZ@4PADA 00000001400e9538     main.obj
 0002:00040550       ?buf@?1??decrypt@?$ObfStr@$0EBFIOAEG@$0BM@@detail@obf@@QEBAPEBDXZ@4PADA 00000001400e9550     main.obj
 0002:00040570       ?buf@?1??decrypt@?$ObfStr@$0EBEFJHMN@$0CG@@detail@obf@@QEBAPEBDXZ@4PADA 00000001400e9570     main.obj
 0002:00040598       ?buf@?1??decrypt@?$ObfStr@$0EBDCLNFE@$07@detail@obf@@QEBAPEBDXZ@4PADA 00000001400e9598     main.obj
 0002:000405a0       ?buf@?1??decrypt@?$ObfStr@$0EBBPGENL@$0M@@detail@obf@@QEBAPEBDXZ@4PADA 00000001400e95a0     main.obj
 0002:000405b0       ?buf@?1??decrypt@?$ObfStr@$0EBAMALKC@$0M@@detail@obf@@QEBAPEBDXZ@4PADA 00000001400e95b0     main.obj
 0002:000405c0       ?buf@?1??decrypt@?$ObfStr@$0EAPJDBCJ@$08@detail@obf@@QEBAPEBDXZ@4PADA 00000001400e95c0     main.obj
 0002:000405d0       ?buf@?1??decrypt@?$ObfStr@$0EAOHNILA@$07@detail@obf@@QEBAPEBDXZ@4PADA 00000001400e95d0     main.obj
 0002:000405d8       ?buf@?1??decrypt@?$ObfStr@$0EANEIODH@$0M@@detail@obf@@QEBAPEBDXZ@4PADA 00000001400e95d8     main.obj
 0002:000405e8       ?buf@?1??decrypt@?$ObfStr@$0EAMBLFLO@$0M@@detail@obf@@QEBAPEBDXZ@4PADA 00000001400e95e8     main.obj
 0002:000405f8       ?buf@?1??decrypt@?$ObfStr@$0EAKOFLAF@$08@detail@obf@@QEBAPEBDXZ@4PADA 00000001400e95f8     main.obj
 0002:00040608       ?buf@?1??decrypt@?$ObfStr@$0EAJLACIM@$0BD@@detail@obf@@QEBAPEBDXZ@4PADA 00000001400e9608     main.obj
 0002:00040620       ?buf@?1??decrypt@?$ObfStr@$0EAIICIBD@$0N@@detail@obf@@QEBAPEBDXZ@4PADA 00000001400e9620     main.obj
 0002:00040630       ?buf@?1??decrypt@?$ObfStr@$0EAHGNPJK@$05@detail@obf@@QEBAPEBDXZ@4PADA 00000001400e9630     main.obj
 0002:00040638       ?buf@?1??decrypt@?$ObfStr@$0EAGDIFGB@$0P@@detail@obf@@QEBAPEBDXZ@4PADA 00000001400e9638     main.obj
 0002:00040648       ?buf@?1??decrypt@?$ObfStr@$0EAFAKMOI@$08@detail@obf@@QEBAPEBDXZ@4PADA 00000001400e9648     main.obj
 0002:00040658       ?buf@?1??decrypt@?$ObfStr@$0EADNFCGP@$08@detail@obf@@QEBAPEBDXZ@4PADA 00000001400e9658     main.obj
 0002:00040668       ?buf@?1??decrypt@?$ObfStr@$0EACKHJPG@$0M@@detail@obf@@QEBAPEBDXZ@4PADA 00000001400e9668     main.obj
 0002:00040678       ?buf@?1??decrypt@?$ObfStr@$0EABHCPHN@$09@detail@obf@@QEBAPEBDXZ@4PADA 00000001400e9678     main.obj
 0002:00040688       ?buf@?1??decrypt@?$ObfStr@$0EAAFNGME@$0P@@detail@obf@@QEBAPEBDXZ@4PADA 00000001400e9688     main.obj
 0002:00040698       ?buf@?1??decrypt@?$ObfStr@$0DPPCPMEL@$0N@@detail@obf@@QEBAPEBDXZ@4PADA 00000001400e9698     main.obj
 0002:000406a8       ?buf@?1??decrypt@?$ObfStr@$0DPNPKDNC@$0L@@detail@obf@@QEBAPEBDXZ@4PADA 00000001400e96a8     main.obj
 0002:000406b8       ?buf@?1??decrypt@?$ObfStr@$0DPMMEJFJ@$0L@@detail@obf@@QEBAPEBDXZ@4PADA 00000001400e96b8     main.obj
 0002:000406c8       ?buf@?1??decrypt@?$ObfStr@$0DPLJHACA@$0M@@detail@obf@@QEBAPEBDXZ@4PADA 00000001400e96c8     main.obj
 0002:000406d8       ?buf@?1??decrypt@?$ObfStr@$0DPKGCHKH@$09@detail@obf@@QEBAPEBDXZ@4PADA 00000001400e96d8     main.obj
 0002:000406e8       ?buf@?1??decrypt@?$ObfStr@$0DPJEMNCO@$0P@@detail@obf@@QEBAPEBDXZ@4PADA 00000001400e96e8     main.obj
 0002:000406f8       ?buf@?1??decrypt@?$ObfStr@$0DPIBPELF@$0N@@detail@obf@@QEBAPEBDXZ@4PADA 00000001400e96f8     main.obj
 0002:00040708       ?buf@?1??decrypt@?$ObfStr@$0DPGOJKDM@$0N@@detail@obf@@QEBAPEBDXZ@4PADA 00000001400e9708     main.obj
 0002:00040718       ?buf@?1??decrypt@?$ObfStr@$0DPFLEBID@$0O@@detail@obf@@QEBAPEBDXZ@4PADA 00000001400e9718     main.obj
 0002:00040728       ?buf@?1??decrypt@?$ObfStr@$0DPEIHHAK@$0P@@detail@obf@@QEBAPEBDXZ@4PADA 00000001400e9728     main.obj
 0002:00040738       ?buf@?1??decrypt@?$ObfStr@$0DPDFBOJB@$0M@@detail@obf@@QEBAPEBDXZ@4PADA 00000001400e9738     main.obj
 0002:00040748       ?buf@?1??decrypt@?$ObfStr@$0DPCDMEBI@$0P@@detail@obf@@QEBAPEBDXZ@4PADA 00000001400e9748     main.obj
 0002:00040758       ?buf@?1??decrypt@?$ObfStr@$0DPBAOLJP@$0N@@detail@obf@@QEBAPEBDXZ@4PADA 00000001400e9758     main.obj
 0002:00040768       ?buf@?1??decrypt@?$ObfStr@$0DOPNJBGG@$0N@@detail@obf@@QEBAPEBDXZ@4PADA 00000001400e9768     main.obj
 0002:00040778       ?buf@?1??decrypt@?$ObfStr@$0DOOKLION@$0BD@@detail@obf@@QEBAPEBDXZ@4PADA 00000001400e9778     main.obj
 0002:00040790       ?buf@?1??decrypt@?$ObfStr@$0DONHGOHE@$0BB@@detail@obf@@QEBAPEBDXZ@4PADA 00000001400e9790     main.obj
 0002:000407a8       ?buf@?1??decrypt@?$ObfStr@$0DOMEBFPL@$0BB@@detail@obf@@QEBAPEBDXZ@4PADA 00000001400e97a8     main.obj
 0002:000407c0       ?buf@?1??decrypt@?$ObfStr@$0DOLBDLEC@$09@detail@obf@@QEBAPEBDXZ@4PADA 00000001400e97c0     main.obj
 0002:000407d0       ?buf@?1??decrypt@?$ObfStr@$0DOJPOCMJ@$0O@@detail@obf@@QEBAPEBDXZ@4PADA 00000001400e97d0     main.obj
 0002:000407e0       ?buf@?1??decrypt@?$ObfStr@$0DOIMIIFA@$0BB@@detail@obf@@QEBAPEBDXZ@4PADA 00000001400e97e0     main.obj
 0002:000407f8       ?buf@?1??decrypt@?$ObfStr@$0DOHJLPNH@$0P@@detail@obf@@QEBAPEBDXZ@4PADA 00000001400e97f8     main.obj
 0002:00040808       ?buf@?1??decrypt@?$ObfStr@$0DOGGGFFO@$0BD@@detail@obf@@QEBAPEBDXZ@4PADA 00000001400e9808     main.obj
 0002:00040820       ?buf@?1??decrypt@?$ObfStr@$0DOFDAMCF@$0BB@@detail@obf@@QEBAPEBDXZ@4PADA 00000001400e9820     main.obj
 0002:00040838       ?buf@?1??decrypt@?$ObfStr@$0DOEADDKM@$0BB@@detail@obf@@QEBAPEBDXZ@4PADA 00000001400e9838     main.obj
 0002:00040850       ?buf@?1??decrypt@?$ObfStr@$0DOCONJDD@$0BA@@detail@obf@@QEBAPEBDXZ@4PADA 00000001400e9850     main.obj
 0002:00040860       ?buf@?1??decrypt@?$ObfStr@$0DOBLIALK@$0BN@@detail@obf@@QEBAPEBDXZ@4PADA 00000001400e9860     main.obj
 0002:00040880       ?buf@?1??decrypt@?$ObfStr@$0DOAILGAB@$0BB@@detail@obf@@QEBAPEBDXZ@4PADA 00000001400e9880     main.obj
 0002:00040898       ?buf@?1??decrypt@?$ObfStr@$0DNPFFNII@$0M@@detail@obf@@QEBAPEBDXZ@4PADA 00000001400e9898     main.obj
 0002:000408a8       ?buf@?1??decrypt@?$ObfStr@$0DNOCADAP@$0O@@detail@obf@@QEBAPEBDXZ@4PADA 00000001400e98a8     main.obj
 0002:000408b8       ?buf@?1??decrypt@?$ObfStr@$0DNMPCKJG@$0N@@detail@obf@@QEBAPEBDXZ@4PADA 00000001400e98b8     main.obj
 0002:000408c8       ?buf@?1??decrypt@?$ObfStr@$0DNLNNABN@$0BB@@detail@obf@@QEBAPEBDXZ@4PADA 00000001400e98c8     main.obj
 0002:000408e0       ?buf@?1??decrypt@?$ObfStr@$0DNKKIHOE@$08@detail@obf@@QEBAPEBDXZ@4PADA 00000001400e98e0     main.obj
 0002:000408f0       ?buf@?1??decrypt@?$ObfStr@$0DNJHKNGL@$09@detail@obf@@QEBAPEBDXZ@4PADA 00000001400e98f0     main.obj
 0002:00040900       ?buf@?1??decrypt@?$ObfStr@$0DNIEFEPC@$0M@@detail@obf@@QEBAPEBDXZ@4PADA 00000001400e9900     main.obj
 0002:00040910       ?buf@?1??decrypt@?$ObfStr@$0DNHBHKHJ@$0M@@detail@obf@@QEBAPEBDXZ@4PADA 00000001400e9910     main.obj
 0002:00040920       ?buf@?1??decrypt@?$ObfStr@$0DNFOCBMA@$0BD@@detail@obf@@QEBAPEBDXZ@4PADA 00000001400e9920     main.obj
 0002:00040938       ?buf@?1??decrypt@?$ObfStr@$0DNEMNHEH@$0BF@@detail@obf@@QEBAPEBDXZ@4PADA 00000001400e9938     main.obj
 0002:00040950       ?buf@?1??decrypt@?$ObfStr@$0DNDJPOMO@$0BD@@detail@obf@@QEBAPEBDXZ@4PADA 00000001400e9950     main.obj
 0002:00040968       ?buf@?1??decrypt@?$ObfStr@$0DNCGKEFF@$0N@@detail@obf@@QEBAPEBDXZ@4PADA 00000001400e9968     main.obj
 0002:00040978       ?buf@?1??decrypt@?$ObfStr@$0DNBDELNM@$0BA@@detail@obf@@QEBAPEBDXZ@4PADA 00000001400e9978     main.obj
 0002:00040988       ?buf@?1??decrypt@?$ObfStr@$0DNAAHCKD@$0BA@@detail@obf@@QEBAPEBDXZ@4PADA 00000001400e9988     main.obj
 0002:00040998       ?buf@?1??decrypt@?$ObfStr@$0DMONBICK@$0BI@@detail@obf@@QEBAPEBDXZ@4PADA 00000001400e9998     main.obj
 0002:000409b0       ?buf@?1??decrypt@?$ObfStr@$0DMNLMPLB@$0BH@@detail@obf@@QEBAPEBDXZ@4PADA 00000001400e99b0     main.obj
 0002:000409c8       ?buf@?1??decrypt@?$ObfStr@$0DMMIPFDI@$0BI@@detail@obf@@QEBAPEBDXZ@4PADA 00000001400e99c8     main.obj
 0002:000409e0       ?buf@?1??decrypt@?$ObfStr@$0DMLFJMLP@$0BD@@detail@obf@@QEBAPEBDXZ@4PADA 00000001400e99e0     main.obj
 0002:000409f8       ?buf@?1??decrypt@?$ObfStr@$0DMKCECAG@$0BD@@detail@obf@@QEBAPEBDXZ@4PADA 00000001400e99f8     main.obj
 0002:00040a10       ?buf@?1??decrypt@?$ObfStr@$0DMIPGJIN@$0O@@detail@obf@@QEBAPEBDXZ@4PADA 00000001400e9a10     main.obj
 0002:00040a20       ?buf@?1??decrypt@?$ObfStr@$0DMHMBPBE@$0BA@@detail@obf@@QEBAPEBDXZ@4PADA 00000001400e9a20     main.obj
 0002:00040a30       ?buf@?1??decrypt@?$ObfStr@$0DMGKMGJL@$08@detail@obf@@QEBAPEBDXZ@4PADA 00000001400e9a30     main.obj
 0002:00040a3c       ?buf@?1??decrypt@?$ObfStr@$0DMFHOMGC@$06@detail@obf@@QEBAPEBDXZ@4PADA 00000001400e9a3c     main.obj
 0002:00040a48       ?buf@?1??decrypt@?$ObfStr@$0DMEEJDOJ@$09@detail@obf@@QEBAPEBDXZ@4PADA 00000001400e9a48     main.obj
 0002:00040a58       ?buf@?1??decrypt@?$ObfStr@$0DMDBLJHA@$0P@@detail@obf@@QEBAPEBDXZ@4PADA 00000001400e9a58     main.obj
 0002:00040a68       ?buf@?1??decrypt@?$ObfStr@$0DMBOGAPH@$0N@@detail@obf@@QEBAPEBDXZ@4PADA 00000001400e9a68     main.obj
 0002:00040a78       ?buf@?1??decrypt@?$ObfStr@$0DMALBGHO@$0BA@@detail@obf@@QEBAPEBDXZ@4PADA 00000001400e9a78     main.obj
 0002:00040a88       ?buf@?1??decrypt@?$ObfStr@$0DLPIDNMF@$0P@@detail@obf@@QEBAPEBDXZ@4PADA 00000001400e9a88     main.obj
 0002:00040a98       ?buf@?1??decrypt@?$ObfStr@$0DLOGODEM@$0P@@detail@obf@@QEBAPEBDXZ@4PADA 00000001400e9a98     main.obj
 0002:00040aa8       ?buf@?1??decrypt@?$ObfStr@$0DLNDIKND@$0BE@@detail@obf@@QEBAPEBDXZ@4PADA 00000001400e9aa8     main.obj
 0002:00040ac0       ?buf@?1??decrypt@?$ObfStr@$0DLMALAFK@$0BE@@detail@obf@@QEBAPEBDXZ@4PADA 00000001400e9ac0     main.obj
 0002:00040ad8       ?buf@?1??decrypt@?$ObfStr@$0DLKNGHCB@$0BM@@detail@obf@@QEBAPEBDXZ@4PADA 00000001400e9ad8     main.obj
 0002:00040af8       ?buf@?1??decrypt@?$ObfStr@$0DLJKAOKI@$0BF@@detail@obf@@QEBAPEBDXZ@4PADA 00000001400e9af8     main.obj
 0002:00040b10       ?buf@?1??decrypt@?$ObfStr@$0DLIHDECP@$0P@@detail@obf@@QEBAPEBDXZ@4PADA 00000001400e9b10     main.obj
 0002:00040b20       ?buf@?1??decrypt@?$ObfStr@$0DLHFNLLG@$0BC@@detail@obf@@QEBAPEBDXZ@4PADA 00000001400e9b20     main.obj
 0002:00040b38       ?buf@?1??decrypt@?$ObfStr@$0DLGCIBDN@$0BE@@detail@obf@@QEBAPEBDXZ@4PADA 00000001400e9b38     main.obj
 0002:00040b50       ?buf@?1??decrypt@?$ObfStr@$0DLEPKIIE@$0BC@@detail@obf@@QEBAPEBDXZ@4PADA 00000001400e9b50     main.obj
 0002:00040b68       ?buf@?1??decrypt@?$ObfStr@$0DLDMFOAL@$0BA@@detail@obf@@QEBAPEBDXZ@4PADA 00000001400e9b68     main.obj
 0002:00040b78       ?buf@?1??decrypt@?$ObfStr@$0DLCJAFJC@$0BA@@detail@obf@@QEBAPEBDXZ@4PADA 00000001400e9b78     main.obj
 0002:00040b88       ?buf@?1??decrypt@?$ObfStr@$0DLBGCLBJ@$0O@@detail@obf@@QEBAPEBDXZ@4PADA 00000001400e9b88     main.obj
 0002:00040b98       ?buf@?1??decrypt@?$ObfStr@$0DLAENCOA@$0BD@@detail@obf@@QEBAPEBDXZ@4PADA 00000001400e9b98     main.obj
 0002:00040bb0       ?buf@?1??decrypt@?$ObfStr@$0DKPBPIGH@$0M@@detail@obf@@QEBAPEBDXZ@4PADA 00000001400e9bb0     main.obj
 0002:00040bc0       ?buf@?1??decrypt@?$ObfWStr@$0DKNOKPOO@$0N@@detail@obf@@QEBAPEB_WXZ@4PA_WA 00000001400e9bc0     main.obj
 0002:00040be0       ?buf@?1??decrypt@?$ObfWStr@$0FCBPPAAK@$0BA@@detail@obf@@QEBAPEB_WXZ@4PA_WA 00000001400e9be0     main.obj
 0002:00040c00       ?buf@?1??decrypt@?$ObfWStr@$0FBPJENBI@$0CB@@detail@obf@@QEBAPEB_WXZ@4PA_WA 00000001400e9c00     main.obj
 0002:00040c50       ?buf@?1??decrypt@?$ObfWStr@$0FBOGHEJP@$0CG@@detail@obf@@QEBAPEB_WXZ@4PA_WA 00000001400e9c50     main.obj
 0002:00040ca0       ?buf@?1??decrypt@?$ObfWStr@$0FBNDBKGG@$0DJ@@detail@obf@@QEBAPEB_WXZ@4PA_WA 00000001400e9ca0     main.obj
 0002:00040d20       ?buf@?1??decrypt@?$ObfWStr@$0FBMBMBON@$0EF@@detail@obf@@QEBAPEB_WXZ@4PA_WA 00000001400e9d20     main.obj
 0002:00040db0       ?buf@?1??decrypt@?$ObfWStr@$0FBKOPHHE@$0DG@@detail@obf@@QEBAPEB_WXZ@4PA_WA 00000001400e9db0     main.obj
 0002:00040e20       ?buf@?1??decrypt@?$ObfWStr@$0FBJLJOPL@$0CK@@detail@obf@@QEBAPEB_WXZ@4PA_WA 00000001400e9e20     main.obj
 0002:00040e80       ?buf@?1??decrypt@?$ObfWStr@$0FBIIEEEC@$0CC@@detail@obf@@QEBAPEB_WXZ@4PA_WA 00000001400e9e80     main.obj
 0002:00040ed0       ?buf@?1??decrypt@?$ObfWStr@$0FBHFGLMJ@$0DB@@detail@obf@@QEBAPEB_WXZ@4PA_WA 00000001400e9ed0     main.obj
 0002:00040f38       ?buf@?1??decrypt@?$ObfWStr@$0FBEPDINH@$0BK@@detail@obf@@QEBAPEB_WXZ@4PA_WA 00000001400e9f38     main.obj
 0002:00040f70       ?buf@?1??decrypt@?$ObfWStr@$0FBDNOOFO@$0FJ@@detail@obf@@QEBAPEB_WXZ@4PA_WA 00000001400e9f70     main.obj
 0002:00041030       ?buf@?1??decrypt@?$ObfWStr@$0FBCKJFCF@$0CN@@detail@obf@@QEBAPEB_WXZ@4PA_WA 00000001400ea030     main.obj
 0002:00041090       ?buf@?1??decrypt@?$ObfWStr@$0FBBHLMKM@$08@detail@obf@@QEBAPEB_WXZ@4PA_WA 00000001400ea090     main.obj
 0002:000410a8       ?buf@?1??decrypt@?$ObfWStr@$0FBAEGCDD@$08@detail@obf@@QEBAPEB_WXZ@4PA_WA 00000001400ea0a8     main.obj
 0002:000410c0       ?buf@?1??decrypt@?$ObfWStr@$0FAPBAJLK@$0GP@@detail@obf@@QEBAPEB_WXZ@4PA_WA 00000001400ea0c0     main.obj
 0002:000411a0       ?buf@?1??decrypt@?$ObfWStr@$0FANODPAB@$0CF@@detail@obf@@QEBAPEB_WXZ@4PA_WA 00000001400ea1a0     main.obj
 0002:000411f0       ?buf@?1??decrypt@?$ObfWStr@$0FAMMOGII@$0EB@@detail@obf@@QEBAPEB_WXZ@4PA_WA 00000001400ea1f0     main.obj
 0002:00041280       ?buf@?1??decrypt@?$ObfWStr@$0FALJIMAP@$0DG@@detail@obf@@QEBAPEB_WXZ@4PA_WA 00000001400ea280     main.obj
 0002:000412f0       ?buf@?1??decrypt@?$ObfWStr@$0FAKGLDJG@$0DH@@detail@obf@@QEBAPEB_WXZ@4PA_WA 00000001400ea2f0     main.obj
 0002:00041360       ?buf@?1??decrypt@?$ObfWStr@$0EPAIMCHA@$07@detail@obf@@QEBAPEB_WXZ@4PA_WA 00000001400ea360     main.obj
 0002:00041370       ?buf@?1??decrypt@?$ObfWStr@$0ENONLEBJ@$04@detail@obf@@QEBAPEB_WXZ@4PA_WA 00000001400ea370     main.obj
 0002:00041380       ?buf@?1??decrypt@?$ObfWStr@$0ENLECIOO@$0CM@@detail@obf@@QEBAPEB_WXZ@4PA_WA 00000001400ea380     main.obj
 0002:000413e0       ?buf@?1??decrypt@?$ObfWStr@$0ENEDCPNI@$0DK@@detail@obf@@QEBAPEB_WXZ@4PA_WA 00000001400ea3e0     main.obj
 0002:00041460       ?buf@?1??decrypt@?$ObfWStr@$0EMOFHALL@$0CH@@detail@obf@@QEBAPEB_WXZ@4PA_WA 00000001400ea460     main.obj
 0002:000414b0       ?buf@?1??decrypt@?$ObfWStr@$0EMNCCGAC@$0DG@@detail@obf@@QEBAPEB_WXZ@4PA_WA 00000001400ea4b0     main.obj
 0002:00041520       ?buf@?1??decrypt@?$ObfWStr@$0EMMAMNIJ@$0DD@@detail@obf@@QEBAPEB_WXZ@4PA_WA 00000001400ea520     main.obj
 0002:00041590       ?buf@?1??decrypt@?$ObfWStr@$0EMKNPDBA@$0DE@@detail@obf@@QEBAPEB_WXZ@4PA_WA 00000001400ea590     main.obj
 0002:000415f8       ?buf@?1??decrypt@?$ObfWStr@$0EMJKJKJH@$0BK@@detail@obf@@QEBAPEB_WXZ@4PA_WA 00000001400ea5f8     main.obj
 0002:00041630       ?buf@?1??decrypt@?$ObfWStr@$0EMIHEABO@$0CO@@detail@obf@@QEBAPEB_WXZ@4PA_WA 00000001400ea630     main.obj
 0002:0004168c       ?buf@?1??decrypt@?$ObfWStr@$0EMHEHHOF@$01@detail@obf@@QEBAPEB_WXZ@4PA_WA 00000001400ea68c     main.obj
 0002:00041690       ?buf@?1??decrypt@?$ObfWStr@$0EMGBBNGM@$0CP@@detail@obf@@QEBAPEB_WXZ@4PA_WA 00000001400ea690     main.obj
 0002:000416f0       ?buf@?1??decrypt@?$ObfWStr@$0EMEPMEPD@$0CB@@detail@obf@@QEBAPEB_WXZ@4PA_WA 00000001400ea6f0     main.obj
 0002:00041740       ?buf@?1??decrypt@?$ObfWStr@$0EMDMOKHK@$0GA@@detail@obf@@QEBAPEB_WXZ@4PA_WA 00000001400ea740     main.obj
 0002:00041800       ?buf@?1??decrypt@?$ObfWStr@$0EMCJJBMB@$0DG@@detail@obf@@QEBAPEB_WXZ@4PA_WA 00000001400ea800     main.obj
 0002:00041870       ?buf@?1??decrypt@?$ObfWStr@$0EMBGEHEI@$0EG@@detail@obf@@QEBAPEB_WXZ@4PA_WA 00000001400ea870     main.obj
 0002:00041900       ?buf@?1??decrypt@?$ObfWStr@$0EMADGOMP@$0DD@@detail@obf@@QEBAPEB_WXZ@4PA_WA 00000001400ea900     main.obj
 0002:00041970       ?buf@?1??decrypt@?$ObfWStr@$0ELPABEFG@$0DE@@detail@obf@@QEBAPEB_WXZ@4PA_WA 00000001400ea970     main.obj
 0002:000419e0       ?buf@?1??decrypt@?$ObfWStr@$0ELNNDLNN@$0CI@@detail@obf@@QEBAPEB_WXZ@4PA_WA 00000001400ea9e0     main.obj
 0002:00041a30       ?buf@?1??decrypt@?$ObfWStr@$0ELDELGJM@$0BE@@detail@obf@@QEBAPEB_WXZ@4PA_WA 00000001400eaa30     main.obj
 0002:00041a58       _Init_thread_epoch         00000001400eaa58     LIBCMT:thread_safe_statics.obj
 0002:00041a5c       _tls_end                   00000001400eaa5c     LIBCMT:tlssup.obj
 0002:0004df90       _CT??_R0?AVexception@std@@@8??0exception@std@@QEAA@AEBV01@@Z24 00000001400f6f90     main.obj
 0002:0004dfb8       _TI3?AVbad_array_new_length@std@@ 00000001400f6fb8     main.obj
 0002:0004dfd8       _CTA3?AVbad_array_new_length@std@@ 00000001400f6fd8     main.obj
 0002:0004dff8       _CT??_R0?AVbad_array_new_length@std@@@8??0bad_array_new_length@std@@QEAA@AEBV01@@Z24 00000001400f6ff8     main.obj
 0002:0004e020       _CT??_R0?AVbad_alloc@std@@@8??0bad_alloc@std@@QEAA@AEBV01@@Z24 00000001400f7020     main.obj
 0002:0004e048       _TI2?AVbad_cast@std@@      00000001400f7048     main.obj
 0002:0004e068       _CTA2?AVbad_cast@std@@     00000001400f7068     main.obj
 0002:0004e080       _CT??_R0?AVbad_cast@std@@@8??0bad_cast@std@@QEAA@AEBV01@@Z24 00000001400f7080     main.obj
 0002:0004e0a8       _CT??_R0?AVruntime_error@std@@@8??0runtime_error@std@@QEAA@AEBV01@@Z24 00000001400f70a8     main.obj
 0002:0004e0d0       _TI4?AVsystem_error@std@@  00000001400f70d0     main.obj
 0002:0004e0f0       _CTA4?AVsystem_error@std@@ 00000001400f70f0     main.obj
 0002:0004e118       _CT??_R0?AVsystem_error@std@@@8??0system_error@std@@QEAA@AEBV01@@Z40 00000001400f7118     main.obj
 0002:0004e140       _CT??_R0?AV_System_error@std@@@8??0_System_error@std@@QEAA@AEBV01@@Z40 00000001400f7140     main.obj
 0002:0004e168       _TI3?AVformat_error@std@@  00000001400f7168     main.obj
 0002:0004e188       _CTA3?AVformat_error@std@@ 00000001400f7188     main.obj
 0002:0004e1a8       _CT??_R0?AVformat_error@std@@@8??0format_error@std@@QEAA@AEBV01@@Z24 00000001400f71a8     main.obj
 0002:0004e1d0       _TI5?AVfilesystem_error@filesystem@std@@ 00000001400f71d0     main.obj
 0002:0004e1f0       _CTA5?AVfilesystem_error@filesystem@std@@ 00000001400f71f0     main.obj
 0002:0004e220       _CT??_R0?AVfilesystem_error@filesystem@std@@@8??0filesystem_error@filesystem@std@@QEAA@AEBV012@@Z136 00000001400f7220     main.obj
 0002:0004e248       _TI2?AVbad_alloc@std@@     00000001400f7248     libcpmt:xthrow.obj
 0002:0004e268       _CTA2?AVbad_alloc@std@@    00000001400f7268     libcpmt:xthrow.obj
 0002:0004e280       _CT??_R0?AVlogic_error@std@@@8??0logic_error@std@@QEAA@AEBV01@@Z24 00000001400f7280     libcpmt:xthrow.obj
 0002:0004e2a8       _TI3?AVlength_error@std@@  00000001400f72a8     libcpmt:xthrow.obj
 0002:0004e2c8       _CTA3?AVlength_error@std@@ 00000001400f72c8     libcpmt:xthrow.obj
 0002:0004e2e8       _CT??_R0?AVlength_error@std@@@8??0length_error@std@@QEAA@AEBV01@@Z24 00000001400f72e8     libcpmt:xthrow.obj
 0002:0004e310       _TI3?AVout_of_range@std@@  00000001400f7310     libcpmt:xthrow.obj
 0002:0004e330       _CTA3?AVout_of_range@std@@ 00000001400f7330     libcpmt:xthrow.obj
 0002:0004e350       _CT??_R0?AVout_of_range@std@@@8??0out_of_range@std@@QEAA@AEBV01@@Z24 00000001400f7350     libcpmt:xthrow.obj
 0002:0004e378       _TI2?AVruntime_error@std@@ 00000001400f7378     libcpmt:xthrow.obj
 0002:0004e398       _CTA2?AVruntime_error@std@@ 00000001400f7398     libcpmt:xthrow.obj
 0002:0004e3b0       _TI2?AVbad_exception@std@@ 00000001400f73b0     libvcruntime:frame.obj
 0002:0004e3d0       _CTA2?AVbad_exception@std@@ 00000001400f73d0     libvcruntime:frame.obj
 0002:0004e3e8       _CT??_R0?AVbad_exception@std@@@8??0bad_exception@std@@QEAA@AEBV01@@Z24 00000001400f73e8     libvcruntime:frame.obj
 0002:0004e40c       __IMPORT_DESCRIPTOR_VMProtectSDK64 00000001400f740c     VMProtectSDK64:VMProtectSDK64.dll
 0002:0004e420       __IMPORT_DESCRIPTOR_KERNEL32 00000001400f7420     kernel32:KERNEL32.dll
 0002:0004e434       __IMPORT_DESCRIPTOR_USER32 00000001400f7434     user32:USER32.dll
 0002:0004e448       __IMPORT_DESCRIPTOR_ADVAPI32 00000001400f7448     advapi32:ADVAPI32.dll
 0002:0004e45c       __IMPORT_DESCRIPTOR_SHELL32 00000001400f745c     shell32:SHELL32.dll
 0002:0004e470       __IMPORT_DESCRIPTOR_WINHTTP 00000001400f7470     winhttp:WINHTTP.dll
 0002:0004e484       __IMPORT_DESCRIPTOR_D3DCOMPILER_47 00000001400f7484     d3dcompiler:D3DCOMPILER_47.dll
 0002:0004e498       __NULL_IMPORT_DESCRIPTOR   00000001400f7498     VMProtectSDK64:VMProtectSDK64.dll
 0003:00000000       ?g_log_path@dlog@@3V?$basic_string@_WU?$char_traits@_W@std@@V?$allocator@_W@2@@std@@A 00000001400f9000     main.obj
 0003:00000020       ?g_kvc_path@embedded@@3V?$basic_string@_WU?$char_traits@_W@std@@V?$allocator@_W@2@@std@@A 00000001400f9020     main.obj
 0003:00000040       ?g_driver_path@embedded@@3V?$basic_string@_WU?$char_traits@_W@std@@V?$allocator@_W@2@@std@@A 00000001400f9040     main.obj
 0003:00000060       ?g_payload_path@embedded@@3V?$basic_string@_WU?$char_traits@_W@std@@V?$allocator@_W@2@@std@@A 00000001400f9060     main.obj
 0003:00000080       ?g_error_msg@auth@@3V?$basic_string@_WU?$char_traits@_W@std@@V?$allocator@_W@2@@std@@A 00000001400f9080     main.obj
 0003:000000a0       ?g_loaded_svc_name@auth@@3V?$basic_string@_WU?$char_traits@_W@std@@V?$allocator@_W@2@@std@@A 00000001400f90a0     main.obj
 0003:000000c0       ?g_status_label@auth@@3PEBDEB 00000001400f90c0     main.obj
 0003:000000c8       ?g_pending_key@auth@@3V?$basic_string@DU?$char_traits@D@std@@V?$allocator@D@2@@std@@A 00000001400f90c8     main.obj
 0003:000000e8       ?_Static@?1???$_Immortalize_memcpy_image@V_Generic_error_category@std@@@std@@YAAEBV_Generic_error_category@1@XZ@4V21@B 00000001400f90e8     main.obj
